
/tree/projects/github/fx201p-ram-replacement/firmware/hd36106_replacement/build/hd36106_replacement.elf:     file format elf32-littlearm

Sections:
Idx Name          Size      VMA       LMA       File off  Algn
  0 .boot2        00000100  10000000  10000000  00001000  2**0
                  CONTENTS, ALLOC, LOAD, READONLY, CODE
  1 .flashtext    000001e0  10000100  10000100  00001100  2**3
                  CONTENTS, ALLOC, LOAD, READONLY, CODE
  2 .rodata       00000000  100002e0  100002e0  0000e88c  2**0
                  CONTENTS, ALLOC, LOAD, DATA
  3 .binary_info  0000002c  100002e0  100002e0  000012e0  2**2
                  CONTENTS, ALLOC, LOAD, DATA
  4 .ram_vector_table 000000c0  20000000  20000000  0000e88c  2**2
                  CONTENTS
  5 .text         0000a828  200000c0  1000030c  000020c0  2**3
                  CONTENTS, ALLOC, LOAD, READONLY, CODE
  6 .data         00001f9c  2000a8f0  1000ab34  0000c8f0  2**4
                  CONTENTS, ALLOC, LOAD, CODE
  7 .uninitialized_data 00000000  2000c88c  2000c88c  0000e94c  2**0
                  CONTENTS
  8 .scratch_x    00000000  20040000  20040000  0000e94c  2**0
                  CONTENTS
  9 .scratch_y    00000000  20041000  20041000  0000e94c  2**0
                  CONTENTS
 10 .bss          0000828c  2000c890  2000c890  0000e890  2**3
                  ALLOC
 11 .heap         00000800  20014b1c  20014b1c  0000e94c  2**2
                  CONTENTS, READONLY
 12 .stack1_dummy 00000800  20040000  20040000  0000f14c  2**2
                  CONTENTS
 13 .stack_dummy  00000800  20041000  20041000  0000f960  2**5
                  CONTENTS, READONLY
 14 .ARM.attributes 00000028  00000000  00000000  00010160  2**0
                  CONTENTS, READONLY
 15 .comment      000000a7  00000000  00000000  00010188  2**0
                  CONTENTS, READONLY
 16 .debug_info   00043d1f  00000000  00000000  0001022f  2**0
                  CONTENTS, READONLY, DEBUGGING, OCTETS
 17 .debug_abbrev 00009c92  00000000  00000000  00053f4e  2**0
                  CONTENTS, READONLY, DEBUGGING, OCTETS
 18 .debug_loc    00030137  00000000  00000000  0005dbe0  2**0
                  CONTENTS, READONLY, DEBUGGING, OCTETS
 19 .debug_aranges 000012a8  00000000  00000000  0008dd18  2**3
                  CONTENTS, READONLY, DEBUGGING, OCTETS
 20 .debug_ranges 0000cfa0  00000000  00000000  0008efc0  2**0
                  CONTENTS, READONLY, DEBUGGING, OCTETS
 21 .debug_line   0002390e  00000000  00000000  0009bf60  2**0
                  CONTENTS, READONLY, DEBUGGING, OCTETS
 22 .debug_str    0000837b  00000000  00000000  000bf86e  2**0
                  CONTENTS, READONLY, DEBUGGING, OCTETS
 23 .debug_frame  0000331c  00000000  00000000  000c7bec  2**2
                  CONTENTS, READONLY, DEBUGGING, OCTETS

/tree/projects/github/fx201p-ram-replacement/firmware/hd36106_replacement/build/hd36106_replacement.elf:     file format elf32-littlearm


Disassembly of section .boot2:

10000000 <__boot2_start__>:
10000000:	4b32b500 	.word	0x4b32b500
10000004:	60582021 	.word	0x60582021
10000008:	21026898 	.word	0x21026898
1000000c:	60984388 	.word	0x60984388
10000010:	611860d8 	.word	0x611860d8
10000014:	4b2e6158 	.word	0x4b2e6158
10000018:	60992100 	.word	0x60992100
1000001c:	61592102 	.word	0x61592102
10000020:	22f02101 	.word	0x22f02101
10000024:	492b5099 	.word	0x492b5099
10000028:	21016019 	.word	0x21016019
1000002c:	20356099 	.word	0x20356099
10000030:	f844f000 	.word	0xf844f000
10000034:	42902202 	.word	0x42902202
10000038:	2106d014 	.word	0x2106d014
1000003c:	f0006619 	.word	0xf0006619
10000040:	6e19f834 	.word	0x6e19f834
10000044:	66192101 	.word	0x66192101
10000048:	66182000 	.word	0x66182000
1000004c:	f000661a 	.word	0xf000661a
10000050:	6e19f82c 	.word	0x6e19f82c
10000054:	6e196e19 	.word	0x6e196e19
10000058:	f0002005 	.word	0xf0002005
1000005c:	2101f82f 	.word	0x2101f82f
10000060:	d1f94208 	.word	0xd1f94208
10000064:	60992100 	.word	0x60992100
10000068:	6019491b 	.word	0x6019491b
1000006c:	60592100 	.word	0x60592100
10000070:	481b491a 	.word	0x481b491a
10000074:	21016001 	.word	0x21016001
10000078:	21eb6099 	.word	0x21eb6099
1000007c:	21a06619 	.word	0x21a06619
10000080:	f0006619 	.word	0xf0006619
10000084:	2100f812 	.word	0x2100f812
10000088:	49166099 	.word	0x49166099
1000008c:	60014814 	.word	0x60014814
10000090:	60992101 	.word	0x60992101
10000094:	2800bc01 	.word	0x2800bc01
10000098:	4700d000 	.word	0x4700d000
1000009c:	49134812 	.word	0x49134812
100000a0:	c8036008 	.word	0xc8036008
100000a4:	8808f380 	.word	0x8808f380
100000a8:	b5034708 	.word	0xb5034708
100000ac:	20046a99 	.word	0x20046a99
100000b0:	d0fb4201 	.word	0xd0fb4201
100000b4:	42012001 	.word	0x42012001
100000b8:	bd03d1f8 	.word	0xbd03d1f8
100000bc:	6618b502 	.word	0x6618b502
100000c0:	f7ff6618 	.word	0xf7ff6618
100000c4:	6e18fff2 	.word	0x6e18fff2
100000c8:	bd026e18 	.word	0xbd026e18
100000cc:	40020000 	.word	0x40020000
100000d0:	18000000 	.word	0x18000000
100000d4:	00070000 	.word	0x00070000
100000d8:	005f0300 	.word	0x005f0300
100000dc:	00002221 	.word	0x00002221
100000e0:	180000f4 	.word	0x180000f4
100000e4:	a0002022 	.word	0xa0002022
100000e8:	10000100 	.word	0x10000100
100000ec:	e000ed08 	.word	0xe000ed08
	...
100000fc:	7a4eb274 	.word	0x7a4eb274

Disassembly of section .flashtext:

10000100 <__VECTOR_TABLE>:
10000100:	20042000 	.word	0x20042000
10000104:	100001f7 	.word	0x100001f7
10000108:	100001c3 	.word	0x100001c3
1000010c:	100001c5 	.word	0x100001c5
10000110:	100001c1 	.word	0x100001c1
10000114:	100001c1 	.word	0x100001c1
10000118:	100001c1 	.word	0x100001c1
1000011c:	100001c1 	.word	0x100001c1
10000120:	100001c1 	.word	0x100001c1
10000124:	100001c1 	.word	0x100001c1
10000128:	100001c1 	.word	0x100001c1
1000012c:	100001c7 	.word	0x100001c7
10000130:	100001c1 	.word	0x100001c1
10000134:	100001c1 	.word	0x100001c1
10000138:	100001c9 	.word	0x100001c9
1000013c:	100001cb 	.word	0x100001cb
10000140:	100001cd 	.word	0x100001cd
10000144:	100001cd 	.word	0x100001cd
10000148:	100001cd 	.word	0x100001cd
1000014c:	100001cd 	.word	0x100001cd
10000150:	100001cd 	.word	0x100001cd
10000154:	100001cd 	.word	0x100001cd
10000158:	100001cd 	.word	0x100001cd
1000015c:	100001cd 	.word	0x100001cd
10000160:	100001cd 	.word	0x100001cd
10000164:	100001cd 	.word	0x100001cd
10000168:	100001cd 	.word	0x100001cd
1000016c:	100001cd 	.word	0x100001cd
10000170:	100001cd 	.word	0x100001cd
10000174:	100001cd 	.word	0x100001cd
10000178:	100001cd 	.word	0x100001cd
1000017c:	100001cd 	.word	0x100001cd
10000180:	100001cd 	.word	0x100001cd
10000184:	100001cd 	.word	0x100001cd
10000188:	100001cd 	.word	0x100001cd
1000018c:	100001cd 	.word	0x100001cd
10000190:	100001cd 	.word	0x100001cd
10000194:	100001cd 	.word	0x100001cd
10000198:	100001cd 	.word	0x100001cd
1000019c:	100001cd 	.word	0x100001cd
100001a0:	100001cd 	.word	0x100001cd
100001a4:	100001cd 	.word	0x100001cd
100001a8:	100001cd 	.word	0x100001cd
100001ac:	100001cd 	.word	0x100001cd
100001b0:	100001cd 	.word	0x100001cd
100001b4:	100001cd 	.word	0x100001cd
100001b8:	100001cd 	.word	0x100001cd
100001bc:	100001cd 	.word	0x100001cd

100001c0 <isr_invalid>:
100001c0:	be00      	bkpt	0x0000

100001c2 <isr_nmi>:
100001c2:	be00      	bkpt	0x0000

100001c4 <isr_hardfault>:
100001c4:	be00      	bkpt	0x0000

100001c6 <isr_svcall>:
100001c6:	be00      	bkpt	0x0000

100001c8 <isr_pendsv>:
100001c8:	be00      	bkpt	0x0000

100001ca <isr_systick>:
100001ca:	be00      	bkpt	0x0000

100001cc <__unhandled_user_irq>:
100001cc:	f000 f851 	bl	10000272 <__get_current_exception>
100001d0:	3810      	subs	r0, #16

100001d2 <unhandled_user_irq_num_in_r0>:
100001d2:	be00      	bkpt	0x0000

100001d4 <binary_info_header>:
100001d4:	7188ebf2 	.word	0x7188ebf2
100001d8:	100002e0 	.word	0x100002e0
100001dc:	1000030c 	.word	0x1000030c
100001e0:	10000234 	.word	0x10000234
100001e4:	e71aa390 	.word	0xe71aa390

100001e8 <_entry_point>:
100001e8:	2000      	movs	r0, #0
100001ea:	4924      	ldr	r1, [pc, #144]	; (1000027c <__get_current_exception+0xa>)
100001ec:	6008      	str	r0, [r1, #0]
100001ee:	c806      	ldmia	r0!, {r1, r2}
100001f0:	f381 8808 	msr	MSP, r1
100001f4:	4710      	bx	r2

100001f6 <_reset_handler>:
100001f6:	4822      	ldr	r0, [pc, #136]	; (10000280 <__get_current_exception+0xe>)
100001f8:	6800      	ldr	r0, [r0, #0]
100001fa:	2800      	cmp	r0, #0
100001fc:	d135      	bne.n	1000026a <hold_non_core0_in_bootrom>
100001fe:	a40d      	add	r4, pc, #52	; (adr r4, 10000234 <data_cpy_table>)
10000200:	cc0e      	ldmia	r4!, {r1, r2, r3}
10000202:	2900      	cmp	r1, #0
10000204:	d002      	beq.n	1000020c <_reset_handler+0x16>
10000206:	f000 f812 	bl	1000022e <data_cpy>
1000020a:	e7f9      	b.n	10000200 <_reset_handler+0xa>
1000020c:	491d      	ldr	r1, [pc, #116]	; (10000284 <__get_current_exception+0x12>)
1000020e:	4a1e      	ldr	r2, [pc, #120]	; (10000288 <__get_current_exception+0x16>)
10000210:	2000      	movs	r0, #0
10000212:	e000      	b.n	10000216 <bss_fill_test>

10000214 <bss_fill_loop>:
10000214:	c101      	stmia	r1!, {r0}

10000216 <bss_fill_test>:
10000216:	4291      	cmp	r1, r2
10000218:	d1fc      	bne.n	10000214 <bss_fill_loop>

1000021a <platform_entry>:
1000021a:	491c      	ldr	r1, [pc, #112]	; (1000028c <__get_current_exception+0x1a>)
1000021c:	4788      	blx	r1
1000021e:	491c      	ldr	r1, [pc, #112]	; (10000290 <__get_current_exception+0x1e>)
10000220:	4788      	blx	r1
10000222:	491c      	ldr	r1, [pc, #112]	; (10000294 <__get_current_exception+0x22>)
10000224:	4788      	blx	r1
10000226:	be00      	bkpt	0x0000
10000228:	e7fd      	b.n	10000226 <platform_entry+0xc>

1000022a <data_cpy_loop>:
1000022a:	c901      	ldmia	r1!, {r0}
1000022c:	c201      	stmia	r2!, {r0}

1000022e <data_cpy>:
1000022e:	429a      	cmp	r2, r3
10000230:	d3fb      	bcc.n	1000022a <data_cpy_loop>
10000232:	4770      	bx	lr

10000234 <data_cpy_table>:
10000234:	1000030c 	.word	0x1000030c
10000238:	200000c0 	.word	0x200000c0
1000023c:	2000a8e8 	.word	0x2000a8e8
10000240:	1000ab34 	.word	0x1000ab34
10000244:	2000a8f0 	.word	0x2000a8f0
10000248:	2000c88c 	.word	0x2000c88c
1000024c:	1000cad0 	.word	0x1000cad0
10000250:	20040000 	.word	0x20040000
10000254:	20040000 	.word	0x20040000
10000258:	1000cad0 	.word	0x1000cad0
1000025c:	20041000 	.word	0x20041000
10000260:	20041000 	.word	0x20041000
10000264:	00000000 	.word	0x00000000
10000268:	4770      	bx	lr

1000026a <hold_non_core0_in_bootrom>:
1000026a:	480b      	ldr	r0, [pc, #44]	; (10000298 <__get_current_exception+0x26>)
1000026c:	f000 f818 	bl	100002a0 <__rom_func_lookup_veneer>
10000270:	4700      	bx	r0

10000272 <__get_current_exception>:
10000272:	f3ef 8005 	mrs	r0, IPSR
10000276:	b2c0      	uxtb	r0, r0
10000278:	4770      	bx	lr
1000027a:	0000      	.short	0x0000
1000027c:	e000ed08 	.word	0xe000ed08
10000280:	d0000000 	.word	0xd0000000
10000284:	2000c890 	.word	0x2000c890
10000288:	20014b1c 	.word	0x20014b1c
1000028c:	20003d89 	.word	0x20003d89
10000290:	20002225 	.word	0x20002225
10000294:	20003e79 	.word	0x20003e79
10000298:	00005657 	.word	0x00005657
1000029c:	00000000 	.word	0x00000000

100002a0 <__rom_func_lookup_veneer>:
100002a0:	b401      	push	{r0}
100002a2:	4802      	ldr	r0, [pc, #8]	; (100002ac <__rom_func_lookup_veneer+0xc>)
100002a4:	4684      	mov	ip, r0
100002a6:	bc01      	pop	{r0}
100002a8:	4760      	bx	ip
100002aa:	bf00      	nop
100002ac:	20005ac1 	.word	0x20005ac1

100002b0 <__bi_50>:
100002b0:	50520006 5360b3ab 2000c244              ..RP..`SD.. 

100002bc <__bi_38>:
100002bc:	50520006 02031c86 2000c254              ..RP....T.. 

100002c8 <__bi_30>:
100002c8:	50520006 9da22254 2000c268              ..RPT"..h.. 

100002d4 <__bi_22>:
100002d4:	50520005 68f465de 1000cad0              ..RP.e.h....

Disassembly of section .text:

200000c0 <_init>:
200000c0:	b5f8      	push	{r3, r4, r5, r6, r7, lr}
200000c2:	46c0      	nop			; (mov r8, r8)

200000c4 <deregister_tm_clones>:
200000c4:	4804      	ldr	r0, [pc, #16]	; (200000d8 <deregister_tm_clones+0x14>)
200000c6:	4b05      	ldr	r3, [pc, #20]	; (200000dc <deregister_tm_clones+0x18>)
200000c8:	b510      	push	{r4, lr}
200000ca:	4283      	cmp	r3, r0
200000cc:	d003      	beq.n	200000d6 <deregister_tm_clones+0x12>
200000ce:	4b04      	ldr	r3, [pc, #16]	; (200000e0 <deregister_tm_clones+0x1c>)
200000d0:	2b00      	cmp	r3, #0
200000d2:	d000      	beq.n	200000d6 <deregister_tm_clones+0x12>
200000d4:	4798      	blx	r3
200000d6:	bd10      	pop	{r4, pc}
200000d8:	2000c88c 	.word	0x2000c88c
200000dc:	2000c88c 	.word	0x2000c88c
200000e0:	00000000 	.word	0x00000000

200000e4 <register_tm_clones>:
200000e4:	4806      	ldr	r0, [pc, #24]	; (20000100 <register_tm_clones+0x1c>)
200000e6:	4907      	ldr	r1, [pc, #28]	; (20000104 <register_tm_clones+0x20>)
200000e8:	1a09      	subs	r1, r1, r0
200000ea:	108b      	asrs	r3, r1, #2
200000ec:	0fc9      	lsrs	r1, r1, #31
200000ee:	18c9      	adds	r1, r1, r3
200000f0:	b510      	push	{r4, lr}
200000f2:	1049      	asrs	r1, r1, #1
200000f4:	d003      	beq.n	200000fe <register_tm_clones+0x1a>
200000f6:	4b04      	ldr	r3, [pc, #16]	; (20000108 <register_tm_clones+0x24>)
200000f8:	2b00      	cmp	r3, #0
200000fa:	d000      	beq.n	200000fe <register_tm_clones+0x1a>
200000fc:	4798      	blx	r3
200000fe:	bd10      	pop	{r4, pc}
20000100:	2000c88c 	.word	0x2000c88c
20000104:	2000c88c 	.word	0x2000c88c
20000108:	00000000 	.word	0x00000000

2000010c <__do_global_dtors_aux>:
2000010c:	b510      	push	{r4, lr}
2000010e:	4c07      	ldr	r4, [pc, #28]	; (2000012c <__do_global_dtors_aux+0x20>)
20000110:	7823      	ldrb	r3, [r4, #0]
20000112:	2b00      	cmp	r3, #0
20000114:	d109      	bne.n	2000012a <__do_global_dtors_aux+0x1e>
20000116:	f7ff ffd5 	bl	200000c4 <deregister_tm_clones>
2000011a:	4b05      	ldr	r3, [pc, #20]	; (20000130 <__do_global_dtors_aux+0x24>)
2000011c:	2b00      	cmp	r3, #0
2000011e:	d002      	beq.n	20000126 <__do_global_dtors_aux+0x1a>
20000120:	4804      	ldr	r0, [pc, #16]	; (20000134 <__do_global_dtors_aux+0x28>)
20000122:	e000      	b.n	20000126 <__do_global_dtors_aux+0x1a>
20000124:	bf00      	nop
20000126:	2301      	movs	r3, #1
20000128:	7023      	strb	r3, [r4, #0]
2000012a:	bd10      	pop	{r4, pc}
2000012c:	2000c9a8 	.word	0x2000c9a8
20000130:	00000000 	.word	0x00000000
20000134:	2000a8e8 	.word	0x2000a8e8

20000138 <frame_dummy>:
20000138:	4b05      	ldr	r3, [pc, #20]	; (20000150 <frame_dummy+0x18>)
2000013a:	b510      	push	{r4, lr}
2000013c:	2b00      	cmp	r3, #0
2000013e:	d003      	beq.n	20000148 <frame_dummy+0x10>
20000140:	4904      	ldr	r1, [pc, #16]	; (20000154 <frame_dummy+0x1c>)
20000142:	4805      	ldr	r0, [pc, #20]	; (20000158 <frame_dummy+0x20>)
20000144:	e000      	b.n	20000148 <frame_dummy+0x10>
20000146:	bf00      	nop
20000148:	f7ff ffcc 	bl	200000e4 <register_tm_clones>
2000014c:	bd10      	pop	{r4, pc}
2000014e:	46c0      	nop			; (mov r8, r8)
20000150:	00000000 	.word	0x00000000
20000154:	2000c9ac 	.word	0x2000c9ac
20000158:	2000a8e8 	.word	0x2000a8e8

2000015c <cli_digit>:
2000015c:	4905      	ldr	r1, [pc, #20]	; (20000174 <cli_digit+0x18>)
2000015e:	680a      	ldr	r2, [r1, #0]
20000160:	0093      	lsls	r3, r2, #2
20000162:	189b      	adds	r3, r3, r2
20000164:	4a04      	ldr	r2, [pc, #16]	; (20000178 <cli_digit+0x1c>)
20000166:	005b      	lsls	r3, r3, #1
20000168:	6812      	ldr	r2, [r2, #0]
2000016a:	3a30      	subs	r2, #48	; 0x30
2000016c:	189b      	adds	r3, r3, r2
2000016e:	600b      	str	r3, [r1, #0]
20000170:	4770      	bx	lr
20000172:	46c0      	nop			; (mov r8, r8)
20000174:	2000d33c 	.word	0x2000d33c
20000178:	2000d320 	.word	0x2000d320

2000017c <cli_zero_parameter>:
2000017c:	2200      	movs	r2, #0
2000017e:	4b01      	ldr	r3, [pc, #4]	; (20000184 <cli_zero_parameter+0x8>)
20000180:	601a      	str	r2, [r3, #0]
20000182:	4770      	bx	lr
20000184:	2000d33c 	.word	0x2000d33c

20000188 <cli_set_address>:
20000188:	4b02      	ldr	r3, [pc, #8]	; (20000194 <cli_set_address+0xc>)
2000018a:	681a      	ldr	r2, [r3, #0]
2000018c:	4b02      	ldr	r3, [pc, #8]	; (20000198 <cli_set_address+0x10>)
2000018e:	601a      	str	r2, [r3, #0]
20000190:	4770      	bx	lr
20000192:	46c0      	nop			; (mov r8, r8)
20000194:	2000d33c 	.word	0x2000d33c
20000198:	2000cd58 	.word	0x2000cd58

2000019c <cli_start_tracing>:
2000019c:	2300      	movs	r3, #0
2000019e:	4a09      	ldr	r2, [pc, #36]	; (200001c4 <cli_start_tracing+0x28>)
200001a0:	b530      	push	{r4, r5, lr}
200001a2:	6013      	str	r3, [r2, #0]
200001a4:	4a08      	ldr	r2, [pc, #32]	; (200001c8 <cli_start_tracing+0x2c>)
200001a6:	21fa      	movs	r1, #250	; 0xfa
200001a8:	6013      	str	r3, [r2, #0]
200001aa:	2200      	movs	r2, #0
200001ac:	4d07      	ldr	r5, [pc, #28]	; (200001cc <cli_start_tracing+0x30>)
200001ae:	4c08      	ldr	r4, [pc, #32]	; (200001d0 <cli_start_tracing+0x34>)
200001b0:	4808      	ldr	r0, [pc, #32]	; (200001d4 <cli_start_tracing+0x38>)
200001b2:	00c9      	lsls	r1, r1, #3
200001b4:	54ea      	strb	r2, [r5, r3]
200001b6:	54e2      	strb	r2, [r4, r3]
200001b8:	54c2      	strb	r2, [r0, r3]
200001ba:	3301      	adds	r3, #1
200001bc:	428b      	cmp	r3, r1
200001be:	d1f9      	bne.n	200001b4 <cli_start_tracing+0x18>
200001c0:	bd30      	pop	{r4, r5, pc}
200001c2:	46c0      	nop			; (mov r8, r8)
200001c4:	2000d368 	.word	0x2000d368
200001c8:	2000cf18 	.word	0x2000cf18
200001cc:	2000f764 	.word	0x2000f764
200001d0:	20014088 	.word	0x20014088
200001d4:	200127a4 	.word	0x200127a4

200001d8 <cli_toggle_auto_increment_parameter>:
200001d8:	4a02      	ldr	r2, [pc, #8]	; (200001e4 <cli_toggle_auto_increment_parameter+0xc>)
200001da:	6813      	ldr	r3, [r2, #0]
200001dc:	4259      	negs	r1, r3
200001de:	414b      	adcs	r3, r1
200001e0:	6013      	str	r3, [r2, #0]
200001e2:	4770      	bx	lr
200001e4:	2000cd70 	.word	0x2000cd70

200001e8 <cli_toggle_auto_increment_address>:
200001e8:	4a02      	ldr	r2, [pc, #8]	; (200001f4 <cli_toggle_auto_increment_address+0xc>)
200001ea:	6813      	ldr	r3, [r2, #0]
200001ec:	4259      	negs	r1, r3
200001ee:	414b      	adcs	r3, r1
200001f0:	6013      	str	r3, [r2, #0]
200001f2:	4770      	bx	lr
200001f4:	2000cd6c 	.word	0x2000cd6c

200001f8 <cli_information>:
200001f8:	b510      	push	{r4, lr}
200001fa:	200a      	movs	r0, #10
200001fc:	f007 fb8a 	bl	20007914 <__wrap_putchar>
20000200:	4b04      	ldr	r3, [pc, #16]	; (20000214 <cli_information+0x1c>)
20000202:	4805      	ldr	r0, [pc, #20]	; (20000218 <cli_information+0x20>)
20000204:	6819      	ldr	r1, [r3, #0]
20000206:	f007 fc8d 	bl	20007b24 <__wrap_printf>
2000020a:	200a      	movs	r0, #10
2000020c:	f007 fb82 	bl	20007914 <__wrap_putchar>
20000210:	bd10      	pop	{r4, pc}
20000212:	46c0      	nop			; (mov r8, r8)
20000214:	2000d334 	.word	0x2000d334
20000218:	2000ac7c 	.word	0x2000ac7c

2000021c <cli_display_trace>:
2000021c:	b5f0      	push	{r4, r5, r6, r7, lr}
2000021e:	46de      	mov	lr, fp
20000220:	4657      	mov	r7, sl
20000222:	464e      	mov	r6, r9
20000224:	4645      	mov	r5, r8
20000226:	b5e0      	push	{r5, r6, r7, lr}
20000228:	200a      	movs	r0, #10
2000022a:	b083      	sub	sp, #12
2000022c:	f007 fb72 	bl	20007914 <__wrap_putchar>
20000230:	4b24      	ldr	r3, [pc, #144]	; (200002c4 <cli_display_trace+0xa8>)
20000232:	25fa      	movs	r5, #250	; 0xfa
20000234:	4698      	mov	r8, r3
20000236:	4b24      	ldr	r3, [pc, #144]	; (200002c8 <cli_display_trace+0xac>)
20000238:	2628      	movs	r6, #40	; 0x28
2000023a:	469b      	mov	fp, r3
2000023c:	4b23      	ldr	r3, [pc, #140]	; (200002cc <cli_display_trace+0xb0>)
2000023e:	4f24      	ldr	r7, [pc, #144]	; (200002d0 <cli_display_trace+0xb4>)
20000240:	469a      	mov	sl, r3
20000242:	4b24      	ldr	r3, [pc, #144]	; (200002d4 <cli_display_trace+0xb8>)
20000244:	00ed      	lsls	r5, r5, #3
20000246:	4699      	mov	r9, r3
20000248:	4b23      	ldr	r3, [pc, #140]	; (200002d8 <cli_display_trace+0xbc>)
2000024a:	18ec      	adds	r4, r5, r3
2000024c:	4643      	mov	r3, r8
2000024e:	5d1b      	ldrb	r3, [r3, r4]
20000250:	b2da      	uxtb	r2, r3
20000252:	2b01      	cmp	r3, #1
20000254:	d033      	beq.n	200002be <cli_display_trace+0xa2>
20000256:	3a02      	subs	r2, #2
20000258:	1e53      	subs	r3, r2, #1
2000025a:	419a      	sbcs	r2, r3
2000025c:	4252      	negs	r2, r2
2000025e:	43b2      	bics	r2, r6
20000260:	3257      	adds	r2, #87	; 0x57
20000262:	683b      	ldr	r3, [r7, #0]
20000264:	429c      	cmp	r4, r3
20000266:	d021      	beq.n	200002ac <cli_display_trace+0x90>
20000268:	465b      	mov	r3, fp
2000026a:	4651      	mov	r1, sl
2000026c:	5d1b      	ldrb	r3, [r3, r4]
2000026e:	5d09      	ldrb	r1, [r1, r4]
20000270:	9201      	str	r2, [sp, #4]
20000272:	2220      	movs	r2, #32
20000274:	b2db      	uxtb	r3, r3
20000276:	9100      	str	r1, [sp, #0]
20000278:	0021      	movs	r1, r4
2000027a:	3491      	adds	r4, #145	; 0x91
2000027c:	4648      	mov	r0, r9
2000027e:	34ff      	adds	r4, #255	; 0xff
20000280:	f007 fc50 	bl	20007b24 <__wrap_printf>
20000284:	42ac      	cmp	r4, r5
20000286:	d1e1      	bne.n	2000024c <cli_display_trace+0x30>
20000288:	200a      	movs	r0, #10
2000028a:	f007 fb43 	bl	20007914 <__wrap_putchar>
2000028e:	2396      	movs	r3, #150	; 0x96
20000290:	3501      	adds	r5, #1
20000292:	011b      	lsls	r3, r3, #4
20000294:	429d      	cmp	r5, r3
20000296:	d1d7      	bne.n	20000248 <cli_display_trace+0x2c>
20000298:	200a      	movs	r0, #10
2000029a:	f007 fb3b 	bl	20007914 <__wrap_putchar>
2000029e:	b003      	add	sp, #12
200002a0:	bc3c      	pop	{r2, r3, r4, r5}
200002a2:	4690      	mov	r8, r2
200002a4:	4699      	mov	r9, r3
200002a6:	46a2      	mov	sl, r4
200002a8:	46ab      	mov	fp, r5
200002aa:	bdf0      	pop	{r4, r5, r6, r7, pc}
200002ac:	465b      	mov	r3, fp
200002ae:	4651      	mov	r1, sl
200002b0:	5d1b      	ldrb	r3, [r3, r4]
200002b2:	5d09      	ldrb	r1, [r1, r4]
200002b4:	b2db      	uxtb	r3, r3
200002b6:	9201      	str	r2, [sp, #4]
200002b8:	9100      	str	r1, [sp, #0]
200002ba:	222a      	movs	r2, #42	; 0x2a
200002bc:	e7dc      	b.n	20000278 <cli_display_trace+0x5c>
200002be:	2252      	movs	r2, #82	; 0x52
200002c0:	e7cf      	b.n	20000262 <cli_display_trace+0x46>
200002c2:	46c0      	nop			; (mov r8, r8)
200002c4:	200127a4 	.word	0x200127a4
200002c8:	2000f764 	.word	0x2000f764
200002cc:	20014088 	.word	0x20014088
200002d0:	2000cf18 	.word	0x2000cf18
200002d4:	2000ac94 	.word	0x2000ac94
200002d8:	fffff830 	.word	0xfffff830

200002dc <cli_slot_label_list>:
200002dc:	2300      	movs	r3, #0
200002de:	b5f0      	push	{r4, r5, r6, r7, lr}
200002e0:	464f      	mov	r7, r9
200002e2:	4646      	mov	r6, r8
200002e4:	46d6      	mov	lr, sl
200002e6:	2594      	movs	r5, #148	; 0x94
200002e8:	4699      	mov	r9, r3
200002ea:	4b19      	ldr	r3, [pc, #100]	; (20000350 <cli_slot_label_list+0x74>)
200002ec:	b5c0      	push	{r6, r7, lr}
200002ee:	469a      	mov	sl, r3
200002f0:	4b18      	ldr	r3, [pc, #96]	; (20000354 <cli_slot_label_list+0x78>)
200002f2:	2768      	movs	r7, #104	; 0x68
200002f4:	4698      	mov	r8, r3
200002f6:	4e18      	ldr	r6, [pc, #96]	; (20000358 <cli_slot_label_list+0x7c>)
200002f8:	006d      	lsls	r5, r5, #1
200002fa:	e009      	b.n	20000310 <cli_slot_label_list+0x34>
200002fc:	2301      	movs	r3, #1
200002fe:	469c      	mov	ip, r3
20000300:	2380      	movs	r3, #128	; 0x80
20000302:	44e1      	add	r9, ip
20000304:	015b      	lsls	r3, r3, #5
20000306:	469c      	mov	ip, r3
20000308:	464b      	mov	r3, r9
2000030a:	4465      	add	r5, ip
2000030c:	2bfa      	cmp	r3, #250	; 0xfa
2000030e:	d016      	beq.n	2000033e <cli_slot_label_list+0x62>
20000310:	002c      	movs	r4, r5
20000312:	6833      	ldr	r3, [r6, #0]
20000314:	3c28      	subs	r4, #40	; 0x28
20000316:	5d1b      	ldrb	r3, [r3, r4]
20000318:	2bff      	cmp	r3, #255	; 0xff
2000031a:	d0ef      	beq.n	200002fc <cli_slot_label_list+0x20>
2000031c:	4649      	mov	r1, r9
2000031e:	4650      	mov	r0, sl
20000320:	f007 fc00 	bl	20007b24 <__wrap_printf>
20000324:	e002      	b.n	2000032c <cli_slot_label_list+0x50>
20000326:	3401      	adds	r4, #1
20000328:	42a5      	cmp	r5, r4
2000032a:	d0e7      	beq.n	200002fc <cli_slot_label_list+0x20>
2000032c:	6833      	ldr	r3, [r6, #0]
2000032e:	5d18      	ldrb	r0, [r3, r4]
20000330:	4643      	mov	r3, r8
20000332:	5c1b      	ldrb	r3, [r3, r0]
20000334:	43bb      	bics	r3, r7
20000336:	d0f6      	beq.n	20000326 <cli_slot_label_list+0x4a>
20000338:	f007 faec 	bl	20007914 <__wrap_putchar>
2000033c:	e7f3      	b.n	20000326 <cli_slot_label_list+0x4a>
2000033e:	200a      	movs	r0, #10
20000340:	f007 fae8 	bl	20007914 <__wrap_putchar>
20000344:	bc1c      	pop	{r2, r3, r4}
20000346:	4690      	mov	r8, r2
20000348:	4699      	mov	r9, r3
2000034a:	46a2      	mov	sl, r4
2000034c:	bdf0      	pop	{r4, r5, r6, r7, pc}
2000034e:	46c0      	nop			; (mov r8, r8)
20000350:	2000acb0 	.word	0x2000acb0
20000354:	2000c4d1 	.word	0x2000c4d1
20000358:	2000c5d8 	.word	0x2000c5d8

2000035c <serial_help>:
2000035c:	b570      	push	{r4, r5, r6, lr}
2000035e:	200a      	movs	r0, #10
20000360:	f007 fad8 	bl	20007914 <__wrap_putchar>
20000364:	4c09      	ldr	r4, [pc, #36]	; (2000038c <serial_help+0x30>)
20000366:	4e0a      	ldr	r6, [pc, #40]	; (20000390 <serial_help+0x34>)
20000368:	0025      	movs	r5, r4
2000036a:	3599      	adds	r5, #153	; 0x99
2000036c:	35ff      	adds	r5, #255	; 0xff
2000036e:	6862      	ldr	r2, [r4, #4]
20000370:	7813      	ldrb	r3, [r2, #0]
20000372:	2b2a      	cmp	r3, #42	; 0x2a
20000374:	d003      	beq.n	2000037e <serial_help+0x22>
20000376:	0030      	movs	r0, r6
20000378:	7821      	ldrb	r1, [r4, #0]
2000037a:	f007 fbd3 	bl	20007b24 <__wrap_printf>
2000037e:	340c      	adds	r4, #12
20000380:	42ac      	cmp	r4, r5
20000382:	d1f4      	bne.n	2000036e <serial_help+0x12>
20000384:	4803      	ldr	r0, [pc, #12]	; (20000394 <serial_help+0x38>)
20000386:	f007 fbcd 	bl	20007b24 <__wrap_printf>
2000038a:	bd70      	pop	{r4, r5, r6, pc}
2000038c:	2000c5dc 	.word	0x2000c5dc
20000390:	2000acb8 	.word	0x2000acb8
20000394:	2000acc4 	.word	0x2000acc4

20000398 <core1_main>:
20000398:	b5f0      	push	{r4, r5, r6, r7, lr}
2000039a:	46de      	mov	lr, fp
2000039c:	4645      	mov	r5, r8
2000039e:	4657      	mov	r7, sl
200003a0:	464e      	mov	r6, r9
200003a2:	2001      	movs	r0, #1
200003a4:	2300      	movs	r3, #0
200003a6:	b5e0      	push	{r5, r6, r7, lr}
200003a8:	25d0      	movs	r5, #208	; 0xd0
200003aa:	4ccf      	ldr	r4, [pc, #828]	; (200006e8 <core1_main+0x350>)
200003ac:	b089      	sub	sp, #36	; 0x24
200003ae:	2100      	movs	r1, #0
200003b0:	4240      	negs	r0, r0
200003b2:	6023      	str	r3, [r4, #0]
200003b4:	f002 fa18 	bl	200027e8 <irq_set_mask_enabled>
200003b8:	2001      	movs	r0, #1
200003ba:	062d      	lsls	r5, r5, #24
200003bc:	686b      	ldr	r3, [r5, #4]
200003be:	119a      	asrs	r2, r3, #6
200003c0:	4002      	ands	r2, r0
200003c2:	4694      	mov	ip, r2
200003c4:	4661      	mov	r1, ip
200003c6:	139b      	asrs	r3, r3, #14
200003c8:	4018      	ands	r0, r3
200003ca:	4bc8      	ldr	r3, [pc, #800]	; (200006ec <core1_main+0x354>)
200003cc:	4ac8      	ldr	r2, [pc, #800]	; (200006f0 <core1_main+0x358>)
200003ce:	6018      	str	r0, [r3, #0]
200003d0:	4bc8      	ldr	r3, [pc, #800]	; (200006f4 <core1_main+0x35c>)
200003d2:	6011      	str	r1, [r2, #0]
200003d4:	681a      	ldr	r2, [r3, #0]
200003d6:	685b      	ldr	r3, [r3, #4]
200003d8:	9204      	str	r2, [sp, #16]
200003da:	9305      	str	r3, [sp, #20]
200003dc:	4bc6      	ldr	r3, [pc, #792]	; (200006f8 <core1_main+0x360>)
200003de:	681a      	ldr	r2, [r3, #0]
200003e0:	685b      	ldr	r3, [r3, #4]
200003e2:	9202      	str	r2, [sp, #8]
200003e4:	9303      	str	r3, [sp, #12]
200003e6:	6823      	ldr	r3, [r4, #0]
200003e8:	2401      	movs	r4, #1
200003ea:	9306      	str	r3, [sp, #24]
200003ec:	4bc3      	ldr	r3, [pc, #780]	; (200006fc <core1_main+0x364>)
200003ee:	469b      	mov	fp, r3
200003f0:	4bc3      	ldr	r3, [pc, #780]	; (20000700 <core1_main+0x368>)
200003f2:	4698      	mov	r8, r3
200003f4:	465b      	mov	r3, fp
200003f6:	465a      	mov	r2, fp
200003f8:	681b      	ldr	r3, [r3, #0]
200003fa:	3301      	adds	r3, #1
200003fc:	6013      	str	r3, [r2, #0]
200003fe:	686a      	ldr	r2, [r5, #4]
20000400:	1252      	asrs	r2, r2, #9
20000402:	4022      	ands	r2, r4
20000404:	686b      	ldr	r3, [r5, #4]
20000406:	0016      	movs	r6, r2
20000408:	125a      	asrs	r2, r3, #9
2000040a:	4022      	ands	r2, r4
2000040c:	2e01      	cmp	r6, #1
2000040e:	d1f9      	bne.n	20000404 <core1_main+0x6c>
20000410:	2a00      	cmp	r2, #0
20000412:	d003      	beq.n	2000041c <core1_main+0x84>
20000414:	686b      	ldr	r3, [r5, #4]
20000416:	125a      	asrs	r2, r3, #9
20000418:	4022      	ands	r2, r4
2000041a:	d1fb      	bne.n	20000414 <core1_main+0x7c>
2000041c:	119a      	asrs	r2, r3, #6
2000041e:	4022      	ands	r2, r4
20000420:	139e      	asrs	r6, r3, #14
20000422:	4692      	mov	sl, r2
20000424:	4026      	ands	r6, r4
20000426:	115a      	asrs	r2, r3, #5
20000428:	9601      	str	r6, [sp, #4]
2000042a:	4022      	ands	r2, r4
2000042c:	2901      	cmp	r1, #1
2000042e:	d100      	bne.n	20000432 <core1_main+0x9a>
20000430:	e08a      	b.n	20000548 <core1_main+0x1b0>
20000432:	2801      	cmp	r0, #1
20000434:	d100      	bne.n	20000438 <core1_main+0xa0>
20000436:	e127      	b.n	20000688 <core1_main+0x2f0>
20000438:	4651      	mov	r1, sl
2000043a:	2900      	cmp	r1, #0
2000043c:	d000      	beq.n	20000440 <core1_main+0xa8>
2000043e:	e12f      	b.n	200006a0 <core1_main+0x308>
20000440:	2800      	cmp	r0, #0
20000442:	d103      	bne.n	2000044c <core1_main+0xb4>
20000444:	9901      	ldr	r1, [sp, #4]
20000446:	2900      	cmp	r1, #0
20000448:	d000      	beq.n	2000044c <core1_main+0xb4>
2000044a:	e134      	b.n	200006b6 <core1_main+0x31e>
2000044c:	270f      	movs	r7, #15
2000044e:	401f      	ands	r7, r3
20000450:	2a00      	cmp	r2, #0
20000452:	d100      	bne.n	20000456 <core1_main+0xbe>
20000454:	e0ed      	b.n	20000632 <core1_main+0x29a>
20000456:	2007      	movs	r0, #7
20000458:	9a04      	ldr	r2, [sp, #16]
2000045a:	4010      	ands	r0, r2
2000045c:	00fa      	lsls	r2, r7, #3
2000045e:	9e04      	ldr	r6, [sp, #16]
20000460:	9f05      	ldr	r7, [sp, #20]
20000462:	0779      	lsls	r1, r7, #29
20000464:	08f7      	lsrs	r7, r6, #3
20000466:	430f      	orrs	r7, r1
20000468:	2107      	movs	r1, #7
2000046a:	400f      	ands	r7, r1
2000046c:	49a5      	ldr	r1, [pc, #660]	; (20000704 <core1_main+0x36c>)
2000046e:	1889      	adds	r1, r1, r2
20000470:	5dcf      	ldrb	r7, [r1, r7]
20000472:	0021      	movs	r1, r4
20000474:	4081      	lsls	r1, r0
20000476:	4039      	ands	r1, r7
20000478:	4101      	asrs	r1, r0
2000047a:	2080      	movs	r0, #128	; 0x80
2000047c:	0100      	lsls	r0, r0, #4
2000047e:	61a8      	str	r0, [r5, #24]
20000480:	2900      	cmp	r1, #0
20000482:	d100      	bne.n	20000486 <core1_main+0xee>
20000484:	e12c      	b.n	200006e0 <core1_main+0x348>
20000486:	2180      	movs	r1, #128	; 0x80
20000488:	0149      	lsls	r1, r1, #5
2000048a:	6169      	str	r1, [r5, #20]
2000048c:	9901      	ldr	r1, [sp, #4]
2000048e:	2900      	cmp	r1, #0
20000490:	d128      	bne.n	200004e4 <core1_main+0x14c>
20000492:	9802      	ldr	r0, [sp, #8]
20000494:	9903      	ldr	r1, [sp, #12]
20000496:	2607      	movs	r6, #7
20000498:	4006      	ands	r6, r0
2000049a:	46b4      	mov	ip, r6
2000049c:	0006      	movs	r6, r0
2000049e:	0748      	lsls	r0, r1, #29
200004a0:	08f1      	lsrs	r1, r6, #3
200004a2:	4301      	orrs	r1, r0
200004a4:	0017      	movs	r7, r2
200004a6:	2007      	movs	r0, #7
200004a8:	3780      	adds	r7, #128	; 0x80
200004aa:	4001      	ands	r1, r0
200004ac:	4895      	ldr	r0, [pc, #596]	; (20000704 <core1_main+0x36c>)
200004ae:	187f      	adds	r7, r7, r1
200004b0:	5dc0      	ldrb	r0, [r0, r7]
200004b2:	4666      	mov	r6, ip
200004b4:	4681      	mov	r9, r0
200004b6:	0020      	movs	r0, r4
200004b8:	40b0      	lsls	r0, r6
200004ba:	464e      	mov	r6, r9
200004bc:	4030      	ands	r0, r6
200004be:	4666      	mov	r6, ip
200004c0:	4130      	asrs	r0, r6
200004c2:	2680      	movs	r6, #128	; 0x80
200004c4:	0136      	lsls	r6, r6, #4
200004c6:	61ae      	str	r6, [r5, #24]
200004c8:	2800      	cmp	r0, #0
200004ca:	d100      	bne.n	200004ce <core1_main+0x136>
200004cc:	e104      	b.n	200006d8 <core1_main+0x340>
200004ce:	2080      	movs	r0, #128	; 0x80
200004d0:	0140      	lsls	r0, r0, #5
200004d2:	6168      	str	r0, [r5, #20]
200004d4:	488c      	ldr	r0, [pc, #560]	; (20000708 <core1_main+0x370>)
200004d6:	6800      	ldr	r0, [r0, #0]
200004d8:	2800      	cmp	r0, #0
200004da:	d103      	bne.n	200004e4 <core1_main+0x14c>
200004dc:	4660      	mov	r0, ip
200004de:	2807      	cmp	r0, #7
200004e0:	d100      	bne.n	200004e4 <core1_main+0x14c>
200004e2:	e13f      	b.n	20000764 <core1_main+0x3cc>
200004e4:	045a      	lsls	r2, r3, #17
200004e6:	d41b      	bmi.n	20000520 <core1_main+0x188>
200004e8:	4642      	mov	r2, r8
200004ea:	6812      	ldr	r2, [r2, #0]
200004ec:	4987      	ldr	r1, [pc, #540]	; (2000070c <core1_main+0x374>)
200004ee:	0092      	lsls	r2, r2, #2
200004f0:	508b      	str	r3, [r1, r2]
200004f2:	4643      	mov	r3, r8
200004f4:	681b      	ldr	r3, [r3, #0]
200004f6:	4a86      	ldr	r2, [pc, #536]	; (20000710 <core1_main+0x378>)
200004f8:	9906      	ldr	r1, [sp, #24]
200004fa:	009b      	lsls	r3, r3, #2
200004fc:	50d1      	str	r1, [r2, r3]
200004fe:	4643      	mov	r3, r8
20000500:	681f      	ldr	r7, [r3, #0]
20000502:	6818      	ldr	r0, [r3, #0]
20000504:	4983      	ldr	r1, [pc, #524]	; (20000714 <core1_main+0x37c>)
20000506:	3001      	adds	r0, #1
20000508:	f005 fb08 	bl	20005b1c <__wrap___aeabi_idiv>
2000050c:	4643      	mov	r3, r8
2000050e:	6019      	str	r1, [r3, #0]
20000510:	4b81      	ldr	r3, [pc, #516]	; (20000718 <core1_main+0x380>)
20000512:	681a      	ldr	r2, [r3, #0]
20000514:	4643      	mov	r3, r8
20000516:	681b      	ldr	r3, [r3, #0]
20000518:	429a      	cmp	r2, r3
2000051a:	d101      	bne.n	20000520 <core1_main+0x188>
2000051c:	4643      	mov	r3, r8
2000051e:	601f      	str	r7, [r3, #0]
20000520:	2001      	movs	r0, #1
20000522:	9a04      	ldr	r2, [sp, #16]
20000524:	9b05      	ldr	r3, [sp, #20]
20000526:	2100      	movs	r1, #0
20000528:	1812      	adds	r2, r2, r0
2000052a:	414b      	adcs	r3, r1
2000052c:	9204      	str	r2, [sp, #16]
2000052e:	9305      	str	r3, [sp, #20]
20000530:	9a02      	ldr	r2, [sp, #8]
20000532:	9b03      	ldr	r3, [sp, #12]
20000534:	1812      	adds	r2, r2, r0
20000536:	414b      	adcs	r3, r1
20000538:	9202      	str	r2, [sp, #8]
2000053a:	9303      	str	r3, [sp, #12]
2000053c:	9b06      	ldr	r3, [sp, #24]
2000053e:	4651      	mov	r1, sl
20000540:	3301      	adds	r3, #1
20000542:	9801      	ldr	r0, [sp, #4]
20000544:	9306      	str	r3, [sp, #24]
20000546:	e755      	b.n	200003f4 <core1_main+0x5c>
20000548:	4651      	mov	r1, sl
2000054a:	2900      	cmp	r1, #0
2000054c:	d105      	bne.n	2000055a <core1_main+0x1c2>
2000054e:	2600      	movs	r6, #0
20000550:	2700      	movs	r7, #0
20000552:	9602      	str	r6, [sp, #8]
20000554:	9703      	str	r7, [sp, #12]
20000556:	9604      	str	r6, [sp, #16]
20000558:	9705      	str	r7, [sp, #20]
2000055a:	2801      	cmp	r0, #1
2000055c:	d100      	bne.n	20000560 <core1_main+0x1c8>
2000055e:	e0ae      	b.n	200006be <core1_main+0x326>
20000560:	9901      	ldr	r1, [sp, #4]
20000562:	2900      	cmp	r1, #0
20000564:	d000      	beq.n	20000568 <core1_main+0x1d0>
20000566:	e0a6      	b.n	200006b6 <core1_main+0x31e>
20000568:	270f      	movs	r7, #15
2000056a:	4651      	mov	r1, sl
2000056c:	401f      	ands	r7, r3
2000056e:	2900      	cmp	r1, #0
20000570:	d100      	bne.n	20000574 <core1_main+0x1dc>
20000572:	e76d      	b.n	20000450 <core1_main+0xb8>
20000574:	2a00      	cmp	r2, #0
20000576:	d15a      	bne.n	2000062e <core1_main+0x296>
20000578:	1119      	asrs	r1, r3, #4
2000057a:	4021      	ands	r1, r4
2000057c:	00fa      	lsls	r2, r7, #3
2000057e:	9107      	str	r1, [sp, #28]
20000580:	2007      	movs	r0, #7
20000582:	9e02      	ldr	r6, [sp, #8]
20000584:	4030      	ands	r0, r6
20000586:	4681      	mov	r9, r0
20000588:	9e02      	ldr	r6, [sp, #8]
2000058a:	9f03      	ldr	r7, [sp, #12]
2000058c:	0778      	lsls	r0, r7, #29
2000058e:	08f7      	lsrs	r7, r6, #3
20000590:	4307      	orrs	r7, r0
20000592:	2007      	movs	r0, #7
20000594:	4007      	ands	r7, r0
20000596:	0010      	movs	r0, r2
20000598:	3080      	adds	r0, #128	; 0x80
2000059a:	4684      	mov	ip, r0
2000059c:	0026      	movs	r6, r4
2000059e:	4648      	mov	r0, r9
200005a0:	4086      	lsls	r6, r0
200005a2:	44bc      	add	ip, r7
200005a4:	0031      	movs	r1, r6
200005a6:	4666      	mov	r6, ip
200005a8:	4856      	ldr	r0, [pc, #344]	; (20000704 <core1_main+0x36c>)
200005aa:	5d80      	ldrb	r0, [r0, r6]
200005ac:	464e      	mov	r6, r9
200005ae:	4388      	bics	r0, r1
200005b0:	9907      	ldr	r1, [sp, #28]
200005b2:	40b1      	lsls	r1, r6
200005b4:	4666      	mov	r6, ip
200005b6:	4308      	orrs	r0, r1
200005b8:	4952      	ldr	r1, [pc, #328]	; (20000704 <core1_main+0x36c>)
200005ba:	b2c0      	uxtb	r0, r0
200005bc:	5588      	strb	r0, [r1, r6]
200005be:	4952      	ldr	r1, [pc, #328]	; (20000708 <core1_main+0x370>)
200005c0:	6809      	ldr	r1, [r1, #0]
200005c2:	2900      	cmp	r1, #0
200005c4:	d18e      	bne.n	200004e4 <core1_main+0x14c>
200005c6:	4649      	mov	r1, r9
200005c8:	2907      	cmp	r1, #7
200005ca:	d18b      	bne.n	200004e4 <core1_main+0x14c>
200005cc:	4953      	ldr	r1, [pc, #332]	; (2000071c <core1_main+0x384>)
200005ce:	3a80      	subs	r2, #128	; 0x80
200005d0:	6809      	ldr	r1, [r1, #0]
200005d2:	19d7      	adds	r7, r2, r7
200005d4:	4a52      	ldr	r2, [pc, #328]	; (20000720 <core1_main+0x388>)
200005d6:	b2ff      	uxtb	r7, r7
200005d8:	5457      	strb	r7, [r2, r1]
200005da:	4a50      	ldr	r2, [pc, #320]	; (2000071c <core1_main+0x384>)
200005dc:	4951      	ldr	r1, [pc, #324]	; (20000724 <core1_main+0x38c>)
200005de:	6812      	ldr	r2, [r2, #0]
200005e0:	5488      	strb	r0, [r1, r2]
200005e2:	2102      	movs	r1, #2
200005e4:	4a4d      	ldr	r2, [pc, #308]	; (2000071c <core1_main+0x384>)
200005e6:	4850      	ldr	r0, [pc, #320]	; (20000728 <core1_main+0x390>)
200005e8:	6812      	ldr	r2, [r2, #0]
200005ea:	5481      	strb	r1, [r0, r2]
200005ec:	4a4b      	ldr	r2, [pc, #300]	; (2000071c <core1_main+0x384>)
200005ee:	494b      	ldr	r1, [pc, #300]	; (2000071c <core1_main+0x384>)
200005f0:	6812      	ldr	r2, [r2, #0]
200005f2:	3201      	adds	r2, #1
200005f4:	600a      	str	r2, [r1, #0]
200005f6:	22fa      	movs	r2, #250	; 0xfa
200005f8:	6809      	ldr	r1, [r1, #0]
200005fa:	00d2      	lsls	r2, r2, #3
200005fc:	4291      	cmp	r1, r2
200005fe:	da00      	bge.n	20000602 <core1_main+0x26a>
20000600:	e770      	b.n	200004e4 <core1_main+0x14c>
20000602:	4a41      	ldr	r2, [pc, #260]	; (20000708 <core1_main+0x370>)
20000604:	6014      	str	r4, [r2, #0]
20000606:	e76d      	b.n	200004e4 <core1_main+0x14c>
20000608:	2900      	cmp	r1, #0
2000060a:	d100      	bne.n	2000060e <core1_main+0x276>
2000060c:	e714      	b.n	20000438 <core1_main+0xa0>
2000060e:	270f      	movs	r7, #15
20000610:	4651      	mov	r1, sl
20000612:	401f      	ands	r7, r3
20000614:	2900      	cmp	r1, #0
20000616:	d100      	bne.n	2000061a <core1_main+0x282>
20000618:	e71a      	b.n	20000450 <core1_main+0xb8>
2000061a:	9901      	ldr	r1, [sp, #4]
2000061c:	2900      	cmp	r1, #0
2000061e:	d000      	beq.n	20000622 <core1_main+0x28a>
20000620:	e760      	b.n	200004e4 <core1_main+0x14c>
20000622:	2a00      	cmp	r2, #0
20000624:	d0a8      	beq.n	20000578 <core1_main+0x1e0>
20000626:	4652      	mov	r2, sl
20000628:	2a00      	cmp	r2, #0
2000062a:	d100      	bne.n	2000062e <core1_main+0x296>
2000062c:	e713      	b.n	20000456 <core1_main+0xbe>
2000062e:	00fa      	lsls	r2, r7, #3
20000630:	e72f      	b.n	20000492 <core1_main+0xfa>
20000632:	2207      	movs	r2, #7
20000634:	9804      	ldr	r0, [sp, #16]
20000636:	9905      	ldr	r1, [sp, #20]
20000638:	4002      	ands	r2, r0
2000063a:	4694      	mov	ip, r2
2000063c:	08c0      	lsrs	r0, r0, #3
2000063e:	074a      	lsls	r2, r1, #29
20000640:	4310      	orrs	r0, r2
20000642:	2207      	movs	r2, #7
20000644:	0026      	movs	r6, r4
20000646:	4010      	ands	r0, r2
20000648:	00fa      	lsls	r2, r7, #3
2000064a:	4667      	mov	r7, ip
2000064c:	40be      	lsls	r6, r7
2000064e:	46b1      	mov	r9, r6
20000650:	4e2c      	ldr	r6, [pc, #176]	; (20000704 <core1_main+0x36c>)
20000652:	1810      	adds	r0, r2, r0
20000654:	5c37      	ldrb	r7, [r6, r0]
20000656:	464e      	mov	r6, r9
20000658:	1119      	asrs	r1, r3, #4
2000065a:	43b7      	bics	r7, r6
2000065c:	4021      	ands	r1, r4
2000065e:	9107      	str	r1, [sp, #28]
20000660:	0039      	movs	r1, r7
20000662:	4667      	mov	r7, ip
20000664:	9e07      	ldr	r6, [sp, #28]
20000666:	40be      	lsls	r6, r7
20000668:	4331      	orrs	r1, r6
2000066a:	4e26      	ldr	r6, [pc, #152]	; (20000704 <core1_main+0x36c>)
2000066c:	b2cf      	uxtb	r7, r1
2000066e:	5437      	strb	r7, [r6, r0]
20000670:	4e25      	ldr	r6, [pc, #148]	; (20000708 <core1_main+0x370>)
20000672:	6836      	ldr	r6, [r6, #0]
20000674:	2e00      	cmp	r6, #0
20000676:	d102      	bne.n	2000067e <core1_main+0x2e6>
20000678:	4666      	mov	r6, ip
2000067a:	2e07      	cmp	r6, #7
2000067c:	d056      	beq.n	2000072c <core1_main+0x394>
2000067e:	9901      	ldr	r1, [sp, #4]
20000680:	2900      	cmp	r1, #0
20000682:	d100      	bne.n	20000686 <core1_main+0x2ee>
20000684:	e77c      	b.n	20000580 <core1_main+0x1e8>
20000686:	e72d      	b.n	200004e4 <core1_main+0x14c>
20000688:	2e00      	cmp	r6, #0
2000068a:	d1bd      	bne.n	20000608 <core1_main+0x270>
2000068c:	2600      	movs	r6, #0
2000068e:	2700      	movs	r7, #0
20000690:	4651      	mov	r1, sl
20000692:	9602      	str	r6, [sp, #8]
20000694:	9703      	str	r7, [sp, #12]
20000696:	9604      	str	r6, [sp, #16]
20000698:	9705      	str	r7, [sp, #20]
2000069a:	2900      	cmp	r1, #0
2000069c:	d100      	bne.n	200006a0 <core1_main+0x308>
2000069e:	e6cf      	b.n	20000440 <core1_main+0xa8>
200006a0:	2180      	movs	r1, #128	; 0x80
200006a2:	0109      	lsls	r1, r1, #4
200006a4:	6169      	str	r1, [r5, #20]
200006a6:	2800      	cmp	r0, #0
200006a8:	d113      	bne.n	200006d2 <core1_main+0x33a>
200006aa:	9901      	ldr	r1, [sp, #4]
200006ac:	2900      	cmp	r1, #0
200006ae:	d102      	bne.n	200006b6 <core1_main+0x31e>
200006b0:	270f      	movs	r7, #15
200006b2:	401f      	ands	r7, r3
200006b4:	e75e      	b.n	20000574 <core1_main+0x1dc>
200006b6:	2180      	movs	r1, #128	; 0x80
200006b8:	0109      	lsls	r1, r1, #4
200006ba:	6169      	str	r1, [r5, #20]
200006bc:	e7a7      	b.n	2000060e <core1_main+0x276>
200006be:	9901      	ldr	r1, [sp, #4]
200006c0:	2900      	cmp	r1, #0
200006c2:	d1a4      	bne.n	2000060e <core1_main+0x276>
200006c4:	2000      	movs	r0, #0
200006c6:	2100      	movs	r1, #0
200006c8:	9002      	str	r0, [sp, #8]
200006ca:	9103      	str	r1, [sp, #12]
200006cc:	9004      	str	r0, [sp, #16]
200006ce:	9105      	str	r1, [sp, #20]
200006d0:	e79d      	b.n	2000060e <core1_main+0x276>
200006d2:	270f      	movs	r7, #15
200006d4:	401f      	ands	r7, r3
200006d6:	e7a0      	b.n	2000061a <core1_main+0x282>
200006d8:	2080      	movs	r0, #128	; 0x80
200006da:	0140      	lsls	r0, r0, #5
200006dc:	61a8      	str	r0, [r5, #24]
200006de:	e6f9      	b.n	200004d4 <core1_main+0x13c>
200006e0:	2180      	movs	r1, #128	; 0x80
200006e2:	0149      	lsls	r1, r1, #5
200006e4:	61a9      	str	r1, [r5, #24]
200006e6:	e6d1      	b.n	2000048c <core1_main+0xf4>
200006e8:	2000ce78 	.word	0x2000ce78
200006ec:	2000d328 	.word	0x2000d328
200006f0:	2000d324 	.word	0x2000d324
200006f4:	2000c898 	.word	0x2000c898
200006f8:	2000c890 	.word	0x2000c890
200006fc:	2000d334 	.word	0x2000d334
20000700:	2000cea4 	.word	0x2000cea4
20000704:	20013374 	.word	0x20013374
20000708:	2000d368 	.word	0x2000d368
2000070c:	2000dff4 	.word	0x2000dff4
20000710:	20010034 	.word	0x20010034
20000714:	000005dc 	.word	0x000005dc
20000718:	2000cea8 	.word	0x2000cea8
2000071c:	2000cf18 	.word	0x2000cf18
20000720:	2000f764 	.word	0x2000f764
20000724:	20014088 	.word	0x20014088
20000728:	200127a4 	.word	0x200127a4
2000072c:	4e16      	ldr	r6, [pc, #88]	; (20000788 <core1_main+0x3f0>)
2000072e:	b2c0      	uxtb	r0, r0
20000730:	6836      	ldr	r6, [r6, #0]
20000732:	46b4      	mov	ip, r6
20000734:	4661      	mov	r1, ip
20000736:	4e15      	ldr	r6, [pc, #84]	; (2000078c <core1_main+0x3f4>)
20000738:	5470      	strb	r0, [r6, r1]
2000073a:	4913      	ldr	r1, [pc, #76]	; (20000788 <core1_main+0x3f0>)
2000073c:	6808      	ldr	r0, [r1, #0]
2000073e:	4914      	ldr	r1, [pc, #80]	; (20000790 <core1_main+0x3f8>)
20000740:	540f      	strb	r7, [r1, r0]
20000742:	2702      	movs	r7, #2
20000744:	4910      	ldr	r1, [pc, #64]	; (20000788 <core1_main+0x3f0>)
20000746:	6808      	ldr	r0, [r1, #0]
20000748:	4912      	ldr	r1, [pc, #72]	; (20000794 <core1_main+0x3fc>)
2000074a:	540f      	strb	r7, [r1, r0]
2000074c:	490e      	ldr	r1, [pc, #56]	; (20000788 <core1_main+0x3f0>)
2000074e:	6808      	ldr	r0, [r1, #0]
20000750:	3001      	adds	r0, #1
20000752:	6008      	str	r0, [r1, #0]
20000754:	20fa      	movs	r0, #250	; 0xfa
20000756:	680f      	ldr	r7, [r1, #0]
20000758:	00c0      	lsls	r0, r0, #3
2000075a:	4287      	cmp	r7, r0
2000075c:	db8f      	blt.n	2000067e <core1_main+0x2e6>
2000075e:	490e      	ldr	r1, [pc, #56]	; (20000798 <core1_main+0x400>)
20000760:	600c      	str	r4, [r1, #0]
20000762:	e78c      	b.n	2000067e <core1_main+0x2e6>
20000764:	4808      	ldr	r0, [pc, #32]	; (20000788 <core1_main+0x3f0>)
20000766:	3a80      	subs	r2, #128	; 0x80
20000768:	6800      	ldr	r0, [r0, #0]
2000076a:	1851      	adds	r1, r2, r1
2000076c:	4a07      	ldr	r2, [pc, #28]	; (2000078c <core1_main+0x3f4>)
2000076e:	b2c9      	uxtb	r1, r1
20000770:	5411      	strb	r1, [r2, r0]
20000772:	4a05      	ldr	r2, [pc, #20]	; (20000788 <core1_main+0x3f0>)
20000774:	4909      	ldr	r1, [pc, #36]	; (2000079c <core1_main+0x404>)
20000776:	6812      	ldr	r2, [r2, #0]
20000778:	5dc9      	ldrb	r1, [r1, r7]
2000077a:	4805      	ldr	r0, [pc, #20]	; (20000790 <core1_main+0x3f8>)
2000077c:	5481      	strb	r1, [r0, r2]
2000077e:	4a02      	ldr	r2, [pc, #8]	; (20000788 <core1_main+0x3f0>)
20000780:	4904      	ldr	r1, [pc, #16]	; (20000794 <core1_main+0x3fc>)
20000782:	6812      	ldr	r2, [r2, #0]
20000784:	548c      	strb	r4, [r1, r2]
20000786:	e731      	b.n	200005ec <core1_main+0x254>
20000788:	2000cf18 	.word	0x2000cf18
2000078c:	2000f764 	.word	0x2000f764
20000790:	20014088 	.word	0x20014088
20000794:	200127a4 	.word	0x200127a4
20000798:	2000d368 	.word	0x2000d368
2000079c:	20013374 	.word	0x20013374

200007a0 <cli_label_slot>:
200007a0:	2280      	movs	r2, #128	; 0x80
200007a2:	b5f8      	push	{r3, r4, r5, r6, r7, lr}
200007a4:	4f10      	ldr	r7, [pc, #64]	; (200007e8 <cli_label_slot+0x48>)
200007a6:	4d11      	ldr	r5, [pc, #68]	; (200007ec <cli_label_slot+0x4c>)
200007a8:	683b      	ldr	r3, [r7, #0]
200007aa:	0028      	movs	r0, r5
200007ac:	031c      	lsls	r4, r3, #12
200007ae:	4b10      	ldr	r3, [pc, #64]	; (200007f0 <cli_label_slot+0x50>)
200007b0:	0052      	lsls	r2, r2, #1
200007b2:	6819      	ldr	r1, [r3, #0]
200007b4:	2680      	movs	r6, #128	; 0x80
200007b6:	1909      	adds	r1, r1, r4
200007b8:	f006 ffa2 	bl	20007700 <__wrap___aeabi_memcpy>
200007bc:	2380      	movs	r3, #128	; 0x80
200007be:	0176      	lsls	r6, r6, #5
200007c0:	035b      	lsls	r3, r3, #13
200007c2:	18e0      	adds	r0, r4, r3
200007c4:	0031      	movs	r1, r6
200007c6:	f00a f977 	bl	2000aab8 <flash_range_erase>
200007ca:	1c68      	adds	r0, r5, #1
200007cc:	2228      	movs	r2, #40	; 0x28
200007ce:	4909      	ldr	r1, [pc, #36]	; (200007f4 <cli_label_slot+0x54>)
200007d0:	30ff      	adds	r0, #255	; 0xff
200007d2:	f006 ff95 	bl	20007700 <__wrap___aeabi_memcpy>
200007d6:	6838      	ldr	r0, [r7, #0]
200007d8:	0032      	movs	r2, r6
200007da:	3001      	adds	r0, #1
200007dc:	30ff      	adds	r0, #255	; 0xff
200007de:	0029      	movs	r1, r5
200007e0:	0300      	lsls	r0, r0, #12
200007e2:	f00a f9a9 	bl	2000ab38 <flash_range_program>
200007e6:	bdf8      	pop	{r3, r4, r5, r6, r7, pc}
200007e8:	2000d33c 	.word	0x2000d33c
200007ec:	200117a4 	.word	0x200117a4
200007f0:	2000c5d8 	.word	0x2000c5d8
200007f4:	2000d37c 	.word	0x2000d37c

200007f8 <cli_text_param>:
200007f8:	b570      	push	{r4, r5, r6, lr}
200007fa:	2500      	movs	r5, #0
200007fc:	480c      	ldr	r0, [pc, #48]	; (20000830 <cli_text_param+0x38>)
200007fe:	f007 f8db 	bl	200079b8 <__wrap_puts>
20000802:	4e0c      	ldr	r6, [pc, #48]	; (20000834 <cli_text_param+0x3c>)
20000804:	20fa      	movs	r0, #250	; 0xfa
20000806:	0080      	lsls	r0, r0, #2
20000808:	f007 f99e 	bl	20007b48 <getchar_timeout_us>
2000080c:	0004      	movs	r4, r0
2000080e:	1c43      	adds	r3, r0, #1
20000810:	d0f8      	beq.n	20000804 <cli_text_param+0xc>
20000812:	0020      	movs	r0, r4
20000814:	f007 f87e 	bl	20007914 <__wrap_putchar>
20000818:	2c0d      	cmp	r4, #13
2000081a:	d005      	beq.n	20000828 <cli_text_param+0x30>
2000081c:	1c6b      	adds	r3, r5, #1
2000081e:	5574      	strb	r4, [r6, r5]
20000820:	2b26      	cmp	r3, #38	; 0x26
20000822:	dcef      	bgt.n	20000804 <cli_text_param+0xc>
20000824:	001d      	movs	r5, r3
20000826:	e7ed      	b.n	20000804 <cli_text_param+0xc>
20000828:	2300      	movs	r3, #0
2000082a:	5573      	strb	r3, [r6, r5]
2000082c:	bd70      	pop	{r4, r5, r6, pc}
2000082e:	46c0      	nop			; (mov r8, r8)
20000830:	2000ace0 	.word	0x2000ace0
20000834:	2000d37c 	.word	0x2000d37c

20000838 <cli_write_byte>:
20000838:	4b0b      	ldr	r3, [pc, #44]	; (20000868 <cli_write_byte+0x30>)
2000083a:	480c      	ldr	r0, [pc, #48]	; (2000086c <cli_write_byte+0x34>)
2000083c:	b510      	push	{r4, lr}
2000083e:	6819      	ldr	r1, [r3, #0]
20000840:	4c0b      	ldr	r4, [pc, #44]	; (20000870 <cli_write_byte+0x38>)
20000842:	6802      	ldr	r2, [r0, #0]
20000844:	54a1      	strb	r1, [r4, r2]
20000846:	4c0b      	ldr	r4, [pc, #44]	; (20000874 <cli_write_byte+0x3c>)
20000848:	6824      	ldr	r4, [r4, #0]
2000084a:	2c00      	cmp	r4, #0
2000084c:	d001      	beq.n	20000852 <cli_write_byte+0x1a>
2000084e:	3201      	adds	r2, #1
20000850:	6002      	str	r2, [r0, #0]
20000852:	4809      	ldr	r0, [pc, #36]	; (20000878 <cli_write_byte+0x40>)
20000854:	6800      	ldr	r0, [r0, #0]
20000856:	2800      	cmp	r0, #0
20000858:	d001      	beq.n	2000085e <cli_write_byte+0x26>
2000085a:	3101      	adds	r1, #1
2000085c:	6019      	str	r1, [r3, #0]
2000085e:	4807      	ldr	r0, [pc, #28]	; (2000087c <cli_write_byte+0x44>)
20000860:	f007 f960 	bl	20007b24 <__wrap_printf>
20000864:	bd10      	pop	{r4, pc}
20000866:	46c0      	nop			; (mov r8, r8)
20000868:	2000d33c 	.word	0x2000d33c
2000086c:	2000cd58 	.word	0x2000cd58
20000870:	20013374 	.word	0x20013374
20000874:	2000cd6c 	.word	0x2000cd6c
20000878:	2000cd70 	.word	0x2000cd70
2000087c:	2000ad04 	.word	0x2000ad04

20000880 <cli_boot_mass>:
20000880:	b510      	push	{r4, lr}
20000882:	4803      	ldr	r0, [pc, #12]	; (20000890 <cli_boot_mass+0x10>)
20000884:	f005 f91c 	bl	20005ac0 <rom_func_lookup>
20000888:	2100      	movs	r1, #0
2000088a:	0003      	movs	r3, r0
2000088c:	2000      	movs	r0, #0
2000088e:	4798      	blx	r3
20000890:	00004255 	.word	0x00004255

20000894 <cli_erase_program_slot>:
20000894:	b510      	push	{r4, lr}
20000896:	4c0c      	ldr	r4, [pc, #48]	; (200008c8 <cli_erase_program_slot+0x34>)
20000898:	480c      	ldr	r0, [pc, #48]	; (200008cc <cli_erase_program_slot+0x38>)
2000089a:	6821      	ldr	r1, [r4, #0]
2000089c:	f007 f942 	bl	20007b24 <__wrap_printf>
200008a0:	2180      	movs	r1, #128	; 0x80
200008a2:	6823      	ldr	r3, [r4, #0]
200008a4:	0149      	lsls	r1, r1, #5
200008a6:	1c58      	adds	r0, r3, #1
200008a8:	30ff      	adds	r0, #255	; 0xff
200008aa:	0300      	lsls	r0, r0, #12
200008ac:	f00a f904 	bl	2000aab8 <flash_range_erase>
200008b0:	4807      	ldr	r0, [pc, #28]	; (200008d0 <cli_erase_program_slot+0x3c>)
200008b2:	f007 f881 	bl	200079b8 <__wrap_puts>
200008b6:	4b07      	ldr	r3, [pc, #28]	; (200008d4 <cli_erase_program_slot+0x40>)
200008b8:	681b      	ldr	r3, [r3, #0]
200008ba:	2b00      	cmp	r3, #0
200008bc:	d002      	beq.n	200008c4 <cli_erase_program_slot+0x30>
200008be:	6823      	ldr	r3, [r4, #0]
200008c0:	3301      	adds	r3, #1
200008c2:	6023      	str	r3, [r4, #0]
200008c4:	bd10      	pop	{r4, pc}
200008c6:	46c0      	nop			; (mov r8, r8)
200008c8:	2000d33c 	.word	0x2000d33c
200008cc:	2000ad1c 	.word	0x2000ad1c
200008d0:	2000ad38 	.word	0x2000ad38
200008d4:	2000cd70 	.word	0x2000cd70

200008d8 <cli_slot_program_list>:
200008d8:	2394      	movs	r3, #148	; 0x94
200008da:	b5f0      	push	{r4, r5, r6, r7, lr}
200008dc:	4657      	mov	r7, sl
200008de:	46de      	mov	lr, fp
200008e0:	464e      	mov	r6, r9
200008e2:	4645      	mov	r5, r8
200008e4:	005b      	lsls	r3, r3, #1
200008e6:	4699      	mov	r9, r3
200008e8:	2300      	movs	r3, #0
200008ea:	b5e0      	push	{r5, r6, r7, lr}
200008ec:	b083      	sub	sp, #12
200008ee:	9301      	str	r3, [sp, #4]
200008f0:	4baa      	ldr	r3, [pc, #680]	; (20000b9c <cli_slot_program_list+0x2c4>)
200008f2:	4fab      	ldr	r7, [pc, #684]	; (20000ba0 <cli_slot_program_list+0x2c8>)
200008f4:	469b      	mov	fp, r3
200008f6:	4bab      	ldr	r3, [pc, #684]	; (20000ba4 <cli_slot_program_list+0x2cc>)
200008f8:	469a      	mov	sl, r3
200008fa:	4bab      	ldr	r3, [pc, #684]	; (20000ba8 <cli_slot_program_list+0x2d0>)
200008fc:	4698      	mov	r8, r3
200008fe:	9c01      	ldr	r4, [sp, #4]
20000900:	48aa      	ldr	r0, [pc, #680]	; (20000bac <cli_slot_program_list+0x2d4>)
20000902:	0021      	movs	r1, r4
20000904:	f007 f90e 	bl	20007b24 <__wrap_printf>
20000908:	465b      	mov	r3, fp
2000090a:	681a      	ldr	r2, [r3, #0]
2000090c:	0326      	lsls	r6, r4, #12
2000090e:	5d93      	ldrb	r3, [r2, r6]
20000910:	2bff      	cmp	r3, #255	; 0xff
20000912:	d100      	bne.n	20000916 <cli_slot_program_list+0x3e>
20000914:	e13e      	b.n	20000b94 <cli_slot_program_list+0x2bc>
20000916:	464c      	mov	r4, r9
20000918:	464b      	mov	r3, r9
2000091a:	2568      	movs	r5, #104	; 0x68
2000091c:	46b1      	mov	r9, r6
2000091e:	3c28      	subs	r4, #40	; 0x28
20000920:	001e      	movs	r6, r3
20000922:	e002      	b.n	2000092a <cli_slot_program_list+0x52>
20000924:	3401      	adds	r4, #1
20000926:	42a6      	cmp	r6, r4
20000928:	d00b      	beq.n	20000942 <cli_slot_program_list+0x6a>
2000092a:	4653      	mov	r3, sl
2000092c:	5d10      	ldrb	r0, [r2, r4]
2000092e:	5c1b      	ldrb	r3, [r3, r0]
20000930:	43ab      	bics	r3, r5
20000932:	d0f7      	beq.n	20000924 <cli_slot_program_list+0x4c>
20000934:	f006 ffee 	bl	20007914 <__wrap_putchar>
20000938:	465b      	mov	r3, fp
2000093a:	3401      	adds	r4, #1
2000093c:	681a      	ldr	r2, [r3, #0]
2000093e:	42a6      	cmp	r6, r4
20000940:	d1f3      	bne.n	2000092a <cli_slot_program_list+0x52>
20000942:	0033      	movs	r3, r6
20000944:	464e      	mov	r6, r9
20000946:	1992      	adds	r2, r2, r6
20000948:	4699      	mov	r9, r3
2000094a:	0014      	movs	r4, r2
2000094c:	2300      	movs	r3, #0
2000094e:	1c56      	adds	r6, r2, #1
20000950:	4d97      	ldr	r5, [pc, #604]	; (20000bb0 <cli_slot_program_list+0x2d8>)
20000952:	703b      	strb	r3, [r7, #0]
20000954:	3480      	adds	r4, #128	; 0x80
20000956:	36ff      	adds	r6, #255	; 0xff
20000958:	2300      	movs	r3, #0
2000095a:	7822      	ldrb	r2, [r4, #0]
2000095c:	702b      	strb	r3, [r5, #0]
2000095e:	2af9      	cmp	r2, #249	; 0xf9
20000960:	d803      	bhi.n	2000096a <cli_slot_program_list+0x92>
20000962:	4641      	mov	r1, r8
20000964:	0093      	lsls	r3, r2, #2
20000966:	58cb      	ldr	r3, [r1, r3]
20000968:	469f      	mov	pc, r3
2000096a:	0028      	movs	r0, r5
2000096c:	4991      	ldr	r1, [pc, #580]	; (20000bb4 <cli_slot_program_list+0x2dc>)
2000096e:	f005 f863 	bl	20005a38 <__wrap_sprintf>
20000972:	0029      	movs	r1, r5
20000974:	0038      	movs	r0, r7
20000976:	3401      	adds	r4, #1
20000978:	f009 ff48 	bl	2000a80c <strcat>
2000097c:	42b4      	cmp	r4, r6
2000097e:	d1eb      	bne.n	20000958 <cli_slot_program_list+0x80>
20000980:	0039      	movs	r1, r7
20000982:	488d      	ldr	r0, [pc, #564]	; (20000bb8 <cli_slot_program_list+0x2e0>)
20000984:	f007 f8ce 	bl	20007b24 <__wrap_printf>
20000988:	200a      	movs	r0, #10
2000098a:	f006 ffc3 	bl	20007914 <__wrap_putchar>
2000098e:	2280      	movs	r2, #128	; 0x80
20000990:	0152      	lsls	r2, r2, #5
20000992:	4694      	mov	ip, r2
20000994:	9b01      	ldr	r3, [sp, #4]
20000996:	44e1      	add	r9, ip
20000998:	3301      	adds	r3, #1
2000099a:	9301      	str	r3, [sp, #4]
2000099c:	2bfa      	cmp	r3, #250	; 0xfa
2000099e:	d1ae      	bne.n	200008fe <cli_slot_program_list+0x26>
200009a0:	200a      	movs	r0, #10
200009a2:	f006 ffb7 	bl	20007914 <__wrap_putchar>
200009a6:	b003      	add	sp, #12
200009a8:	bc3c      	pop	{r2, r3, r4, r5}
200009aa:	4690      	mov	r8, r2
200009ac:	4699      	mov	r9, r3
200009ae:	46a2      	mov	sl, r4
200009b0:	46ab      	mov	fp, r5
200009b2:	bdf0      	pop	{r4, r5, r6, r7, pc}
200009b4:	2205      	movs	r2, #5
200009b6:	0028      	movs	r0, r5
200009b8:	4980      	ldr	r1, [pc, #512]	; (20000bbc <cli_slot_program_list+0x2e4>)
200009ba:	f006 fea1 	bl	20007700 <__wrap___aeabi_memcpy>
200009be:	e7d8      	b.n	20000972 <cli_slot_program_list+0x9a>
200009c0:	2202      	movs	r2, #2
200009c2:	0028      	movs	r0, r5
200009c4:	497e      	ldr	r1, [pc, #504]	; (20000bc0 <cli_slot_program_list+0x2e8>)
200009c6:	f006 fe9b 	bl	20007700 <__wrap___aeabi_memcpy>
200009ca:	e7d2      	b.n	20000972 <cli_slot_program_list+0x9a>
200009cc:	2202      	movs	r2, #2
200009ce:	0028      	movs	r0, r5
200009d0:	497c      	ldr	r1, [pc, #496]	; (20000bc4 <cli_slot_program_list+0x2ec>)
200009d2:	f006 fe95 	bl	20007700 <__wrap___aeabi_memcpy>
200009d6:	e7cc      	b.n	20000972 <cli_slot_program_list+0x9a>
200009d8:	2202      	movs	r2, #2
200009da:	0028      	movs	r0, r5
200009dc:	497a      	ldr	r1, [pc, #488]	; (20000bc8 <cli_slot_program_list+0x2f0>)
200009de:	f006 fe8f 	bl	20007700 <__wrap___aeabi_memcpy>
200009e2:	e7c6      	b.n	20000972 <cli_slot_program_list+0x9a>
200009e4:	2202      	movs	r2, #2
200009e6:	0028      	movs	r0, r5
200009e8:	4978      	ldr	r1, [pc, #480]	; (20000bcc <cli_slot_program_list+0x2f4>)
200009ea:	f006 fe89 	bl	20007700 <__wrap___aeabi_memcpy>
200009ee:	e7c0      	b.n	20000972 <cli_slot_program_list+0x9a>
200009f0:	2202      	movs	r2, #2
200009f2:	0028      	movs	r0, r5
200009f4:	4976      	ldr	r1, [pc, #472]	; (20000bd0 <cli_slot_program_list+0x2f8>)
200009f6:	f006 fe83 	bl	20007700 <__wrap___aeabi_memcpy>
200009fa:	e7ba      	b.n	20000972 <cli_slot_program_list+0x9a>
200009fc:	2202      	movs	r2, #2
200009fe:	0028      	movs	r0, r5
20000a00:	4974      	ldr	r1, [pc, #464]	; (20000bd4 <cli_slot_program_list+0x2fc>)
20000a02:	f006 fe7d 	bl	20007700 <__wrap___aeabi_memcpy>
20000a06:	e7b4      	b.n	20000972 <cli_slot_program_list+0x9a>
20000a08:	2202      	movs	r2, #2
20000a0a:	0028      	movs	r0, r5
20000a0c:	4972      	ldr	r1, [pc, #456]	; (20000bd8 <cli_slot_program_list+0x300>)
20000a0e:	f006 fe77 	bl	20007700 <__wrap___aeabi_memcpy>
20000a12:	e7ae      	b.n	20000972 <cli_slot_program_list+0x9a>
20000a14:	2202      	movs	r2, #2
20000a16:	0028      	movs	r0, r5
20000a18:	4970      	ldr	r1, [pc, #448]	; (20000bdc <cli_slot_program_list+0x304>)
20000a1a:	f006 fe71 	bl	20007700 <__wrap___aeabi_memcpy>
20000a1e:	e7a8      	b.n	20000972 <cli_slot_program_list+0x9a>
20000a20:	2202      	movs	r2, #2
20000a22:	0028      	movs	r0, r5
20000a24:	496e      	ldr	r1, [pc, #440]	; (20000be0 <cli_slot_program_list+0x308>)
20000a26:	f006 fe6b 	bl	20007700 <__wrap___aeabi_memcpy>
20000a2a:	e7a2      	b.n	20000972 <cli_slot_program_list+0x9a>
20000a2c:	2205      	movs	r2, #5
20000a2e:	0028      	movs	r0, r5
20000a30:	496c      	ldr	r1, [pc, #432]	; (20000be4 <cli_slot_program_list+0x30c>)
20000a32:	f006 fe65 	bl	20007700 <__wrap___aeabi_memcpy>
20000a36:	e79c      	b.n	20000972 <cli_slot_program_list+0x9a>
20000a38:	2203      	movs	r2, #3
20000a3a:	0028      	movs	r0, r5
20000a3c:	496a      	ldr	r1, [pc, #424]	; (20000be8 <cli_slot_program_list+0x310>)
20000a3e:	f006 fe5f 	bl	20007700 <__wrap___aeabi_memcpy>
20000a42:	e796      	b.n	20000972 <cli_slot_program_list+0x9a>
20000a44:	2205      	movs	r2, #5
20000a46:	0028      	movs	r0, r5
20000a48:	4968      	ldr	r1, [pc, #416]	; (20000bec <cli_slot_program_list+0x314>)
20000a4a:	f006 fe59 	bl	20007700 <__wrap___aeabi_memcpy>
20000a4e:	e790      	b.n	20000972 <cli_slot_program_list+0x9a>
20000a50:	2205      	movs	r2, #5
20000a52:	0028      	movs	r0, r5
20000a54:	4966      	ldr	r1, [pc, #408]	; (20000bf0 <cli_slot_program_list+0x318>)
20000a56:	f006 fe53 	bl	20007700 <__wrap___aeabi_memcpy>
20000a5a:	e78a      	b.n	20000972 <cli_slot_program_list+0x9a>
20000a5c:	2205      	movs	r2, #5
20000a5e:	0028      	movs	r0, r5
20000a60:	4964      	ldr	r1, [pc, #400]	; (20000bf4 <cli_slot_program_list+0x31c>)
20000a62:	f006 fe4d 	bl	20007700 <__wrap___aeabi_memcpy>
20000a66:	e784      	b.n	20000972 <cli_slot_program_list+0x9a>
20000a68:	2205      	movs	r2, #5
20000a6a:	0028      	movs	r0, r5
20000a6c:	4962      	ldr	r1, [pc, #392]	; (20000bf8 <cli_slot_program_list+0x320>)
20000a6e:	f006 fe47 	bl	20007700 <__wrap___aeabi_memcpy>
20000a72:	e77e      	b.n	20000972 <cli_slot_program_list+0x9a>
20000a74:	2206      	movs	r2, #6
20000a76:	0028      	movs	r0, r5
20000a78:	4960      	ldr	r1, [pc, #384]	; (20000bfc <cli_slot_program_list+0x324>)
20000a7a:	f006 fe41 	bl	20007700 <__wrap___aeabi_memcpy>
20000a7e:	e778      	b.n	20000972 <cli_slot_program_list+0x9a>
20000a80:	2205      	movs	r2, #5
20000a82:	0028      	movs	r0, r5
20000a84:	495e      	ldr	r1, [pc, #376]	; (20000c00 <cli_slot_program_list+0x328>)
20000a86:	f006 fe3b 	bl	20007700 <__wrap___aeabi_memcpy>
20000a8a:	e772      	b.n	20000972 <cli_slot_program_list+0x9a>
20000a8c:	2206      	movs	r2, #6
20000a8e:	0028      	movs	r0, r5
20000a90:	495c      	ldr	r1, [pc, #368]	; (20000c04 <cli_slot_program_list+0x32c>)
20000a92:	f006 fe35 	bl	20007700 <__wrap___aeabi_memcpy>
20000a96:	e76c      	b.n	20000972 <cli_slot_program_list+0x9a>
20000a98:	2205      	movs	r2, #5
20000a9a:	0028      	movs	r0, r5
20000a9c:	495a      	ldr	r1, [pc, #360]	; (20000c08 <cli_slot_program_list+0x330>)
20000a9e:	f006 fe2f 	bl	20007700 <__wrap___aeabi_memcpy>
20000aa2:	e766      	b.n	20000972 <cli_slot_program_list+0x9a>
20000aa4:	2205      	movs	r2, #5
20000aa6:	0028      	movs	r0, r5
20000aa8:	4958      	ldr	r1, [pc, #352]	; (20000c0c <cli_slot_program_list+0x334>)
20000aaa:	f006 fe29 	bl	20007700 <__wrap___aeabi_memcpy>
20000aae:	e760      	b.n	20000972 <cli_slot_program_list+0x9a>
20000ab0:	2204      	movs	r2, #4
20000ab2:	0028      	movs	r0, r5
20000ab4:	4956      	ldr	r1, [pc, #344]	; (20000c10 <cli_slot_program_list+0x338>)
20000ab6:	f006 fe23 	bl	20007700 <__wrap___aeabi_memcpy>
20000aba:	e75a      	b.n	20000972 <cli_slot_program_list+0x9a>
20000abc:	2205      	movs	r2, #5
20000abe:	0028      	movs	r0, r5
20000ac0:	4954      	ldr	r1, [pc, #336]	; (20000c14 <cli_slot_program_list+0x33c>)
20000ac2:	f006 fe1d 	bl	20007700 <__wrap___aeabi_memcpy>
20000ac6:	e754      	b.n	20000972 <cli_slot_program_list+0x9a>
20000ac8:	2206      	movs	r2, #6
20000aca:	0028      	movs	r0, r5
20000acc:	4952      	ldr	r1, [pc, #328]	; (20000c18 <cli_slot_program_list+0x340>)
20000ace:	f006 fe17 	bl	20007700 <__wrap___aeabi_memcpy>
20000ad2:	e74e      	b.n	20000972 <cli_slot_program_list+0x9a>
20000ad4:	2203      	movs	r2, #3
20000ad6:	0028      	movs	r0, r5
20000ad8:	4950      	ldr	r1, [pc, #320]	; (20000c1c <cli_slot_program_list+0x344>)
20000ada:	f006 fe11 	bl	20007700 <__wrap___aeabi_memcpy>
20000ade:	e748      	b.n	20000972 <cli_slot_program_list+0x9a>
20000ae0:	2205      	movs	r2, #5
20000ae2:	0028      	movs	r0, r5
20000ae4:	494e      	ldr	r1, [pc, #312]	; (20000c20 <cli_slot_program_list+0x348>)
20000ae6:	f006 fe0b 	bl	20007700 <__wrap___aeabi_memcpy>
20000aea:	e742      	b.n	20000972 <cli_slot_program_list+0x9a>
20000aec:	2203      	movs	r2, #3
20000aee:	0028      	movs	r0, r5
20000af0:	494c      	ldr	r1, [pc, #304]	; (20000c24 <cli_slot_program_list+0x34c>)
20000af2:	f006 fe05 	bl	20007700 <__wrap___aeabi_memcpy>
20000af6:	e73c      	b.n	20000972 <cli_slot_program_list+0x9a>
20000af8:	2203      	movs	r2, #3
20000afa:	0028      	movs	r0, r5
20000afc:	494a      	ldr	r1, [pc, #296]	; (20000c28 <cli_slot_program_list+0x350>)
20000afe:	f006 fdff 	bl	20007700 <__wrap___aeabi_memcpy>
20000b02:	e736      	b.n	20000972 <cli_slot_program_list+0x9a>
20000b04:	2203      	movs	r2, #3
20000b06:	0028      	movs	r0, r5
20000b08:	4948      	ldr	r1, [pc, #288]	; (20000c2c <cli_slot_program_list+0x354>)
20000b0a:	f006 fdf9 	bl	20007700 <__wrap___aeabi_memcpy>
20000b0e:	e730      	b.n	20000972 <cli_slot_program_list+0x9a>
20000b10:	2203      	movs	r2, #3
20000b12:	0028      	movs	r0, r5
20000b14:	4946      	ldr	r1, [pc, #280]	; (20000c30 <cli_slot_program_list+0x358>)
20000b16:	f006 fdf3 	bl	20007700 <__wrap___aeabi_memcpy>
20000b1a:	e72a      	b.n	20000972 <cli_slot_program_list+0x9a>
20000b1c:	2203      	movs	r2, #3
20000b1e:	0028      	movs	r0, r5
20000b20:	4944      	ldr	r1, [pc, #272]	; (20000c34 <cli_slot_program_list+0x35c>)
20000b22:	f006 fded 	bl	20007700 <__wrap___aeabi_memcpy>
20000b26:	e724      	b.n	20000972 <cli_slot_program_list+0x9a>
20000b28:	2204      	movs	r2, #4
20000b2a:	0028      	movs	r0, r5
20000b2c:	4942      	ldr	r1, [pc, #264]	; (20000c38 <cli_slot_program_list+0x360>)
20000b2e:	f006 fde7 	bl	20007700 <__wrap___aeabi_memcpy>
20000b32:	e71e      	b.n	20000972 <cli_slot_program_list+0x9a>
20000b34:	2205      	movs	r2, #5
20000b36:	0028      	movs	r0, r5
20000b38:	4940      	ldr	r1, [pc, #256]	; (20000c3c <cli_slot_program_list+0x364>)
20000b3a:	f006 fde1 	bl	20007700 <__wrap___aeabi_memcpy>
20000b3e:	e718      	b.n	20000972 <cli_slot_program_list+0x9a>
20000b40:	2205      	movs	r2, #5
20000b42:	0028      	movs	r0, r5
20000b44:	493e      	ldr	r1, [pc, #248]	; (20000c40 <cli_slot_program_list+0x368>)
20000b46:	f006 fddb 	bl	20007700 <__wrap___aeabi_memcpy>
20000b4a:	e712      	b.n	20000972 <cli_slot_program_list+0x9a>
20000b4c:	2204      	movs	r2, #4
20000b4e:	0028      	movs	r0, r5
20000b50:	493c      	ldr	r1, [pc, #240]	; (20000c44 <cli_slot_program_list+0x36c>)
20000b52:	f006 fdd5 	bl	20007700 <__wrap___aeabi_memcpy>
20000b56:	e70c      	b.n	20000972 <cli_slot_program_list+0x9a>
20000b58:	2203      	movs	r2, #3
20000b5a:	0028      	movs	r0, r5
20000b5c:	493a      	ldr	r1, [pc, #232]	; (20000c48 <cli_slot_program_list+0x370>)
20000b5e:	f006 fdcf 	bl	20007700 <__wrap___aeabi_memcpy>
20000b62:	e706      	b.n	20000972 <cli_slot_program_list+0x9a>
20000b64:	2204      	movs	r2, #4
20000b66:	0028      	movs	r0, r5
20000b68:	4938      	ldr	r1, [pc, #224]	; (20000c4c <cli_slot_program_list+0x374>)
20000b6a:	f006 fdc9 	bl	20007700 <__wrap___aeabi_memcpy>
20000b6e:	e700      	b.n	20000972 <cli_slot_program_list+0x9a>
20000b70:	2204      	movs	r2, #4
20000b72:	0028      	movs	r0, r5
20000b74:	4936      	ldr	r1, [pc, #216]	; (20000c50 <cli_slot_program_list+0x378>)
20000b76:	f006 fdc3 	bl	20007700 <__wrap___aeabi_memcpy>
20000b7a:	e6fa      	b.n	20000972 <cli_slot_program_list+0x9a>
20000b7c:	2208      	movs	r2, #8
20000b7e:	0028      	movs	r0, r5
20000b80:	4934      	ldr	r1, [pc, #208]	; (20000c54 <cli_slot_program_list+0x37c>)
20000b82:	f006 fdbd 	bl	20007700 <__wrap___aeabi_memcpy>
20000b86:	e6f4      	b.n	20000972 <cli_slot_program_list+0x9a>
20000b88:	2206      	movs	r2, #6
20000b8a:	0028      	movs	r0, r5
20000b8c:	4932      	ldr	r1, [pc, #200]	; (20000c58 <cli_slot_program_list+0x380>)
20000b8e:	f006 fdb7 	bl	20007700 <__wrap___aeabi_memcpy>
20000b92:	e6ee      	b.n	20000972 <cli_slot_program_list+0x9a>
20000b94:	4831      	ldr	r0, [pc, #196]	; (20000c5c <cli_slot_program_list+0x384>)
20000b96:	f006 ffc5 	bl	20007b24 <__wrap_printf>
20000b9a:	e6f8      	b.n	2000098e <cli_slot_program_list+0xb6>
20000b9c:	2000c5d8 	.word	0x2000c5d8
20000ba0:	2000d7cc 	.word	0x2000d7cc
20000ba4:	2000c4d1 	.word	0x2000c4d1
20000ba8:	2000ae54 	.word	0x2000ae54
20000bac:	2000ad40 	.word	0x2000ad40
20000bb0:	20013474 	.word	0x20013474
20000bb4:	2000ad50 	.word	0x2000ad50
20000bb8:	2000ae40 	.word	0x2000ae40
20000bbc:	2000ada8 	.word	0x2000ada8
20000bc0:	2000ae38 	.word	0x2000ae38
20000bc4:	2000ae34 	.word	0x2000ae34
20000bc8:	2000ae30 	.word	0x2000ae30
20000bcc:	2000ae2c 	.word	0x2000ae2c
20000bd0:	2000ae28 	.word	0x2000ae28
20000bd4:	2000ae24 	.word	0x2000ae24
20000bd8:	2000ae20 	.word	0x2000ae20
20000bdc:	2000ae1c 	.word	0x2000ae1c
20000be0:	2000ae3c 	.word	0x2000ae3c
20000be4:	2000adb0 	.word	0x2000adb0
20000be8:	2000ada4 	.word	0x2000ada4
20000bec:	2000add0 	.word	0x2000add0
20000bf0:	2000adc8 	.word	0x2000adc8
20000bf4:	2000adc0 	.word	0x2000adc0
20000bf8:	2000adb8 	.word	0x2000adb8
20000bfc:	2000ad68 	.word	0x2000ad68
20000c00:	2000ad60 	.word	0x2000ad60
20000c04:	2000ad9c 	.word	0x2000ad9c
20000c08:	2000ad94 	.word	0x2000ad94
20000c0c:	2000ad8c 	.word	0x2000ad8c
20000c10:	2000ad88 	.word	0x2000ad88
20000c14:	2000ad80 	.word	0x2000ad80
20000c18:	2000ad78 	.word	0x2000ad78
20000c1c:	2000ae18 	.word	0x2000ae18
20000c20:	2000ae0c 	.word	0x2000ae0c
20000c24:	2000ae14 	.word	0x2000ae14
20000c28:	2000ae08 	.word	0x2000ae08
20000c2c:	2000ae04 	.word	0x2000ae04
20000c30:	2000adfc 	.word	0x2000adfc
20000c34:	2000ae00 	.word	0x2000ae00
20000c38:	2000adf8 	.word	0x2000adf8
20000c3c:	2000adf0 	.word	0x2000adf0
20000c40:	2000ade8 	.word	0x2000ade8
20000c44:	2000ade0 	.word	0x2000ade0
20000c48:	2000ade4 	.word	0x2000ade4
20000c4c:	2000add8 	.word	0x2000add8
20000c50:	2000addc 	.word	0x2000addc
20000c54:	2000ad58 	.word	0x2000ad58
20000c58:	2000ad70 	.word	0x2000ad70
20000c5c:	2000ad48 	.word	0x2000ad48

20000c60 <cli_load_ram>:
20000c60:	b5f8      	push	{r3, r4, r5, r6, r7, lr}
20000c62:	4b10      	ldr	r3, [pc, #64]	; (20000ca4 <cli_load_ram+0x44>)
20000c64:	4810      	ldr	r0, [pc, #64]	; (20000ca8 <cli_load_ram+0x48>)
20000c66:	681e      	ldr	r6, [r3, #0]
20000c68:	0031      	movs	r1, r6
20000c6a:	f006 ff5b 	bl	20007b24 <__wrap_printf>
20000c6e:	4f0f      	ldr	r7, [pc, #60]	; (20000cac <cli_load_ram+0x4c>)
20000c70:	4c0f      	ldr	r4, [pc, #60]	; (20000cb0 <cli_load_ram+0x50>)
20000c72:	683b      	ldr	r3, [r7, #0]
20000c74:	0335      	lsls	r5, r6, #12
20000c76:	1959      	adds	r1, r3, r5
20000c78:	2280      	movs	r2, #128	; 0x80
20000c7a:	0020      	movs	r0, r4
20000c7c:	f006 fd40 	bl	20007700 <__wrap___aeabi_memcpy>
20000c80:	0031      	movs	r1, r6
20000c82:	480c      	ldr	r0, [pc, #48]	; (20000cb4 <cli_load_ram+0x54>)
20000c84:	f006 ff4e 	bl	20007b24 <__wrap_printf>
20000c88:	0029      	movs	r1, r5
20000c8a:	0020      	movs	r0, r4
20000c8c:	683d      	ldr	r5, [r7, #0]
20000c8e:	3180      	adds	r1, #128	; 0x80
20000c90:	1869      	adds	r1, r5, r1
20000c92:	2280      	movs	r2, #128	; 0x80
20000c94:	3080      	adds	r0, #128	; 0x80
20000c96:	f006 fd33 	bl	20007700 <__wrap___aeabi_memcpy>
20000c9a:	200a      	movs	r0, #10
20000c9c:	f006 fe3a 	bl	20007914 <__wrap_putchar>
20000ca0:	bdf8      	pop	{r3, r4, r5, r6, r7, pc}
20000ca2:	46c0      	nop			; (mov r8, r8)
20000ca4:	2000d33c 	.word	0x2000d33c
20000ca8:	2000b23c 	.word	0x2000b23c
20000cac:	2000c5d8 	.word	0x2000c5d8
20000cb0:	20013374 	.word	0x20013374
20000cb4:	2000b264 	.word	0x2000b264

20000cb8 <cli_clear_ram>:
20000cb8:	b510      	push	{r4, lr}
20000cba:	480b      	ldr	r0, [pc, #44]	; (20000ce8 <cli_clear_ram+0x30>)
20000cbc:	f006 ff32 	bl	20007b24 <__wrap_printf>
20000cc0:	4c0a      	ldr	r4, [pc, #40]	; (20000cec <cli_clear_ram+0x34>)
20000cc2:	2280      	movs	r2, #128	; 0x80
20000cc4:	2100      	movs	r1, #0
20000cc6:	0020      	movs	r0, r4
20000cc8:	f006 fd14 	bl	200076f4 <__wrap_memset>
20000ccc:	4808      	ldr	r0, [pc, #32]	; (20000cf0 <cli_clear_ram+0x38>)
20000cce:	f006 ff29 	bl	20007b24 <__wrap_printf>
20000cd2:	0020      	movs	r0, r4
20000cd4:	2280      	movs	r2, #128	; 0x80
20000cd6:	2100      	movs	r1, #0
20000cd8:	3080      	adds	r0, #128	; 0x80
20000cda:	f006 fd0b 	bl	200076f4 <__wrap_memset>
20000cde:	200a      	movs	r0, #10
20000ce0:	f006 fe18 	bl	20007914 <__wrap_putchar>
20000ce4:	bd10      	pop	{r4, pc}
20000ce6:	46c0      	nop			; (mov r8, r8)
20000ce8:	2000b28c 	.word	0x2000b28c
20000cec:	20013374 	.word	0x20013374
20000cf0:	2000b2a0 	.word	0x2000b2a0

20000cf4 <cli_clear_ram_mp>:
20000cf4:	b510      	push	{r4, lr}
20000cf6:	4813      	ldr	r0, [pc, #76]	; (20000d44 <cli_clear_ram_mp+0x50>)
20000cf8:	f006 ff14 	bl	20007b24 <__wrap_printf>
20000cfc:	4812      	ldr	r0, [pc, #72]	; (20000d48 <cli_clear_ram_mp+0x54>)
20000cfe:	f006 ff23 	bl	20007b48 <getchar_timeout_us>
20000d02:	1c43      	adds	r3, r0, #1
20000d04:	d00e      	beq.n	20000d24 <cli_clear_ram_mp+0x30>
20000d06:	286d      	cmp	r0, #109	; 0x6d
20000d08:	d013      	beq.n	20000d32 <cli_clear_ram_mp+0x3e>
20000d0a:	dc0f      	bgt.n	20000d2c <cli_clear_ram_mp+0x38>
20000d0c:	284d      	cmp	r0, #77	; 0x4d
20000d0e:	d010      	beq.n	20000d32 <cli_clear_ram_mp+0x3e>
20000d10:	2850      	cmp	r0, #80	; 0x50
20000d12:	d107      	bne.n	20000d24 <cli_clear_ram_mp+0x30>
20000d14:	480d      	ldr	r0, [pc, #52]	; (20000d4c <cli_clear_ram_mp+0x58>)
20000d16:	f006 ff05 	bl	20007b24 <__wrap_printf>
20000d1a:	2280      	movs	r2, #128	; 0x80
20000d1c:	2100      	movs	r1, #0
20000d1e:	480c      	ldr	r0, [pc, #48]	; (20000d50 <cli_clear_ram_mp+0x5c>)
20000d20:	f006 fce8 	bl	200076f4 <__wrap_memset>
20000d24:	200a      	movs	r0, #10
20000d26:	f006 fdf5 	bl	20007914 <__wrap_putchar>
20000d2a:	bd10      	pop	{r4, pc}
20000d2c:	2870      	cmp	r0, #112	; 0x70
20000d2e:	d0f1      	beq.n	20000d14 <cli_clear_ram_mp+0x20>
20000d30:	e7f8      	b.n	20000d24 <cli_clear_ram_mp+0x30>
20000d32:	4808      	ldr	r0, [pc, #32]	; (20000d54 <cli_clear_ram_mp+0x60>)
20000d34:	f006 fef6 	bl	20007b24 <__wrap_printf>
20000d38:	2280      	movs	r2, #128	; 0x80
20000d3a:	2100      	movs	r1, #0
20000d3c:	4806      	ldr	r0, [pc, #24]	; (20000d58 <cli_clear_ram_mp+0x64>)
20000d3e:	f006 fcd9 	bl	200076f4 <__wrap_memset>
20000d42:	e7ef      	b.n	20000d24 <cli_clear_ram_mp+0x30>
20000d44:	2000b2b4 	.word	0x2000b2b4
20000d48:	00989680 	.word	0x00989680
20000d4c:	2000b2a0 	.word	0x2000b2a0
20000d50:	200133f4 	.word	0x200133f4
20000d54:	2000b28c 	.word	0x2000b28c
20000d58:	20013374 	.word	0x20013374

20000d5c <cli_load_ram_mp>:
20000d5c:	b510      	push	{r4, lr}
20000d5e:	481a      	ldr	r0, [pc, #104]	; (20000dc8 <cli_load_ram_mp+0x6c>)
20000d60:	f006 fee0 	bl	20007b24 <__wrap_printf>
20000d64:	4819      	ldr	r0, [pc, #100]	; (20000dcc <cli_load_ram_mp+0x70>)
20000d66:	f006 feef 	bl	20007b48 <getchar_timeout_us>
20000d6a:	1c43      	adds	r3, r0, #1
20000d6c:	d016      	beq.n	20000d9c <cli_load_ram_mp+0x40>
20000d6e:	286d      	cmp	r0, #109	; 0x6d
20000d70:	d01b      	beq.n	20000daa <cli_load_ram_mp+0x4e>
20000d72:	dc17      	bgt.n	20000da4 <cli_load_ram_mp+0x48>
20000d74:	284d      	cmp	r0, #77	; 0x4d
20000d76:	d018      	beq.n	20000daa <cli_load_ram_mp+0x4e>
20000d78:	2850      	cmp	r0, #80	; 0x50
20000d7a:	d10f      	bne.n	20000d9c <cli_load_ram_mp+0x40>
20000d7c:	4b14      	ldr	r3, [pc, #80]	; (20000dd0 <cli_load_ram_mp+0x74>)
20000d7e:	4815      	ldr	r0, [pc, #84]	; (20000dd4 <cli_load_ram_mp+0x78>)
20000d80:	681c      	ldr	r4, [r3, #0]
20000d82:	0021      	movs	r1, r4
20000d84:	0324      	lsls	r4, r4, #12
20000d86:	f006 fecd 	bl	20007b24 <__wrap_printf>
20000d8a:	0021      	movs	r1, r4
20000d8c:	4b12      	ldr	r3, [pc, #72]	; (20000dd8 <cli_load_ram_mp+0x7c>)
20000d8e:	3180      	adds	r1, #128	; 0x80
20000d90:	681c      	ldr	r4, [r3, #0]
20000d92:	2280      	movs	r2, #128	; 0x80
20000d94:	4811      	ldr	r0, [pc, #68]	; (20000ddc <cli_load_ram_mp+0x80>)
20000d96:	1861      	adds	r1, r4, r1
20000d98:	f006 fcb2 	bl	20007700 <__wrap___aeabi_memcpy>
20000d9c:	200a      	movs	r0, #10
20000d9e:	f006 fdb9 	bl	20007914 <__wrap_putchar>
20000da2:	bd10      	pop	{r4, pc}
20000da4:	2870      	cmp	r0, #112	; 0x70
20000da6:	d0e9      	beq.n	20000d7c <cli_load_ram_mp+0x20>
20000da8:	e7f8      	b.n	20000d9c <cli_load_ram_mp+0x40>
20000daa:	4b09      	ldr	r3, [pc, #36]	; (20000dd0 <cli_load_ram_mp+0x74>)
20000dac:	480c      	ldr	r0, [pc, #48]	; (20000de0 <cli_load_ram_mp+0x84>)
20000dae:	681c      	ldr	r4, [r3, #0]
20000db0:	0021      	movs	r1, r4
20000db2:	f006 feb7 	bl	20007b24 <__wrap_printf>
20000db6:	4b08      	ldr	r3, [pc, #32]	; (20000dd8 <cli_load_ram_mp+0x7c>)
20000db8:	0324      	lsls	r4, r4, #12
20000dba:	6819      	ldr	r1, [r3, #0]
20000dbc:	2280      	movs	r2, #128	; 0x80
20000dbe:	1909      	adds	r1, r1, r4
20000dc0:	4808      	ldr	r0, [pc, #32]	; (20000de4 <cli_load_ram_mp+0x88>)
20000dc2:	f006 fc9d 	bl	20007700 <__wrap___aeabi_memcpy>
20000dc6:	e7e9      	b.n	20000d9c <cli_load_ram_mp+0x40>
20000dc8:	2000b2b4 	.word	0x2000b2b4
20000dcc:	00989680 	.word	0x00989680
20000dd0:	2000d33c 	.word	0x2000d33c
20000dd4:	2000b264 	.word	0x2000b264
20000dd8:	2000c5d8 	.word	0x2000c5d8
20000ddc:	200133f4 	.word	0x200133f4
20000de0:	2000b23c 	.word	0x2000b23c
20000de4:	20013374 	.word	0x20013374

20000de8 <cli_save_ram>:
20000de8:	4b1c      	ldr	r3, [pc, #112]	; (20000e5c <cli_save_ram+0x74>)
20000dea:	b5f0      	push	{r4, r5, r6, r7, lr}
20000dec:	681f      	ldr	r7, [r3, #0]
20000dee:	4b1c      	ldr	r3, [pc, #112]	; (20000e60 <cli_save_ram+0x78>)
20000df0:	46c6      	mov	lr, r8
20000df2:	6819      	ldr	r1, [r3, #0]
20000df4:	2380      	movs	r3, #128	; 0x80
20000df6:	4d1b      	ldr	r5, [pc, #108]	; (20000e64 <cli_save_ram+0x7c>)
20000df8:	033c      	lsls	r4, r7, #12
20000dfa:	005b      	lsls	r3, r3, #1
20000dfc:	b500      	push	{lr}
20000dfe:	001a      	movs	r2, r3
20000e00:	0028      	movs	r0, r5
20000e02:	1909      	adds	r1, r1, r4
20000e04:	4698      	mov	r8, r3
20000e06:	f006 fc7b 	bl	20007700 <__wrap___aeabi_memcpy>
20000e0a:	2380      	movs	r3, #128	; 0x80
20000e0c:	035b      	lsls	r3, r3, #13
20000e0e:	469c      	mov	ip, r3
20000e10:	2180      	movs	r1, #128	; 0x80
20000e12:	4464      	add	r4, ip
20000e14:	0020      	movs	r0, r4
20000e16:	0149      	lsls	r1, r1, #5
20000e18:	f009 fe4e 	bl	2000aab8 <flash_range_erase>
20000e1c:	0039      	movs	r1, r7
20000e1e:	4812      	ldr	r0, [pc, #72]	; (20000e68 <cli_save_ram+0x80>)
20000e20:	f006 fe80 	bl	20007b24 <__wrap_printf>
20000e24:	4e11      	ldr	r6, [pc, #68]	; (20000e6c <cli_save_ram+0x84>)
20000e26:	2280      	movs	r2, #128	; 0x80
20000e28:	0031      	movs	r1, r6
20000e2a:	0028      	movs	r0, r5
20000e2c:	f006 fc68 	bl	20007700 <__wrap___aeabi_memcpy>
20000e30:	0039      	movs	r1, r7
20000e32:	480f      	ldr	r0, [pc, #60]	; (20000e70 <cli_save_ram+0x88>)
20000e34:	f006 fe76 	bl	20007b24 <__wrap_printf>
20000e38:	0028      	movs	r0, r5
20000e3a:	0031      	movs	r1, r6
20000e3c:	2280      	movs	r2, #128	; 0x80
20000e3e:	3180      	adds	r1, #128	; 0x80
20000e40:	3080      	adds	r0, #128	; 0x80
20000e42:	f006 fc5d 	bl	20007700 <__wrap___aeabi_memcpy>
20000e46:	4642      	mov	r2, r8
20000e48:	0029      	movs	r1, r5
20000e4a:	0020      	movs	r0, r4
20000e4c:	f009 fe74 	bl	2000ab38 <flash_range_program>
20000e50:	4808      	ldr	r0, [pc, #32]	; (20000e74 <cli_save_ram+0x8c>)
20000e52:	f006 fdb1 	bl	200079b8 <__wrap_puts>
20000e56:	bc04      	pop	{r2}
20000e58:	4690      	mov	r8, r2
20000e5a:	bdf0      	pop	{r4, r5, r6, r7, pc}
20000e5c:	2000d33c 	.word	0x2000d33c
20000e60:	2000c5d8 	.word	0x2000c5d8
20000e64:	2000ff34 	.word	0x2000ff34
20000e68:	2000b2d0 	.word	0x2000b2d0
20000e6c:	20013374 	.word	0x20013374
20000e70:	2000b2f0 	.word	0x2000b2f0
20000e74:	2000b314 	.word	0x2000b314

20000e78 <set_gpio_input>:
20000e78:	b510      	push	{r4, lr}
20000e7a:	0004      	movs	r4, r0
20000e7c:	f001 fbd4 	bl	20002628 <gpio_init>
20000e80:	2301      	movs	r3, #1
20000e82:	22d0      	movs	r2, #208	; 0xd0
20000e84:	40a3      	lsls	r3, r4
20000e86:	0612      	lsls	r2, r2, #24
20000e88:	6293      	str	r3, [r2, #40]	; 0x28
20000e8a:	2100      	movs	r1, #0
20000e8c:	2200      	movs	r2, #0
20000e8e:	0020      	movs	r0, r4
20000e90:	f001 fbb2 	bl	200025f8 <gpio_set_pulls>
20000e94:	bd10      	pop	{r4, pc}
20000e96:	46c0      	nop			; (mov r8, r8)

20000e98 <dbl_to_mem>:
20000e98:	b5f0      	push	{r4, r5, r6, r7, lr}
20000e9a:	46d6      	mov	lr, sl
20000e9c:	464f      	mov	r7, r9
20000e9e:	4646      	mov	r6, r8
20000ea0:	0005      	movs	r5, r0
20000ea2:	000c      	movs	r4, r1
20000ea4:	b5c0      	push	{r6, r7, lr}
20000ea6:	2300      	movs	r3, #0
20000ea8:	b08a      	sub	sp, #40	; 0x28
20000eaa:	0021      	movs	r1, r4
20000eac:	0028      	movs	r0, r5
20000eae:	4690      	mov	r8, r2
20000eb0:	2200      	movs	r2, #0
20000eb2:	f005 f919 	bl	200060e8 <__wrap___aeabi_dcmplt>
20000eb6:	1e43      	subs	r3, r0, #1
20000eb8:	4198      	sbcs	r0, r3
20000eba:	2301      	movs	r3, #1
20000ebc:	0064      	lsls	r4, r4, #1
20000ebe:	4058      	eors	r0, r3
20000ec0:	0001      	movs	r1, r0
20000ec2:	0864      	lsrs	r4, r4, #1
20000ec4:	4681      	mov	r9, r0
20000ec6:	48dc      	ldr	r0, [pc, #880]	; (20001238 <dbl_to_mem+0x3a0>)
20000ec8:	f006 fe2c 	bl	20007b24 <__wrap_printf>
20000ecc:	0028      	movs	r0, r5
20000ece:	0021      	movs	r1, r4
20000ed0:	f005 fdaa 	bl	20006a28 <__wrap_log10>
20000ed4:	f005 fd02 	bl	200068dc <__wrap_floor>
20000ed8:	000f      	movs	r7, r1
20000eda:	0006      	movs	r6, r0
20000edc:	0002      	movs	r2, r0
20000ede:	000b      	movs	r3, r1
20000ee0:	48d6      	ldr	r0, [pc, #856]	; (2000123c <dbl_to_mem+0x3a4>)
20000ee2:	f006 fe1f 	bl	20007b24 <__wrap_printf>
20000ee6:	0032      	movs	r2, r6
20000ee8:	003b      	movs	r3, r7
20000eea:	2000      	movs	r0, #0
20000eec:	49d4      	ldr	r1, [pc, #848]	; (20001240 <dbl_to_mem+0x3a8>)
20000eee:	9602      	str	r6, [sp, #8]
20000ef0:	9703      	str	r7, [sp, #12]
20000ef2:	f005 fda5 	bl	20006a40 <__wrap_pow>
20000ef6:	0002      	movs	r2, r0
20000ef8:	000b      	movs	r3, r1
20000efa:	0028      	movs	r0, r5
20000efc:	0021      	movs	r1, r4
20000efe:	f005 f88a 	bl	20006016 <__wrap___aeabi_ddiv>
20000f02:	9c02      	ldr	r4, [sp, #8]
20000f04:	9d03      	ldr	r5, [sp, #12]
20000f06:	0006      	movs	r6, r0
20000f08:	000f      	movs	r7, r1
20000f0a:	2200      	movs	r2, #0
20000f0c:	2300      	movs	r3, #0
20000f0e:	0020      	movs	r0, r4
20000f10:	0029      	movs	r1, r5
20000f12:	f005 f8e9 	bl	200060e8 <__wrap___aeabi_dcmplt>
20000f16:	2800      	cmp	r0, #0
20000f18:	d00b      	beq.n	20000f32 <dbl_to_mem+0x9a>
20000f1a:	2304      	movs	r3, #4
20000f1c:	464a      	mov	r2, r9
20000f1e:	431a      	orrs	r2, r3
20000f20:	4691      	mov	r9, r2
20000f22:	0020      	movs	r0, r4
20000f24:	2200      	movs	r2, #0
20000f26:	0029      	movs	r1, r5
20000f28:	4bc6      	ldr	r3, [pc, #792]	; (20001244 <dbl_to_mem+0x3ac>)
20000f2a:	f005 f86b 	bl	20006004 <__wrap___aeabi_dadd>
20000f2e:	9002      	str	r0, [sp, #8]
20000f30:	9103      	str	r1, [sp, #12]
20000f32:	4649      	mov	r1, r9
20000f34:	48c4      	ldr	r0, [pc, #784]	; (20001248 <dbl_to_mem+0x3b0>)
20000f36:	f006 fdf5 	bl	20007b24 <__wrap_printf>
20000f3a:	0030      	movs	r0, r6
20000f3c:	0039      	movs	r1, r7
20000f3e:	f005 fccd 	bl	200068dc <__wrap_floor>
20000f42:	4bbf      	ldr	r3, [pc, #764]	; (20001240 <dbl_to_mem+0x3a8>)
20000f44:	2200      	movs	r2, #0
20000f46:	0004      	movs	r4, r0
20000f48:	000d      	movs	r5, r1
20000f4a:	f005 f864 	bl	20006016 <__wrap___aeabi_ddiv>
20000f4e:	aa08      	add	r2, sp, #32
20000f50:	f009 fc1a 	bl	2000a788 <modf>
20000f54:	2200      	movs	r2, #0
20000f56:	4bbd      	ldr	r3, [pc, #756]	; (2000124c <dbl_to_mem+0x3b4>)
20000f58:	9004      	str	r0, [sp, #16]
20000f5a:	9105      	str	r1, [sp, #20]
20000f5c:	9808      	ldr	r0, [sp, #32]
20000f5e:	9909      	ldr	r1, [sp, #36]	; 0x24
20000f60:	f005 f877 	bl	20006052 <__wrap___aeabi_dmul>
20000f64:	f005 f906 	bl	20006174 <__wrap___aeabi_d2iz>
20000f68:	f005 f8ec 	bl	20006144 <__wrap___aeabi_i2d>
20000f6c:	2200      	movs	r2, #0
20000f6e:	9006      	str	r0, [sp, #24]
20000f70:	9107      	str	r1, [sp, #28]
20000f72:	9804      	ldr	r0, [sp, #16]
20000f74:	9905      	ldr	r1, [sp, #20]
20000f76:	4bb2      	ldr	r3, [pc, #712]	; (20001240 <dbl_to_mem+0x3a8>)
20000f78:	f005 f86b 	bl	20006052 <__wrap___aeabi_dmul>
20000f7c:	0002      	movs	r2, r0
20000f7e:	000b      	movs	r3, r1
20000f80:	9806      	ldr	r0, [sp, #24]
20000f82:	9907      	ldr	r1, [sp, #28]
20000f84:	f005 f83e 	bl	20006004 <__wrap___aeabi_dadd>
20000f88:	f005 f8f4 	bl	20006174 <__wrap___aeabi_d2iz>
20000f8c:	4643      	mov	r3, r8
20000f8e:	0022      	movs	r2, r4
20000f90:	7158      	strb	r0, [r3, #5]
20000f92:	0039      	movs	r1, r7
20000f94:	002b      	movs	r3, r5
20000f96:	0030      	movs	r0, r6
20000f98:	f005 f82b 	bl	20005ff2 <__wrap___aeabi_dsub>
20000f9c:	2200      	movs	r2, #0
20000f9e:	4ba9      	ldr	r3, [pc, #676]	; (20001244 <dbl_to_mem+0x3ac>)
20000fa0:	f005 f857 	bl	20006052 <__wrap___aeabi_dmul>
20000fa4:	4baa      	ldr	r3, [pc, #680]	; (20001250 <dbl_to_mem+0x3b8>)
20000fa6:	0006      	movs	r6, r0
20000fa8:	469a      	mov	sl, r3
20000faa:	000f      	movs	r7, r1
20000fac:	0022      	movs	r2, r4
20000fae:	002b      	movs	r3, r5
20000fb0:	9000      	str	r0, [sp, #0]
20000fb2:	9101      	str	r1, [sp, #4]
20000fb4:	4650      	mov	r0, sl
20000fb6:	f006 fdb5 	bl	20007b24 <__wrap_printf>
20000fba:	0030      	movs	r0, r6
20000fbc:	0039      	movs	r1, r7
20000fbe:	9606      	str	r6, [sp, #24]
20000fc0:	9707      	str	r7, [sp, #28]
20000fc2:	f005 fc8b 	bl	200068dc <__wrap_floor>
20000fc6:	4b9e      	ldr	r3, [pc, #632]	; (20001240 <dbl_to_mem+0x3a8>)
20000fc8:	2200      	movs	r2, #0
20000fca:	0006      	movs	r6, r0
20000fcc:	000f      	movs	r7, r1
20000fce:	f005 f822 	bl	20006016 <__wrap___aeabi_ddiv>
20000fd2:	aa08      	add	r2, sp, #32
20000fd4:	f009 fbd8 	bl	2000a788 <modf>
20000fd8:	2200      	movs	r2, #0
20000fda:	4b9c      	ldr	r3, [pc, #624]	; (2000124c <dbl_to_mem+0x3b4>)
20000fdc:	9004      	str	r0, [sp, #16]
20000fde:	9105      	str	r1, [sp, #20]
20000fe0:	9808      	ldr	r0, [sp, #32]
20000fe2:	9909      	ldr	r1, [sp, #36]	; 0x24
20000fe4:	f005 f835 	bl	20006052 <__wrap___aeabi_dmul>
20000fe8:	f005 f8c4 	bl	20006174 <__wrap___aeabi_d2iz>
20000fec:	f005 f8aa 	bl	20006144 <__wrap___aeabi_i2d>
20000ff0:	2200      	movs	r2, #0
20000ff2:	0004      	movs	r4, r0
20000ff4:	000d      	movs	r5, r1
20000ff6:	9804      	ldr	r0, [sp, #16]
20000ff8:	9905      	ldr	r1, [sp, #20]
20000ffa:	4b91      	ldr	r3, [pc, #580]	; (20001240 <dbl_to_mem+0x3a8>)
20000ffc:	f005 f829 	bl	20006052 <__wrap___aeabi_dmul>
20001000:	0002      	movs	r2, r0
20001002:	000b      	movs	r3, r1
20001004:	0020      	movs	r0, r4
20001006:	0029      	movs	r1, r5
20001008:	f004 fffc 	bl	20006004 <__wrap___aeabi_dadd>
2000100c:	f005 f8b2 	bl	20006174 <__wrap___aeabi_d2iz>
20001010:	4643      	mov	r3, r8
20001012:	0032      	movs	r2, r6
20001014:	7118      	strb	r0, [r3, #4]
20001016:	003b      	movs	r3, r7
20001018:	9806      	ldr	r0, [sp, #24]
2000101a:	9907      	ldr	r1, [sp, #28]
2000101c:	f004 ffe9 	bl	20005ff2 <__wrap___aeabi_dsub>
20001020:	2200      	movs	r2, #0
20001022:	4b88      	ldr	r3, [pc, #544]	; (20001244 <dbl_to_mem+0x3ac>)
20001024:	f005 f815 	bl	20006052 <__wrap___aeabi_dmul>
20001028:	0004      	movs	r4, r0
2000102a:	000d      	movs	r5, r1
2000102c:	0032      	movs	r2, r6
2000102e:	003b      	movs	r3, r7
20001030:	9400      	str	r4, [sp, #0]
20001032:	9501      	str	r5, [sp, #4]
20001034:	4650      	mov	r0, sl
20001036:	f006 fd75 	bl	20007b24 <__wrap_printf>
2000103a:	0020      	movs	r0, r4
2000103c:	0029      	movs	r1, r5
2000103e:	f005 fc4d 	bl	200068dc <__wrap_floor>
20001042:	4b7f      	ldr	r3, [pc, #508]	; (20001240 <dbl_to_mem+0x3a8>)
20001044:	2200      	movs	r2, #0
20001046:	0006      	movs	r6, r0
20001048:	000f      	movs	r7, r1
2000104a:	f004 ffe4 	bl	20006016 <__wrap___aeabi_ddiv>
2000104e:	aa08      	add	r2, sp, #32
20001050:	f009 fb9a 	bl	2000a788 <modf>
20001054:	2200      	movs	r2, #0
20001056:	4b7d      	ldr	r3, [pc, #500]	; (2000124c <dbl_to_mem+0x3b4>)
20001058:	9004      	str	r0, [sp, #16]
2000105a:	9105      	str	r1, [sp, #20]
2000105c:	9808      	ldr	r0, [sp, #32]
2000105e:	9909      	ldr	r1, [sp, #36]	; 0x24
20001060:	f004 fff7 	bl	20006052 <__wrap___aeabi_dmul>
20001064:	f005 f886 	bl	20006174 <__wrap___aeabi_d2iz>
20001068:	f005 f86c 	bl	20006144 <__wrap___aeabi_i2d>
2000106c:	2200      	movs	r2, #0
2000106e:	9006      	str	r0, [sp, #24]
20001070:	9107      	str	r1, [sp, #28]
20001072:	9804      	ldr	r0, [sp, #16]
20001074:	9905      	ldr	r1, [sp, #20]
20001076:	4b72      	ldr	r3, [pc, #456]	; (20001240 <dbl_to_mem+0x3a8>)
20001078:	f004 ffeb 	bl	20006052 <__wrap___aeabi_dmul>
2000107c:	0002      	movs	r2, r0
2000107e:	000b      	movs	r3, r1
20001080:	9806      	ldr	r0, [sp, #24]
20001082:	9907      	ldr	r1, [sp, #28]
20001084:	f004 ffbe 	bl	20006004 <__wrap___aeabi_dadd>
20001088:	f005 f874 	bl	20006174 <__wrap___aeabi_d2iz>
2000108c:	4643      	mov	r3, r8
2000108e:	0032      	movs	r2, r6
20001090:	70d8      	strb	r0, [r3, #3]
20001092:	0029      	movs	r1, r5
20001094:	003b      	movs	r3, r7
20001096:	0020      	movs	r0, r4
20001098:	f004 ffab 	bl	20005ff2 <__wrap___aeabi_dsub>
2000109c:	2200      	movs	r2, #0
2000109e:	4b69      	ldr	r3, [pc, #420]	; (20001244 <dbl_to_mem+0x3ac>)
200010a0:	f004 ffd7 	bl	20006052 <__wrap___aeabi_dmul>
200010a4:	0004      	movs	r4, r0
200010a6:	000d      	movs	r5, r1
200010a8:	0032      	movs	r2, r6
200010aa:	003b      	movs	r3, r7
200010ac:	9400      	str	r4, [sp, #0]
200010ae:	9501      	str	r5, [sp, #4]
200010b0:	4650      	mov	r0, sl
200010b2:	f006 fd37 	bl	20007b24 <__wrap_printf>
200010b6:	0020      	movs	r0, r4
200010b8:	0029      	movs	r1, r5
200010ba:	f005 fc0f 	bl	200068dc <__wrap_floor>
200010be:	4b60      	ldr	r3, [pc, #384]	; (20001240 <dbl_to_mem+0x3a8>)
200010c0:	2200      	movs	r2, #0
200010c2:	0006      	movs	r6, r0
200010c4:	000f      	movs	r7, r1
200010c6:	f004 ffa6 	bl	20006016 <__wrap___aeabi_ddiv>
200010ca:	aa08      	add	r2, sp, #32
200010cc:	f009 fb5c 	bl	2000a788 <modf>
200010d0:	2200      	movs	r2, #0
200010d2:	4b5e      	ldr	r3, [pc, #376]	; (2000124c <dbl_to_mem+0x3b4>)
200010d4:	9004      	str	r0, [sp, #16]
200010d6:	9105      	str	r1, [sp, #20]
200010d8:	9808      	ldr	r0, [sp, #32]
200010da:	9909      	ldr	r1, [sp, #36]	; 0x24
200010dc:	f004 ffb9 	bl	20006052 <__wrap___aeabi_dmul>
200010e0:	f005 f848 	bl	20006174 <__wrap___aeabi_d2iz>
200010e4:	f005 f82e 	bl	20006144 <__wrap___aeabi_i2d>
200010e8:	2200      	movs	r2, #0
200010ea:	9006      	str	r0, [sp, #24]
200010ec:	9107      	str	r1, [sp, #28]
200010ee:	9804      	ldr	r0, [sp, #16]
200010f0:	9905      	ldr	r1, [sp, #20]
200010f2:	4b53      	ldr	r3, [pc, #332]	; (20001240 <dbl_to_mem+0x3a8>)
200010f4:	f004 ffad 	bl	20006052 <__wrap___aeabi_dmul>
200010f8:	0002      	movs	r2, r0
200010fa:	000b      	movs	r3, r1
200010fc:	9806      	ldr	r0, [sp, #24]
200010fe:	9907      	ldr	r1, [sp, #28]
20001100:	f004 ff80 	bl	20006004 <__wrap___aeabi_dadd>
20001104:	f005 f836 	bl	20006174 <__wrap___aeabi_d2iz>
20001108:	4643      	mov	r3, r8
2000110a:	0032      	movs	r2, r6
2000110c:	7098      	strb	r0, [r3, #2]
2000110e:	0029      	movs	r1, r5
20001110:	003b      	movs	r3, r7
20001112:	0020      	movs	r0, r4
20001114:	f004 ff6d 	bl	20005ff2 <__wrap___aeabi_dsub>
20001118:	2200      	movs	r2, #0
2000111a:	4b4a      	ldr	r3, [pc, #296]	; (20001244 <dbl_to_mem+0x3ac>)
2000111c:	f004 ff99 	bl	20006052 <__wrap___aeabi_dmul>
20001120:	0004      	movs	r4, r0
20001122:	000d      	movs	r5, r1
20001124:	f005 fbda 	bl	200068dc <__wrap_floor>
20001128:	4b45      	ldr	r3, [pc, #276]	; (20001240 <dbl_to_mem+0x3a8>)
2000112a:	2200      	movs	r2, #0
2000112c:	0006      	movs	r6, r0
2000112e:	000f      	movs	r7, r1
20001130:	f004 ff71 	bl	20006016 <__wrap___aeabi_ddiv>
20001134:	aa08      	add	r2, sp, #32
20001136:	f009 fb27 	bl	2000a788 <modf>
2000113a:	2200      	movs	r2, #0
2000113c:	4b43      	ldr	r3, [pc, #268]	; (2000124c <dbl_to_mem+0x3b4>)
2000113e:	9004      	str	r0, [sp, #16]
20001140:	9105      	str	r1, [sp, #20]
20001142:	9808      	ldr	r0, [sp, #32]
20001144:	9909      	ldr	r1, [sp, #36]	; 0x24
20001146:	f004 ff84 	bl	20006052 <__wrap___aeabi_dmul>
2000114a:	f005 f813 	bl	20006174 <__wrap___aeabi_d2iz>
2000114e:	f004 fff9 	bl	20006144 <__wrap___aeabi_i2d>
20001152:	2200      	movs	r2, #0
20001154:	9006      	str	r0, [sp, #24]
20001156:	9107      	str	r1, [sp, #28]
20001158:	9804      	ldr	r0, [sp, #16]
2000115a:	9905      	ldr	r1, [sp, #20]
2000115c:	4b38      	ldr	r3, [pc, #224]	; (20001240 <dbl_to_mem+0x3a8>)
2000115e:	f004 ff78 	bl	20006052 <__wrap___aeabi_dmul>
20001162:	0002      	movs	r2, r0
20001164:	000b      	movs	r3, r1
20001166:	9806      	ldr	r0, [sp, #24]
20001168:	9907      	ldr	r1, [sp, #28]
2000116a:	f004 ff4b 	bl	20006004 <__wrap___aeabi_dadd>
2000116e:	f005 f801 	bl	20006174 <__wrap___aeabi_d2iz>
20001172:	4643      	mov	r3, r8
20001174:	0032      	movs	r2, r6
20001176:	7058      	strb	r0, [r3, #1]
20001178:	0029      	movs	r1, r5
2000117a:	003b      	movs	r3, r7
2000117c:	0020      	movs	r0, r4
2000117e:	f004 ff38 	bl	20005ff2 <__wrap___aeabi_dsub>
20001182:	2200      	movs	r2, #0
20001184:	4b2f      	ldr	r3, [pc, #188]	; (20001244 <dbl_to_mem+0x3ac>)
20001186:	f004 ff64 	bl	20006052 <__wrap___aeabi_dmul>
2000118a:	f005 fba7 	bl	200068dc <__wrap_floor>
2000118e:	4b2c      	ldr	r3, [pc, #176]	; (20001240 <dbl_to_mem+0x3a8>)
20001190:	2200      	movs	r2, #0
20001192:	f004 ff40 	bl	20006016 <__wrap___aeabi_ddiv>
20001196:	aa08      	add	r2, sp, #32
20001198:	f009 faf6 	bl	2000a788 <modf>
2000119c:	2200      	movs	r2, #0
2000119e:	4b2b      	ldr	r3, [pc, #172]	; (2000124c <dbl_to_mem+0x3b4>)
200011a0:	0004      	movs	r4, r0
200011a2:	000d      	movs	r5, r1
200011a4:	9808      	ldr	r0, [sp, #32]
200011a6:	9909      	ldr	r1, [sp, #36]	; 0x24
200011a8:	f004 ff53 	bl	20006052 <__wrap___aeabi_dmul>
200011ac:	f004 ffe2 	bl	20006174 <__wrap___aeabi_d2iz>
200011b0:	f004 ffc8 	bl	20006144 <__wrap___aeabi_i2d>
200011b4:	2200      	movs	r2, #0
200011b6:	0006      	movs	r6, r0
200011b8:	000f      	movs	r7, r1
200011ba:	0020      	movs	r0, r4
200011bc:	0029      	movs	r1, r5
200011be:	4b20      	ldr	r3, [pc, #128]	; (20001240 <dbl_to_mem+0x3a8>)
200011c0:	f004 ff47 	bl	20006052 <__wrap___aeabi_dmul>
200011c4:	0002      	movs	r2, r0
200011c6:	000b      	movs	r3, r1
200011c8:	0030      	movs	r0, r6
200011ca:	0039      	movs	r1, r7
200011cc:	f004 ff1a 	bl	20006004 <__wrap___aeabi_dadd>
200011d0:	f004 ffd0 	bl	20006174 <__wrap___aeabi_d2iz>
200011d4:	4643      	mov	r3, r8
200011d6:	2200      	movs	r2, #0
200011d8:	7018      	strb	r0, [r3, #0]
200011da:	4b19      	ldr	r3, [pc, #100]	; (20001240 <dbl_to_mem+0x3a8>)
200011dc:	9802      	ldr	r0, [sp, #8]
200011de:	9903      	ldr	r1, [sp, #12]
200011e0:	f004 ff19 	bl	20006016 <__wrap___aeabi_ddiv>
200011e4:	aa08      	add	r2, sp, #32
200011e6:	f009 facf 	bl	2000a788 <modf>
200011ea:	2200      	movs	r2, #0
200011ec:	4b17      	ldr	r3, [pc, #92]	; (2000124c <dbl_to_mem+0x3b4>)
200011ee:	0004      	movs	r4, r0
200011f0:	000d      	movs	r5, r1
200011f2:	9808      	ldr	r0, [sp, #32]
200011f4:	9909      	ldr	r1, [sp, #36]	; 0x24
200011f6:	f004 ff2c 	bl	20006052 <__wrap___aeabi_dmul>
200011fa:	f004 ffbb 	bl	20006174 <__wrap___aeabi_d2iz>
200011fe:	f004 ffa1 	bl	20006144 <__wrap___aeabi_i2d>
20001202:	2200      	movs	r2, #0
20001204:	0006      	movs	r6, r0
20001206:	000f      	movs	r7, r1
20001208:	0020      	movs	r0, r4
2000120a:	0029      	movs	r1, r5
2000120c:	4b0c      	ldr	r3, [pc, #48]	; (20001240 <dbl_to_mem+0x3a8>)
2000120e:	f004 ff20 	bl	20006052 <__wrap___aeabi_dmul>
20001212:	0002      	movs	r2, r0
20001214:	000b      	movs	r3, r1
20001216:	0030      	movs	r0, r6
20001218:	0039      	movs	r1, r7
2000121a:	f004 fef3 	bl	20006004 <__wrap___aeabi_dadd>
2000121e:	f004 ffa9 	bl	20006174 <__wrap___aeabi_d2iz>
20001222:	4643      	mov	r3, r8
20001224:	464a      	mov	r2, r9
20001226:	7198      	strb	r0, [r3, #6]
20001228:	71da      	strb	r2, [r3, #7]
2000122a:	b00a      	add	sp, #40	; 0x28
2000122c:	bc1c      	pop	{r2, r3, r4}
2000122e:	4690      	mov	r8, r2
20001230:	4699      	mov	r9, r3
20001232:	46a2      	mov	sl, r4
20001234:	bdf0      	pop	{r4, r5, r6, r7, pc}
20001236:	46c0      	nop			; (mov r8, r8)
20001238:	2000b324 	.word	0x2000b324
2000123c:	2000b330 	.word	0x2000b330
20001240:	40240000 	.word	0x40240000
20001244:	40590000 	.word	0x40590000
20001248:	2000b340 	.word	0x2000b340
2000124c:	40300000 	.word	0x40300000
20001250:	2000b350 	.word	0x2000b350

20001254 <mem_to_str>:
20001254:	b5f0      	push	{r4, r5, r6, r7, lr}
20001256:	46d6      	mov	lr, sl
20001258:	4646      	mov	r6, r8
2000125a:	464f      	mov	r7, r9
2000125c:	2320      	movs	r3, #32
2000125e:	b5c0      	push	{r6, r7, lr}
20001260:	b094      	sub	sp, #80	; 0x50
20001262:	aa0a      	add	r2, sp, #40	; 0x28
20001264:	ac13      	add	r4, sp, #76	; 0x4c
20001266:	8413      	strh	r3, [r2, #32]
20001268:	8023      	strh	r3, [r4, #0]
2000126a:	7983      	ldrb	r3, [r0, #6]
2000126c:	0005      	movs	r5, r0
2000126e:	0918      	lsrs	r0, r3, #4
20001270:	4698      	mov	r8, r3
20001272:	f004 ff67 	bl	20006144 <__wrap___aeabi_i2d>
20001276:	2200      	movs	r2, #0
20001278:	4b76      	ldr	r3, [pc, #472]	; (20001454 <mem_to_str+0x200>)
2000127a:	f004 feea 	bl	20006052 <__wrap___aeabi_dmul>
2000127e:	4643      	mov	r3, r8
20001280:	0006      	movs	r6, r0
20001282:	200f      	movs	r0, #15
20001284:	4018      	ands	r0, r3
20001286:	000f      	movs	r7, r1
20001288:	f004 ff5c 	bl	20006144 <__wrap___aeabi_i2d>
2000128c:	0002      	movs	r2, r0
2000128e:	000b      	movs	r3, r1
20001290:	0030      	movs	r0, r6
20001292:	0039      	movs	r1, r7
20001294:	f004 feb6 	bl	20006004 <__wrap___aeabi_dadd>
20001298:	f004 ff6c 	bl	20006174 <__wrap___aeabi_d2iz>
2000129c:	2101      	movs	r1, #1
2000129e:	79ea      	ldrb	r2, [r5, #7]
200012a0:	4680      	mov	r8, r0
200012a2:	1093      	asrs	r3, r2, #2
200012a4:	400b      	ands	r3, r1
200012a6:	4211      	tst	r1, r2
200012a8:	d100      	bne.n	200012ac <mem_to_str+0x58>
200012aa:	e0cd      	b.n	20001448 <mem_to_str+0x1f4>
200012ac:	2220      	movs	r2, #32
200012ae:	7022      	strb	r2, [r4, #0]
200012b0:	220c      	movs	r2, #12
200012b2:	2120      	movs	r1, #32
200012b4:	3b01      	subs	r3, #1
200012b6:	4393      	bics	r3, r2
200012b8:	aa0a      	add	r2, sp, #40	; 0x28
200012ba:	1852      	adds	r2, r2, r1
200012bc:	332d      	adds	r3, #45	; 0x2d
200012be:	7013      	strb	r3, [r2, #0]
200012c0:	796b      	ldrb	r3, [r5, #5]
200012c2:	0918      	lsrs	r0, r3, #4
200012c4:	469a      	mov	sl, r3
200012c6:	f004 ff3d 	bl	20006144 <__wrap___aeabi_i2d>
200012ca:	2200      	movs	r2, #0
200012cc:	4b61      	ldr	r3, [pc, #388]	; (20001454 <mem_to_str+0x200>)
200012ce:	f004 fec0 	bl	20006052 <__wrap___aeabi_dmul>
200012d2:	230f      	movs	r3, #15
200012d4:	0006      	movs	r6, r0
200012d6:	4650      	mov	r0, sl
200012d8:	4018      	ands	r0, r3
200012da:	4699      	mov	r9, r3
200012dc:	000f      	movs	r7, r1
200012de:	f004 ff31 	bl	20006144 <__wrap___aeabi_i2d>
200012e2:	0002      	movs	r2, r0
200012e4:	000b      	movs	r3, r1
200012e6:	0030      	movs	r0, r6
200012e8:	0039      	movs	r1, r7
200012ea:	f004 fe8b 	bl	20006004 <__wrap___aeabi_dadd>
200012ee:	792b      	ldrb	r3, [r5, #4]
200012f0:	9008      	str	r0, [sp, #32]
200012f2:	9109      	str	r1, [sp, #36]	; 0x24
200012f4:	469a      	mov	sl, r3
200012f6:	0918      	lsrs	r0, r3, #4
200012f8:	f004 ff24 	bl	20006144 <__wrap___aeabi_i2d>
200012fc:	2200      	movs	r2, #0
200012fe:	4b55      	ldr	r3, [pc, #340]	; (20001454 <mem_to_str+0x200>)
20001300:	f004 fea7 	bl	20006052 <__wrap___aeabi_dmul>
20001304:	464a      	mov	r2, r9
20001306:	4653      	mov	r3, sl
20001308:	4013      	ands	r3, r2
2000130a:	0006      	movs	r6, r0
2000130c:	0018      	movs	r0, r3
2000130e:	000f      	movs	r7, r1
20001310:	f004 ff18 	bl	20006144 <__wrap___aeabi_i2d>
20001314:	0002      	movs	r2, r0
20001316:	000b      	movs	r3, r1
20001318:	0030      	movs	r0, r6
2000131a:	0039      	movs	r1, r7
2000131c:	f004 fe72 	bl	20006004 <__wrap___aeabi_dadd>
20001320:	78eb      	ldrb	r3, [r5, #3]
20001322:	900a      	str	r0, [sp, #40]	; 0x28
20001324:	910b      	str	r1, [sp, #44]	; 0x2c
20001326:	469a      	mov	sl, r3
20001328:	0918      	lsrs	r0, r3, #4
2000132a:	f004 ff0b 	bl	20006144 <__wrap___aeabi_i2d>
2000132e:	2200      	movs	r2, #0
20001330:	4b48      	ldr	r3, [pc, #288]	; (20001454 <mem_to_str+0x200>)
20001332:	f004 fe8e 	bl	20006052 <__wrap___aeabi_dmul>
20001336:	464a      	mov	r2, r9
20001338:	4653      	mov	r3, sl
2000133a:	4013      	ands	r3, r2
2000133c:	0006      	movs	r6, r0
2000133e:	0018      	movs	r0, r3
20001340:	000f      	movs	r7, r1
20001342:	f004 feff 	bl	20006144 <__wrap___aeabi_i2d>
20001346:	0002      	movs	r2, r0
20001348:	000b      	movs	r3, r1
2000134a:	0030      	movs	r0, r6
2000134c:	0039      	movs	r1, r7
2000134e:	f004 fe59 	bl	20006004 <__wrap___aeabi_dadd>
20001352:	78ab      	ldrb	r3, [r5, #2]
20001354:	900c      	str	r0, [sp, #48]	; 0x30
20001356:	910d      	str	r1, [sp, #52]	; 0x34
20001358:	469a      	mov	sl, r3
2000135a:	0918      	lsrs	r0, r3, #4
2000135c:	f004 fef2 	bl	20006144 <__wrap___aeabi_i2d>
20001360:	2200      	movs	r2, #0
20001362:	4b3c      	ldr	r3, [pc, #240]	; (20001454 <mem_to_str+0x200>)
20001364:	f004 fe75 	bl	20006052 <__wrap___aeabi_dmul>
20001368:	464a      	mov	r2, r9
2000136a:	4653      	mov	r3, sl
2000136c:	4013      	ands	r3, r2
2000136e:	0006      	movs	r6, r0
20001370:	0018      	movs	r0, r3
20001372:	000f      	movs	r7, r1
20001374:	f004 fee6 	bl	20006144 <__wrap___aeabi_i2d>
20001378:	0002      	movs	r2, r0
2000137a:	000b      	movs	r3, r1
2000137c:	0030      	movs	r0, r6
2000137e:	0039      	movs	r1, r7
20001380:	f004 fe40 	bl	20006004 <__wrap___aeabi_dadd>
20001384:	786b      	ldrb	r3, [r5, #1]
20001386:	900e      	str	r0, [sp, #56]	; 0x38
20001388:	910f      	str	r1, [sp, #60]	; 0x3c
2000138a:	469a      	mov	sl, r3
2000138c:	0918      	lsrs	r0, r3, #4
2000138e:	f004 fed9 	bl	20006144 <__wrap___aeabi_i2d>
20001392:	2200      	movs	r2, #0
20001394:	4b2f      	ldr	r3, [pc, #188]	; (20001454 <mem_to_str+0x200>)
20001396:	f004 fe5c 	bl	20006052 <__wrap___aeabi_dmul>
2000139a:	464a      	mov	r2, r9
2000139c:	4653      	mov	r3, sl
2000139e:	4013      	ands	r3, r2
200013a0:	0006      	movs	r6, r0
200013a2:	0018      	movs	r0, r3
200013a4:	000f      	movs	r7, r1
200013a6:	f004 fecd 	bl	20006144 <__wrap___aeabi_i2d>
200013aa:	0002      	movs	r2, r0
200013ac:	000b      	movs	r3, r1
200013ae:	0030      	movs	r0, r6
200013b0:	0039      	movs	r1, r7
200013b2:	f004 fe27 	bl	20006004 <__wrap___aeabi_dadd>
200013b6:	782d      	ldrb	r5, [r5, #0]
200013b8:	9010      	str	r0, [sp, #64]	; 0x40
200013ba:	9111      	str	r1, [sp, #68]	; 0x44
200013bc:	0928      	lsrs	r0, r5, #4
200013be:	f004 fec1 	bl	20006144 <__wrap___aeabi_i2d>
200013c2:	2200      	movs	r2, #0
200013c4:	4b23      	ldr	r3, [pc, #140]	; (20001454 <mem_to_str+0x200>)
200013c6:	f004 fe44 	bl	20006052 <__wrap___aeabi_dmul>
200013ca:	464b      	mov	r3, r9
200013cc:	402b      	ands	r3, r5
200013ce:	0006      	movs	r6, r0
200013d0:	0018      	movs	r0, r3
200013d2:	000f      	movs	r7, r1
200013d4:	f004 feb6 	bl	20006144 <__wrap___aeabi_i2d>
200013d8:	0002      	movs	r2, r0
200013da:	000b      	movs	r3, r1
200013dc:	0030      	movs	r0, r6
200013de:	0039      	movs	r1, r7
200013e0:	f004 fe10 	bl	20006004 <__wrap___aeabi_dadd>
200013e4:	0006      	movs	r6, r0
200013e6:	000f      	movs	r7, r1
200013e8:	9808      	ldr	r0, [sp, #32]
200013ea:	9909      	ldr	r1, [sp, #36]	; 0x24
200013ec:	f004 fec2 	bl	20006174 <__wrap___aeabi_d2iz>
200013f0:	4b19      	ldr	r3, [pc, #100]	; (20001458 <mem_to_str+0x204>)
200013f2:	0005      	movs	r5, r0
200013f4:	4699      	mov	r9, r3
200013f6:	4643      	mov	r3, r8
200013f8:	0039      	movs	r1, r7
200013fa:	0030      	movs	r0, r6
200013fc:	9306      	str	r3, [sp, #24]
200013fe:	9405      	str	r4, [sp, #20]
20001400:	f004 feb8 	bl	20006174 <__wrap___aeabi_d2iz>
20001404:	9004      	str	r0, [sp, #16]
20001406:	9810      	ldr	r0, [sp, #64]	; 0x40
20001408:	9911      	ldr	r1, [sp, #68]	; 0x44
2000140a:	f004 feb3 	bl	20006174 <__wrap___aeabi_d2iz>
2000140e:	9003      	str	r0, [sp, #12]
20001410:	980e      	ldr	r0, [sp, #56]	; 0x38
20001412:	990f      	ldr	r1, [sp, #60]	; 0x3c
20001414:	f004 feae 	bl	20006174 <__wrap___aeabi_d2iz>
20001418:	9002      	str	r0, [sp, #8]
2000141a:	980c      	ldr	r0, [sp, #48]	; 0x30
2000141c:	990d      	ldr	r1, [sp, #52]	; 0x34
2000141e:	f004 fea9 	bl	20006174 <__wrap___aeabi_d2iz>
20001422:	9001      	str	r0, [sp, #4]
20001424:	980a      	ldr	r0, [sp, #40]	; 0x28
20001426:	990b      	ldr	r1, [sp, #44]	; 0x2c
20001428:	f004 fea4 	bl	20006174 <__wrap___aeabi_d2iz>
2000142c:	002b      	movs	r3, r5
2000142e:	9000      	str	r0, [sp, #0]
20001430:	490a      	ldr	r1, [pc, #40]	; (2000145c <mem_to_str+0x208>)
20001432:	4648      	mov	r0, r9
20001434:	aa12      	add	r2, sp, #72	; 0x48
20001436:	f004 faff 	bl	20005a38 <__wrap_sprintf>
2000143a:	4648      	mov	r0, r9
2000143c:	b014      	add	sp, #80	; 0x50
2000143e:	bc1c      	pop	{r2, r3, r4}
20001440:	4690      	mov	r8, r2
20001442:	4699      	mov	r9, r3
20001444:	46a2      	mov	sl, r4
20001446:	bdf0      	pop	{r4, r5, r6, r7, pc}
20001448:	2264      	movs	r2, #100	; 0x64
2000144a:	1a12      	subs	r2, r2, r0
2000144c:	4690      	mov	r8, r2
2000144e:	222d      	movs	r2, #45	; 0x2d
20001450:	e72d      	b.n	200012ae <mem_to_str+0x5a>
20001452:	46c0      	nop			; (mov r8, r8)
20001454:	40240000 	.word	0x40240000
20001458:	2000dfcc 	.word	0x2000dfcc
2000145c:	2000b364 	.word	0x2000b364

20001460 <mem_to_dbl>:
20001460:	b5f0      	push	{r4, r5, r6, r7, lr}
20001462:	46de      	mov	lr, fp
20001464:	4645      	mov	r5, r8
20001466:	464e      	mov	r6, r9
20001468:	4657      	mov	r7, sl
2000146a:	b5e0      	push	{r5, r6, r7, lr}
2000146c:	4680      	mov	r8, r0
2000146e:	7986      	ldrb	r6, [r0, #6]
20001470:	200f      	movs	r0, #15
20001472:	b087      	sub	sp, #28
20001474:	4030      	ands	r0, r6
20001476:	f004 fe65 	bl	20006144 <__wrap___aeabi_i2d>
2000147a:	0004      	movs	r4, r0
2000147c:	000d      	movs	r5, r1
2000147e:	0930      	lsrs	r0, r6, #4
20001480:	f004 fe60 	bl	20006144 <__wrap___aeabi_i2d>
20001484:	2200      	movs	r2, #0
20001486:	4b7c      	ldr	r3, [pc, #496]	; (20001678 <mem_to_dbl+0x218>)
20001488:	f004 fde3 	bl	20006052 <__wrap___aeabi_dmul>
2000148c:	0022      	movs	r2, r4
2000148e:	002b      	movs	r3, r5
20001490:	f004 fdb8 	bl	20006004 <__wrap___aeabi_dadd>
20001494:	2201      	movs	r2, #1
20001496:	4643      	mov	r3, r8
20001498:	9004      	str	r0, [sp, #16]
2000149a:	9105      	str	r1, [sp, #20]
2000149c:	0011      	movs	r1, r2
2000149e:	79db      	ldrb	r3, [r3, #7]
200014a0:	4019      	ands	r1, r3
200014a2:	109b      	asrs	r3, r3, #2
200014a4:	9103      	str	r1, [sp, #12]
200014a6:	421a      	tst	r2, r3
200014a8:	d100      	bne.n	200014ac <mem_to_dbl+0x4c>
200014aa:	e0dd      	b.n	20001668 <mem_to_dbl+0x208>
200014ac:	2300      	movs	r3, #0
200014ae:	4c73      	ldr	r4, [pc, #460]	; (2000167c <mem_to_dbl+0x21c>)
200014b0:	9300      	str	r3, [sp, #0]
200014b2:	9401      	str	r4, [sp, #4]
200014b4:	4643      	mov	r3, r8
200014b6:	795b      	ldrb	r3, [r3, #5]
200014b8:	469a      	mov	sl, r3
200014ba:	230f      	movs	r3, #15
200014bc:	4650      	mov	r0, sl
200014be:	4018      	ands	r0, r3
200014c0:	4699      	mov	r9, r3
200014c2:	f004 fe3f 	bl	20006144 <__wrap___aeabi_i2d>
200014c6:	4643      	mov	r3, r8
200014c8:	0006      	movs	r6, r0
200014ca:	4648      	mov	r0, r9
200014cc:	791b      	ldrb	r3, [r3, #4]
200014ce:	000f      	movs	r7, r1
200014d0:	469b      	mov	fp, r3
200014d2:	4018      	ands	r0, r3
200014d4:	f004 fe36 	bl	20006144 <__wrap___aeabi_i2d>
200014d8:	465b      	mov	r3, fp
200014da:	0004      	movs	r4, r0
200014dc:	000d      	movs	r5, r1
200014de:	0918      	lsrs	r0, r3, #4
200014e0:	f004 fe30 	bl	20006144 <__wrap___aeabi_i2d>
200014e4:	2200      	movs	r2, #0
200014e6:	4b64      	ldr	r3, [pc, #400]	; (20001678 <mem_to_dbl+0x218>)
200014e8:	f004 fdb3 	bl	20006052 <__wrap___aeabi_dmul>
200014ec:	0022      	movs	r2, r4
200014ee:	002b      	movs	r3, r5
200014f0:	f004 fd88 	bl	20006004 <__wrap___aeabi_dadd>
200014f4:	4a62      	ldr	r2, [pc, #392]	; (20001680 <mem_to_dbl+0x220>)
200014f6:	4b63      	ldr	r3, [pc, #396]	; (20001684 <mem_to_dbl+0x224>)
200014f8:	f004 fdab 	bl	20006052 <__wrap___aeabi_dmul>
200014fc:	4653      	mov	r3, sl
200014fe:	0004      	movs	r4, r0
20001500:	0918      	lsrs	r0, r3, #4
20001502:	000d      	movs	r5, r1
20001504:	f004 fe1e 	bl	20006144 <__wrap___aeabi_i2d>
20001508:	2200      	movs	r2, #0
2000150a:	4b5b      	ldr	r3, [pc, #364]	; (20001678 <mem_to_dbl+0x218>)
2000150c:	f004 fda1 	bl	20006052 <__wrap___aeabi_dmul>
20001510:	0032      	movs	r2, r6
20001512:	003b      	movs	r3, r7
20001514:	f004 fd76 	bl	20006004 <__wrap___aeabi_dadd>
20001518:	0002      	movs	r2, r0
2000151a:	000b      	movs	r3, r1
2000151c:	0020      	movs	r0, r4
2000151e:	0029      	movs	r1, r5
20001520:	f004 fd70 	bl	20006004 <__wrap___aeabi_dadd>
20001524:	4643      	mov	r3, r8
20001526:	0006      	movs	r6, r0
20001528:	4648      	mov	r0, r9
2000152a:	78db      	ldrb	r3, [r3, #3]
2000152c:	000f      	movs	r7, r1
2000152e:	469a      	mov	sl, r3
20001530:	4018      	ands	r0, r3
20001532:	f004 fe07 	bl	20006144 <__wrap___aeabi_i2d>
20001536:	4653      	mov	r3, sl
20001538:	0004      	movs	r4, r0
2000153a:	000d      	movs	r5, r1
2000153c:	0918      	lsrs	r0, r3, #4
2000153e:	f004 fe01 	bl	20006144 <__wrap___aeabi_i2d>
20001542:	2200      	movs	r2, #0
20001544:	4b4c      	ldr	r3, [pc, #304]	; (20001678 <mem_to_dbl+0x218>)
20001546:	f004 fd84 	bl	20006052 <__wrap___aeabi_dmul>
2000154a:	0022      	movs	r2, r4
2000154c:	002b      	movs	r3, r5
2000154e:	f004 fd59 	bl	20006004 <__wrap___aeabi_dadd>
20001552:	4a4d      	ldr	r2, [pc, #308]	; (20001688 <mem_to_dbl+0x228>)
20001554:	4b4d      	ldr	r3, [pc, #308]	; (2000168c <mem_to_dbl+0x22c>)
20001556:	f004 fd7c 	bl	20006052 <__wrap___aeabi_dmul>
2000155a:	0032      	movs	r2, r6
2000155c:	003b      	movs	r3, r7
2000155e:	f004 fd51 	bl	20006004 <__wrap___aeabi_dadd>
20001562:	4643      	mov	r3, r8
20001564:	0006      	movs	r6, r0
20001566:	4648      	mov	r0, r9
20001568:	789b      	ldrb	r3, [r3, #2]
2000156a:	000f      	movs	r7, r1
2000156c:	469a      	mov	sl, r3
2000156e:	4018      	ands	r0, r3
20001570:	f004 fde8 	bl	20006144 <__wrap___aeabi_i2d>
20001574:	4653      	mov	r3, sl
20001576:	0004      	movs	r4, r0
20001578:	000d      	movs	r5, r1
2000157a:	0918      	lsrs	r0, r3, #4
2000157c:	f004 fde2 	bl	20006144 <__wrap___aeabi_i2d>
20001580:	2200      	movs	r2, #0
20001582:	4b3d      	ldr	r3, [pc, #244]	; (20001678 <mem_to_dbl+0x218>)
20001584:	f004 fd65 	bl	20006052 <__wrap___aeabi_dmul>
20001588:	0022      	movs	r2, r4
2000158a:	002b      	movs	r3, r5
2000158c:	f004 fd3a 	bl	20006004 <__wrap___aeabi_dadd>
20001590:	4a3f      	ldr	r2, [pc, #252]	; (20001690 <mem_to_dbl+0x230>)
20001592:	4b40      	ldr	r3, [pc, #256]	; (20001694 <mem_to_dbl+0x234>)
20001594:	f004 fd5d 	bl	20006052 <__wrap___aeabi_dmul>
20001598:	0032      	movs	r2, r6
2000159a:	003b      	movs	r3, r7
2000159c:	f004 fd32 	bl	20006004 <__wrap___aeabi_dadd>
200015a0:	4643      	mov	r3, r8
200015a2:	0006      	movs	r6, r0
200015a4:	4648      	mov	r0, r9
200015a6:	785b      	ldrb	r3, [r3, #1]
200015a8:	000f      	movs	r7, r1
200015aa:	469a      	mov	sl, r3
200015ac:	4018      	ands	r0, r3
200015ae:	f004 fdc9 	bl	20006144 <__wrap___aeabi_i2d>
200015b2:	4653      	mov	r3, sl
200015b4:	0004      	movs	r4, r0
200015b6:	000d      	movs	r5, r1
200015b8:	0918      	lsrs	r0, r3, #4
200015ba:	f004 fdc3 	bl	20006144 <__wrap___aeabi_i2d>
200015be:	2200      	movs	r2, #0
200015c0:	4b2d      	ldr	r3, [pc, #180]	; (20001678 <mem_to_dbl+0x218>)
200015c2:	f004 fd46 	bl	20006052 <__wrap___aeabi_dmul>
200015c6:	0022      	movs	r2, r4
200015c8:	002b      	movs	r3, r5
200015ca:	f004 fd1b 	bl	20006004 <__wrap___aeabi_dadd>
200015ce:	4a32      	ldr	r2, [pc, #200]	; (20001698 <mem_to_dbl+0x238>)
200015d0:	4b32      	ldr	r3, [pc, #200]	; (2000169c <mem_to_dbl+0x23c>)
200015d2:	f004 fd3e 	bl	20006052 <__wrap___aeabi_dmul>
200015d6:	0032      	movs	r2, r6
200015d8:	003b      	movs	r3, r7
200015da:	f004 fd13 	bl	20006004 <__wrap___aeabi_dadd>
200015de:	4643      	mov	r3, r8
200015e0:	0006      	movs	r6, r0
200015e2:	4648      	mov	r0, r9
200015e4:	781b      	ldrb	r3, [r3, #0]
200015e6:	000f      	movs	r7, r1
200015e8:	4698      	mov	r8, r3
200015ea:	4018      	ands	r0, r3
200015ec:	f004 fdaa 	bl	20006144 <__wrap___aeabi_i2d>
200015f0:	4643      	mov	r3, r8
200015f2:	0004      	movs	r4, r0
200015f4:	000d      	movs	r5, r1
200015f6:	0918      	lsrs	r0, r3, #4
200015f8:	f004 fda4 	bl	20006144 <__wrap___aeabi_i2d>
200015fc:	2200      	movs	r2, #0
200015fe:	4b1e      	ldr	r3, [pc, #120]	; (20001678 <mem_to_dbl+0x218>)
20001600:	f004 fd27 	bl	20006052 <__wrap___aeabi_dmul>
20001604:	0022      	movs	r2, r4
20001606:	002b      	movs	r3, r5
20001608:	f004 fcfc 	bl	20006004 <__wrap___aeabi_dadd>
2000160c:	4a24      	ldr	r2, [pc, #144]	; (200016a0 <mem_to_dbl+0x240>)
2000160e:	4b25      	ldr	r3, [pc, #148]	; (200016a4 <mem_to_dbl+0x244>)
20001610:	f004 fd1f 	bl	20006052 <__wrap___aeabi_dmul>
20001614:	0032      	movs	r2, r6
20001616:	003b      	movs	r3, r7
20001618:	f004 fcf4 	bl	20006004 <__wrap___aeabi_dadd>
2000161c:	000b      	movs	r3, r1
2000161e:	0002      	movs	r2, r0
20001620:	9800      	ldr	r0, [sp, #0]
20001622:	9901      	ldr	r1, [sp, #4]
20001624:	f004 fd15 	bl	20006052 <__wrap___aeabi_dmul>
20001628:	9b03      	ldr	r3, [sp, #12]
2000162a:	0004      	movs	r4, r0
2000162c:	000d      	movs	r5, r1
2000162e:	2b00      	cmp	r3, #0
20001630:	d11f      	bne.n	20001672 <mem_to_dbl+0x212>
20001632:	9a04      	ldr	r2, [sp, #16]
20001634:	9b05      	ldr	r3, [sp, #20]
20001636:	2000      	movs	r0, #0
20001638:	491b      	ldr	r1, [pc, #108]	; (200016a8 <mem_to_dbl+0x248>)
2000163a:	f004 fcda 	bl	20005ff2 <__wrap___aeabi_dsub>
2000163e:	0002      	movs	r2, r0
20001640:	2080      	movs	r0, #128	; 0x80
20001642:	0600      	lsls	r0, r0, #24
20001644:	180b      	adds	r3, r1, r0
20001646:	2000      	movs	r0, #0
20001648:	490b      	ldr	r1, [pc, #44]	; (20001678 <mem_to_dbl+0x218>)
2000164a:	f005 f9f9 	bl	20006a40 <__wrap_pow>
2000164e:	0002      	movs	r2, r0
20001650:	000b      	movs	r3, r1
20001652:	0020      	movs	r0, r4
20001654:	0029      	movs	r1, r5
20001656:	f004 fcfc 	bl	20006052 <__wrap___aeabi_dmul>
2000165a:	b007      	add	sp, #28
2000165c:	bc3c      	pop	{r2, r3, r4, r5}
2000165e:	4690      	mov	r8, r2
20001660:	4699      	mov	r9, r3
20001662:	46a2      	mov	sl, r4
20001664:	46ab      	mov	fp, r5
20001666:	bdf0      	pop	{r4, r5, r6, r7, pc}
20001668:	2300      	movs	r3, #0
2000166a:	4c10      	ldr	r4, [pc, #64]	; (200016ac <mem_to_dbl+0x24c>)
2000166c:	9300      	str	r3, [sp, #0]
2000166e:	9401      	str	r4, [sp, #4]
20001670:	e720      	b.n	200014b4 <mem_to_dbl+0x54>
20001672:	9a04      	ldr	r2, [sp, #16]
20001674:	9b05      	ldr	r3, [sp, #20]
20001676:	e7e6      	b.n	20001646 <mem_to_dbl+0x1e6>
20001678:	40240000 	.word	0x40240000
2000167c:	bff00000 	.word	0xbff00000
20001680:	47ae147b 	.word	0x47ae147b
20001684:	3f847ae1 	.word	0x3f847ae1
20001688:	eb1c432d 	.word	0xeb1c432d
2000168c:	3f1a36e2 	.word	0x3f1a36e2
20001690:	a0b5ed8d 	.word	0xa0b5ed8d
20001694:	3eb0c6f7 	.word	0x3eb0c6f7
20001698:	e2308c3a 	.word	0xe2308c3a
2000169c:	3e45798e 	.word	0x3e45798e
200016a0:	d9d7bdbb 	.word	0xd9d7bdbb
200016a4:	3ddb7cdf 	.word	0x3ddb7cdf
200016a8:	40590000 	.word	0x40590000
200016ac:	3ff00000 	.word	0x3ff00000

200016b0 <display_ram_at>:
200016b0:	b5f0      	push	{r4, r5, r6, r7, lr}
200016b2:	46de      	mov	lr, fp
200016b4:	4657      	mov	r7, sl
200016b6:	464e      	mov	r6, r9
200016b8:	4645      	mov	r5, r8
200016ba:	b5e0      	push	{r5, r6, r7, lr}
200016bc:	0005      	movs	r5, r0
200016be:	b083      	sub	sp, #12
200016c0:	200a      	movs	r0, #10
200016c2:	f006 f927 	bl	20007914 <__wrap_putchar>
200016c6:	4b29      	ldr	r3, [pc, #164]	; (2000176c <display_ram_at+0xbc>)
200016c8:	2400      	movs	r4, #0
200016ca:	469b      	mov	fp, r3
200016cc:	4e28      	ldr	r6, [pc, #160]	; (20001770 <display_ram_at+0xc0>)
200016ce:	4f29      	ldr	r7, [pc, #164]	; (20001774 <display_ram_at+0xc4>)
200016d0:	3d01      	subs	r5, #1
200016d2:	e012      	b.n	200016fa <display_ram_at+0x4a>
200016d4:	220f      	movs	r2, #15
200016d6:	782b      	ldrb	r3, [r5, #0]
200016d8:	4393      	bics	r3, r2
200016da:	2bf0      	cmp	r3, #240	; 0xf0
200016dc:	d01c      	beq.n	20001718 <display_ram_at+0x68>
200016de:	0021      	movs	r1, r4
200016e0:	0038      	movs	r0, r7
200016e2:	f006 fa1f 	bl	20007b24 <__wrap_printf>
200016e6:	7869      	ldrb	r1, [r5, #1]
200016e8:	0030      	movs	r0, r6
200016ea:	f006 fa1b 	bl	20007b24 <__wrap_printf>
200016ee:	2380      	movs	r3, #128	; 0x80
200016f0:	3401      	adds	r4, #1
200016f2:	3501      	adds	r5, #1
200016f4:	005b      	lsls	r3, r3, #1
200016f6:	429c      	cmp	r4, r3
200016f8:	d02d      	beq.n	20001756 <display_ram_at+0xa6>
200016fa:	0763      	lsls	r3, r4, #29
200016fc:	d1f3      	bne.n	200016e6 <display_ram_at+0x36>
200016fe:	2c00      	cmp	r4, #0
20001700:	d0ed      	beq.n	200016de <display_ram_at+0x2e>
20001702:	2c80      	cmp	r4, #128	; 0x80
20001704:	dceb      	bgt.n	200016de <display_ram_at+0x2e>
20001706:	10e3      	asrs	r3, r4, #3
20001708:	4698      	mov	r8, r3
2000170a:	3b0b      	subs	r3, #11
2000170c:	2b01      	cmp	r3, #1
2000170e:	d8e1      	bhi.n	200016d4 <display_ram_at+0x24>
20001710:	4658      	mov	r0, fp
20001712:	f006 fa07 	bl	20007b24 <__wrap_printf>
20001716:	e7e2      	b.n	200016de <display_ram_at+0x2e>
20001718:	1feb      	subs	r3, r5, #7
2000171a:	0018      	movs	r0, r3
2000171c:	469a      	mov	sl, r3
2000171e:	f7ff fd99 	bl	20001254 <mem_to_str>
20001722:	4681      	mov	r9, r0
20001724:	4650      	mov	r0, sl
20001726:	f7ff fe9b 	bl	20001460 <mem_to_dbl>
2000172a:	000b      	movs	r3, r1
2000172c:	0002      	movs	r2, r0
2000172e:	4641      	mov	r1, r8
20001730:	9200      	str	r2, [sp, #0]
20001732:	9301      	str	r3, [sp, #4]
20001734:	4810      	ldr	r0, [pc, #64]	; (20001778 <display_ram_at+0xc8>)
20001736:	464a      	mov	r2, r9
20001738:	3901      	subs	r1, #1
2000173a:	f006 f9f3 	bl	20007b24 <__wrap_printf>
2000173e:	0023      	movs	r3, r4
20001740:	3b28      	subs	r3, #40	; 0x28
20001742:	2b07      	cmp	r3, #7
20001744:	d8cb      	bhi.n	200016de <display_ram_at+0x2e>
20001746:	4650      	mov	r0, sl
20001748:	f7ff fe8a 	bl	20001460 <mem_to_dbl>
2000174c:	002a      	movs	r2, r5
2000174e:	3a0f      	subs	r2, #15
20001750:	f7ff fba2 	bl	20000e98 <dbl_to_mem>
20001754:	e7c3      	b.n	200016de <display_ram_at+0x2e>
20001756:	200a      	movs	r0, #10
20001758:	f006 f8dc 	bl	20007914 <__wrap_putchar>
2000175c:	b003      	add	sp, #12
2000175e:	bc3c      	pop	{r2, r3, r4, r5}
20001760:	4690      	mov	r8, r2
20001762:	4699      	mov	r9, r3
20001764:	46a2      	mov	sl, r4
20001766:	46ab      	mov	fp, r5
20001768:	bdf0      	pop	{r4, r5, r6, r7, pc}
2000176a:	46c0      	nop			; (mov r8, r8)
2000176c:	2000b388 	.word	0x2000b388
20001770:	2000b3b8 	.word	0x2000b3b8
20001774:	2000b3b0 	.word	0x2000b3b0
20001778:	2000b39c 	.word	0x2000b39c

2000177c <display_ram>:
2000177c:	b5f0      	push	{r4, r5, r6, r7, lr}
2000177e:	46d6      	mov	lr, sl
20001780:	464f      	mov	r7, r9
20001782:	4646      	mov	r6, r8
20001784:	4d8f      	ldr	r5, [pc, #572]	; (200019c4 <display_ram+0x248>)
20001786:	b5c0      	push	{r6, r7, lr}
20001788:	0028      	movs	r0, r5
2000178a:	f7ff ff91 	bl	200016b0 <display_ram_at>
2000178e:	2300      	movs	r3, #0
20001790:	4f8d      	ldr	r7, [pc, #564]	; (200019c8 <display_ram+0x24c>)
20001792:	002e      	movs	r6, r5
20001794:	703b      	strb	r3, [r7, #0]
20001796:	4b8d      	ldr	r3, [pc, #564]	; (200019cc <display_ram+0x250>)
20001798:	3501      	adds	r5, #1
2000179a:	469a      	mov	sl, r3
2000179c:	4b8c      	ldr	r3, [pc, #560]	; (200019d0 <display_ram+0x254>)
2000179e:	4c8d      	ldr	r4, [pc, #564]	; (200019d4 <display_ram+0x258>)
200017a0:	4699      	mov	r9, r3
200017a2:	4b8d      	ldr	r3, [pc, #564]	; (200019d8 <display_ram+0x25c>)
200017a4:	3680      	adds	r6, #128	; 0x80
200017a6:	4698      	mov	r8, r3
200017a8:	35ff      	adds	r5, #255	; 0xff
200017aa:	2300      	movs	r3, #0
200017ac:	7832      	ldrb	r2, [r6, #0]
200017ae:	7023      	strb	r3, [r4, #0]
200017b0:	2af9      	cmp	r2, #249	; 0xf9
200017b2:	d803      	bhi.n	200017bc <display_ram+0x40>
200017b4:	4649      	mov	r1, r9
200017b6:	0093      	lsls	r3, r2, #2
200017b8:	58cb      	ldr	r3, [r1, r3]
200017ba:	469f      	mov	pc, r3
200017bc:	4651      	mov	r1, sl
200017be:	0020      	movs	r0, r4
200017c0:	f004 f93a 	bl	20005a38 <__wrap_sprintf>
200017c4:	0021      	movs	r1, r4
200017c6:	0038      	movs	r0, r7
200017c8:	3601      	adds	r6, #1
200017ca:	f009 f81f 	bl	2000a80c <strcat>
200017ce:	42b5      	cmp	r5, r6
200017d0:	d1eb      	bne.n	200017aa <display_ram+0x2e>
200017d2:	0039      	movs	r1, r7
200017d4:	4881      	ldr	r0, [pc, #516]	; (200019dc <display_ram+0x260>)
200017d6:	f006 f9a5 	bl	20007b24 <__wrap_printf>
200017da:	bc1c      	pop	{r2, r3, r4}
200017dc:	4690      	mov	r8, r2
200017de:	4699      	mov	r9, r3
200017e0:	46a2      	mov	sl, r4
200017e2:	bdf0      	pop	{r4, r5, r6, r7, pc}
200017e4:	2202      	movs	r2, #2
200017e6:	4641      	mov	r1, r8
200017e8:	0020      	movs	r0, r4
200017ea:	f005 ff89 	bl	20007700 <__wrap___aeabi_memcpy>
200017ee:	e7e9      	b.n	200017c4 <display_ram+0x48>
200017f0:	2202      	movs	r2, #2
200017f2:	0020      	movs	r0, r4
200017f4:	497a      	ldr	r1, [pc, #488]	; (200019e0 <display_ram+0x264>)
200017f6:	f005 ff83 	bl	20007700 <__wrap___aeabi_memcpy>
200017fa:	e7e3      	b.n	200017c4 <display_ram+0x48>
200017fc:	2202      	movs	r2, #2
200017fe:	0020      	movs	r0, r4
20001800:	4978      	ldr	r1, [pc, #480]	; (200019e4 <display_ram+0x268>)
20001802:	f005 ff7d 	bl	20007700 <__wrap___aeabi_memcpy>
20001806:	e7dd      	b.n	200017c4 <display_ram+0x48>
20001808:	2202      	movs	r2, #2
2000180a:	0020      	movs	r0, r4
2000180c:	4976      	ldr	r1, [pc, #472]	; (200019e8 <display_ram+0x26c>)
2000180e:	f005 ff77 	bl	20007700 <__wrap___aeabi_memcpy>
20001812:	e7d7      	b.n	200017c4 <display_ram+0x48>
20001814:	2202      	movs	r2, #2
20001816:	0020      	movs	r0, r4
20001818:	4974      	ldr	r1, [pc, #464]	; (200019ec <display_ram+0x270>)
2000181a:	f005 ff71 	bl	20007700 <__wrap___aeabi_memcpy>
2000181e:	e7d1      	b.n	200017c4 <display_ram+0x48>
20001820:	2202      	movs	r2, #2
20001822:	0020      	movs	r0, r4
20001824:	4972      	ldr	r1, [pc, #456]	; (200019f0 <display_ram+0x274>)
20001826:	f005 ff6b 	bl	20007700 <__wrap___aeabi_memcpy>
2000182a:	e7cb      	b.n	200017c4 <display_ram+0x48>
2000182c:	2202      	movs	r2, #2
2000182e:	0020      	movs	r0, r4
20001830:	4970      	ldr	r1, [pc, #448]	; (200019f4 <display_ram+0x278>)
20001832:	f005 ff65 	bl	20007700 <__wrap___aeabi_memcpy>
20001836:	e7c5      	b.n	200017c4 <display_ram+0x48>
20001838:	2202      	movs	r2, #2
2000183a:	0020      	movs	r0, r4
2000183c:	496e      	ldr	r1, [pc, #440]	; (200019f8 <display_ram+0x27c>)
2000183e:	f005 ff5f 	bl	20007700 <__wrap___aeabi_memcpy>
20001842:	e7bf      	b.n	200017c4 <display_ram+0x48>
20001844:	2202      	movs	r2, #2
20001846:	0020      	movs	r0, r4
20001848:	496c      	ldr	r1, [pc, #432]	; (200019fc <display_ram+0x280>)
2000184a:	f005 ff59 	bl	20007700 <__wrap___aeabi_memcpy>
2000184e:	e7b9      	b.n	200017c4 <display_ram+0x48>
20001850:	2203      	movs	r2, #3
20001852:	0020      	movs	r0, r4
20001854:	496a      	ldr	r1, [pc, #424]	; (20001a00 <display_ram+0x284>)
20001856:	f005 ff53 	bl	20007700 <__wrap___aeabi_memcpy>
2000185a:	e7b3      	b.n	200017c4 <display_ram+0x48>
2000185c:	2205      	movs	r2, #5
2000185e:	0020      	movs	r0, r4
20001860:	4968      	ldr	r1, [pc, #416]	; (20001a04 <display_ram+0x288>)
20001862:	f005 ff4d 	bl	20007700 <__wrap___aeabi_memcpy>
20001866:	e7ad      	b.n	200017c4 <display_ram+0x48>
20001868:	2203      	movs	r2, #3
2000186a:	0020      	movs	r0, r4
2000186c:	4966      	ldr	r1, [pc, #408]	; (20001a08 <display_ram+0x28c>)
2000186e:	f005 ff47 	bl	20007700 <__wrap___aeabi_memcpy>
20001872:	e7a7      	b.n	200017c4 <display_ram+0x48>
20001874:	2203      	movs	r2, #3
20001876:	0020      	movs	r0, r4
20001878:	4964      	ldr	r1, [pc, #400]	; (20001a0c <display_ram+0x290>)
2000187a:	f005 ff41 	bl	20007700 <__wrap___aeabi_memcpy>
2000187e:	e7a1      	b.n	200017c4 <display_ram+0x48>
20001880:	2203      	movs	r2, #3
20001882:	0020      	movs	r0, r4
20001884:	4962      	ldr	r1, [pc, #392]	; (20001a10 <display_ram+0x294>)
20001886:	f005 ff3b 	bl	20007700 <__wrap___aeabi_memcpy>
2000188a:	e79b      	b.n	200017c4 <display_ram+0x48>
2000188c:	2203      	movs	r2, #3
2000188e:	0020      	movs	r0, r4
20001890:	4960      	ldr	r1, [pc, #384]	; (20001a14 <display_ram+0x298>)
20001892:	f005 ff35 	bl	20007700 <__wrap___aeabi_memcpy>
20001896:	e795      	b.n	200017c4 <display_ram+0x48>
20001898:	2203      	movs	r2, #3
2000189a:	0020      	movs	r0, r4
2000189c:	495e      	ldr	r1, [pc, #376]	; (20001a18 <display_ram+0x29c>)
2000189e:	f005 ff2f 	bl	20007700 <__wrap___aeabi_memcpy>
200018a2:	e78f      	b.n	200017c4 <display_ram+0x48>
200018a4:	2204      	movs	r2, #4
200018a6:	0020      	movs	r0, r4
200018a8:	495c      	ldr	r1, [pc, #368]	; (20001a1c <display_ram+0x2a0>)
200018aa:	f005 ff29 	bl	20007700 <__wrap___aeabi_memcpy>
200018ae:	e789      	b.n	200017c4 <display_ram+0x48>
200018b0:	2205      	movs	r2, #5
200018b2:	0020      	movs	r0, r4
200018b4:	495a      	ldr	r1, [pc, #360]	; (20001a20 <display_ram+0x2a4>)
200018b6:	f005 ff23 	bl	20007700 <__wrap___aeabi_memcpy>
200018ba:	e783      	b.n	200017c4 <display_ram+0x48>
200018bc:	2205      	movs	r2, #5
200018be:	0020      	movs	r0, r4
200018c0:	4958      	ldr	r1, [pc, #352]	; (20001a24 <display_ram+0x2a8>)
200018c2:	f005 ff1d 	bl	20007700 <__wrap___aeabi_memcpy>
200018c6:	e77d      	b.n	200017c4 <display_ram+0x48>
200018c8:	2204      	movs	r2, #4
200018ca:	0020      	movs	r0, r4
200018cc:	4956      	ldr	r1, [pc, #344]	; (20001a28 <display_ram+0x2ac>)
200018ce:	f005 ff17 	bl	20007700 <__wrap___aeabi_memcpy>
200018d2:	e777      	b.n	200017c4 <display_ram+0x48>
200018d4:	2203      	movs	r2, #3
200018d6:	0020      	movs	r0, r4
200018d8:	4954      	ldr	r1, [pc, #336]	; (20001a2c <display_ram+0x2b0>)
200018da:	f005 ff11 	bl	20007700 <__wrap___aeabi_memcpy>
200018de:	e771      	b.n	200017c4 <display_ram+0x48>
200018e0:	2204      	movs	r2, #4
200018e2:	0020      	movs	r0, r4
200018e4:	4952      	ldr	r1, [pc, #328]	; (20001a30 <display_ram+0x2b4>)
200018e6:	f005 ff0b 	bl	20007700 <__wrap___aeabi_memcpy>
200018ea:	e76b      	b.n	200017c4 <display_ram+0x48>
200018ec:	2204      	movs	r2, #4
200018ee:	0020      	movs	r0, r4
200018f0:	4950      	ldr	r1, [pc, #320]	; (20001a34 <display_ram+0x2b8>)
200018f2:	f005 ff05 	bl	20007700 <__wrap___aeabi_memcpy>
200018f6:	e765      	b.n	200017c4 <display_ram+0x48>
200018f8:	2208      	movs	r2, #8
200018fa:	0020      	movs	r0, r4
200018fc:	494e      	ldr	r1, [pc, #312]	; (20001a38 <display_ram+0x2bc>)
200018fe:	f005 feff 	bl	20007700 <__wrap___aeabi_memcpy>
20001902:	e75f      	b.n	200017c4 <display_ram+0x48>
20001904:	2206      	movs	r2, #6
20001906:	0020      	movs	r0, r4
20001908:	494c      	ldr	r1, [pc, #304]	; (20001a3c <display_ram+0x2c0>)
2000190a:	f005 fef9 	bl	20007700 <__wrap___aeabi_memcpy>
2000190e:	e759      	b.n	200017c4 <display_ram+0x48>
20001910:	2206      	movs	r2, #6
20001912:	0020      	movs	r0, r4
20001914:	494a      	ldr	r1, [pc, #296]	; (20001a40 <display_ram+0x2c4>)
20001916:	f005 fef3 	bl	20007700 <__wrap___aeabi_memcpy>
2000191a:	e753      	b.n	200017c4 <display_ram+0x48>
2000191c:	2205      	movs	r2, #5
2000191e:	0020      	movs	r0, r4
20001920:	4948      	ldr	r1, [pc, #288]	; (20001a44 <display_ram+0x2c8>)
20001922:	f005 feed 	bl	20007700 <__wrap___aeabi_memcpy>
20001926:	e74d      	b.n	200017c4 <display_ram+0x48>
20001928:	2206      	movs	r2, #6
2000192a:	0020      	movs	r0, r4
2000192c:	4946      	ldr	r1, [pc, #280]	; (20001a48 <display_ram+0x2cc>)
2000192e:	f005 fee7 	bl	20007700 <__wrap___aeabi_memcpy>
20001932:	e747      	b.n	200017c4 <display_ram+0x48>
20001934:	2205      	movs	r2, #5
20001936:	0020      	movs	r0, r4
20001938:	4944      	ldr	r1, [pc, #272]	; (20001a4c <display_ram+0x2d0>)
2000193a:	f005 fee1 	bl	20007700 <__wrap___aeabi_memcpy>
2000193e:	e741      	b.n	200017c4 <display_ram+0x48>
20001940:	2205      	movs	r2, #5
20001942:	0020      	movs	r0, r4
20001944:	4942      	ldr	r1, [pc, #264]	; (20001a50 <display_ram+0x2d4>)
20001946:	f005 fedb 	bl	20007700 <__wrap___aeabi_memcpy>
2000194a:	e73b      	b.n	200017c4 <display_ram+0x48>
2000194c:	2204      	movs	r2, #4
2000194e:	0020      	movs	r0, r4
20001950:	4940      	ldr	r1, [pc, #256]	; (20001a54 <display_ram+0x2d8>)
20001952:	f005 fed5 	bl	20007700 <__wrap___aeabi_memcpy>
20001956:	e735      	b.n	200017c4 <display_ram+0x48>
20001958:	2205      	movs	r2, #5
2000195a:	0020      	movs	r0, r4
2000195c:	493e      	ldr	r1, [pc, #248]	; (20001a58 <display_ram+0x2dc>)
2000195e:	f005 fecf 	bl	20007700 <__wrap___aeabi_memcpy>
20001962:	e72f      	b.n	200017c4 <display_ram+0x48>
20001964:	2206      	movs	r2, #6
20001966:	0020      	movs	r0, r4
20001968:	493c      	ldr	r1, [pc, #240]	; (20001a5c <display_ram+0x2e0>)
2000196a:	f005 fec9 	bl	20007700 <__wrap___aeabi_memcpy>
2000196e:	e729      	b.n	200017c4 <display_ram+0x48>
20001970:	2205      	movs	r2, #5
20001972:	0020      	movs	r0, r4
20001974:	493a      	ldr	r1, [pc, #232]	; (20001a60 <display_ram+0x2e4>)
20001976:	f005 fec3 	bl	20007700 <__wrap___aeabi_memcpy>
2000197a:	e723      	b.n	200017c4 <display_ram+0x48>
2000197c:	2205      	movs	r2, #5
2000197e:	0020      	movs	r0, r4
20001980:	4938      	ldr	r1, [pc, #224]	; (20001a64 <display_ram+0x2e8>)
20001982:	f005 febd 	bl	20007700 <__wrap___aeabi_memcpy>
20001986:	e71d      	b.n	200017c4 <display_ram+0x48>
20001988:	2205      	movs	r2, #5
2000198a:	0020      	movs	r0, r4
2000198c:	4936      	ldr	r1, [pc, #216]	; (20001a68 <display_ram+0x2ec>)
2000198e:	f005 feb7 	bl	20007700 <__wrap___aeabi_memcpy>
20001992:	e717      	b.n	200017c4 <display_ram+0x48>
20001994:	2205      	movs	r2, #5
20001996:	0020      	movs	r0, r4
20001998:	4934      	ldr	r1, [pc, #208]	; (20001a6c <display_ram+0x2f0>)
2000199a:	f005 feb1 	bl	20007700 <__wrap___aeabi_memcpy>
2000199e:	e711      	b.n	200017c4 <display_ram+0x48>
200019a0:	2205      	movs	r2, #5
200019a2:	0020      	movs	r0, r4
200019a4:	4932      	ldr	r1, [pc, #200]	; (20001a70 <display_ram+0x2f4>)
200019a6:	f005 feab 	bl	20007700 <__wrap___aeabi_memcpy>
200019aa:	e70b      	b.n	200017c4 <display_ram+0x48>
200019ac:	2205      	movs	r2, #5
200019ae:	0020      	movs	r0, r4
200019b0:	4930      	ldr	r1, [pc, #192]	; (20001a74 <display_ram+0x2f8>)
200019b2:	f005 fea5 	bl	20007700 <__wrap___aeabi_memcpy>
200019b6:	e705      	b.n	200017c4 <display_ram+0x48>
200019b8:	2203      	movs	r2, #3
200019ba:	0020      	movs	r0, r4
200019bc:	492e      	ldr	r1, [pc, #184]	; (20001a78 <display_ram+0x2fc>)
200019be:	f005 fe9f 	bl	20007700 <__wrap___aeabi_memcpy>
200019c2:	e6ff      	b.n	200017c4 <display_ram+0x48>
200019c4:	20013374 	.word	0x20013374
200019c8:	2000d7cc 	.word	0x2000d7cc
200019cc:	2000ad50 	.word	0x2000ad50
200019d0:	2000b3c0 	.word	0x2000b3c0
200019d4:	20013474 	.word	0x20013474
200019d8:	2000ae3c 	.word	0x2000ae3c
200019dc:	2000ae40 	.word	0x2000ae40
200019e0:	2000ae38 	.word	0x2000ae38
200019e4:	2000ae34 	.word	0x2000ae34
200019e8:	2000ae30 	.word	0x2000ae30
200019ec:	2000ae2c 	.word	0x2000ae2c
200019f0:	2000ae28 	.word	0x2000ae28
200019f4:	2000ae24 	.word	0x2000ae24
200019f8:	2000ae20 	.word	0x2000ae20
200019fc:	2000ae1c 	.word	0x2000ae1c
20001a00:	2000ae18 	.word	0x2000ae18
20001a04:	2000ae0c 	.word	0x2000ae0c
20001a08:	2000ae14 	.word	0x2000ae14
20001a0c:	2000ae08 	.word	0x2000ae08
20001a10:	2000ae04 	.word	0x2000ae04
20001a14:	2000adfc 	.word	0x2000adfc
20001a18:	2000ae00 	.word	0x2000ae00
20001a1c:	2000adf8 	.word	0x2000adf8
20001a20:	2000adf0 	.word	0x2000adf0
20001a24:	2000ade8 	.word	0x2000ade8
20001a28:	2000ade0 	.word	0x2000ade0
20001a2c:	2000ade4 	.word	0x2000ade4
20001a30:	2000add8 	.word	0x2000add8
20001a34:	2000addc 	.word	0x2000addc
20001a38:	2000ad58 	.word	0x2000ad58
20001a3c:	2000ad70 	.word	0x2000ad70
20001a40:	2000ad68 	.word	0x2000ad68
20001a44:	2000ad60 	.word	0x2000ad60
20001a48:	2000ad9c 	.word	0x2000ad9c
20001a4c:	2000ad94 	.word	0x2000ad94
20001a50:	2000ad8c 	.word	0x2000ad8c
20001a54:	2000ad88 	.word	0x2000ad88
20001a58:	2000ad80 	.word	0x2000ad80
20001a5c:	2000ad78 	.word	0x2000ad78
20001a60:	2000add0 	.word	0x2000add0
20001a64:	2000adc8 	.word	0x2000adc8
20001a68:	2000adc0 	.word	0x2000adc0
20001a6c:	2000adb8 	.word	0x2000adb8
20001a70:	2000adb0 	.word	0x2000adb0
20001a74:	2000ada8 	.word	0x2000ada8
20001a78:	2000ada4 	.word	0x2000ada4

20001a7c <cli_display_program_slot>:
20001a7c:	b5f0      	push	{r4, r5, r6, r7, lr}
20001a7e:	46d6      	mov	lr, sl
20001a80:	464f      	mov	r7, r9
20001a82:	4646      	mov	r6, r8
20001a84:	4c99      	ldr	r4, [pc, #612]	; (20001cec <cli_display_program_slot+0x270>)
20001a86:	b5c0      	push	{r6, r7, lr}
20001a88:	6821      	ldr	r1, [r4, #0]
20001a8a:	4899      	ldr	r0, [pc, #612]	; (20001cf0 <cli_display_program_slot+0x274>)
20001a8c:	f006 f84a 	bl	20007b24 <__wrap_printf>
20001a90:	4d98      	ldr	r5, [pc, #608]	; (20001cf4 <cli_display_program_slot+0x278>)
20001a92:	6823      	ldr	r3, [r4, #0]
20001a94:	0318      	lsls	r0, r3, #12
20001a96:	682b      	ldr	r3, [r5, #0]
20001a98:	469c      	mov	ip, r3
20001a9a:	4460      	add	r0, ip
20001a9c:	f7ff fe08 	bl	200016b0 <display_ram_at>
20001aa0:	4895      	ldr	r0, [pc, #596]	; (20001cf8 <cli_display_program_slot+0x27c>)
20001aa2:	f005 ff89 	bl	200079b8 <__wrap_puts>
20001aa6:	6822      	ldr	r2, [r4, #0]
20001aa8:	682b      	ldr	r3, [r5, #0]
20001aaa:	0312      	lsls	r2, r2, #12
20001aac:	189b      	adds	r3, r3, r2
20001aae:	001e      	movs	r6, r3
20001ab0:	1c5d      	adds	r5, r3, #1
20001ab2:	4b92      	ldr	r3, [pc, #584]	; (20001cfc <cli_display_program_slot+0x280>)
20001ab4:	2200      	movs	r2, #0
20001ab6:	469a      	mov	sl, r3
20001ab8:	4b91      	ldr	r3, [pc, #580]	; (20001d00 <cli_display_program_slot+0x284>)
20001aba:	4f92      	ldr	r7, [pc, #584]	; (20001d04 <cli_display_program_slot+0x288>)
20001abc:	4699      	mov	r9, r3
20001abe:	4b92      	ldr	r3, [pc, #584]	; (20001d08 <cli_display_program_slot+0x28c>)
20001ac0:	4c92      	ldr	r4, [pc, #584]	; (20001d0c <cli_display_program_slot+0x290>)
20001ac2:	4698      	mov	r8, r3
20001ac4:	703a      	strb	r2, [r7, #0]
20001ac6:	3680      	adds	r6, #128	; 0x80
20001ac8:	35ff      	adds	r5, #255	; 0xff
20001aca:	2300      	movs	r3, #0
20001acc:	7832      	ldrb	r2, [r6, #0]
20001ace:	7023      	strb	r3, [r4, #0]
20001ad0:	2af9      	cmp	r2, #249	; 0xf9
20001ad2:	d803      	bhi.n	20001adc <cli_display_program_slot+0x60>
20001ad4:	4649      	mov	r1, r9
20001ad6:	0093      	lsls	r3, r2, #2
20001ad8:	58cb      	ldr	r3, [r1, r3]
20001ada:	469f      	mov	pc, r3
20001adc:	4651      	mov	r1, sl
20001ade:	0020      	movs	r0, r4
20001ae0:	f003 ffaa 	bl	20005a38 <__wrap_sprintf>
20001ae4:	0021      	movs	r1, r4
20001ae6:	0038      	movs	r0, r7
20001ae8:	3601      	adds	r6, #1
20001aea:	f008 fe8f 	bl	2000a80c <strcat>
20001aee:	42b5      	cmp	r5, r6
20001af0:	d1eb      	bne.n	20001aca <cli_display_program_slot+0x4e>
20001af2:	0039      	movs	r1, r7
20001af4:	4886      	ldr	r0, [pc, #536]	; (20001d10 <cli_display_program_slot+0x294>)
20001af6:	f006 f815 	bl	20007b24 <__wrap_printf>
20001afa:	200a      	movs	r0, #10
20001afc:	f005 ff0a 	bl	20007914 <__wrap_putchar>
20001b00:	bc1c      	pop	{r2, r3, r4}
20001b02:	4690      	mov	r8, r2
20001b04:	4699      	mov	r9, r3
20001b06:	46a2      	mov	sl, r4
20001b08:	bdf0      	pop	{r4, r5, r6, r7, pc}
20001b0a:	2202      	movs	r2, #2
20001b0c:	4641      	mov	r1, r8
20001b0e:	0020      	movs	r0, r4
20001b10:	f005 fdf6 	bl	20007700 <__wrap___aeabi_memcpy>
20001b14:	e7e6      	b.n	20001ae4 <cli_display_program_slot+0x68>
20001b16:	2202      	movs	r2, #2
20001b18:	0020      	movs	r0, r4
20001b1a:	497e      	ldr	r1, [pc, #504]	; (20001d14 <cli_display_program_slot+0x298>)
20001b1c:	f005 fdf0 	bl	20007700 <__wrap___aeabi_memcpy>
20001b20:	e7e0      	b.n	20001ae4 <cli_display_program_slot+0x68>
20001b22:	2202      	movs	r2, #2
20001b24:	0020      	movs	r0, r4
20001b26:	497c      	ldr	r1, [pc, #496]	; (20001d18 <cli_display_program_slot+0x29c>)
20001b28:	f005 fdea 	bl	20007700 <__wrap___aeabi_memcpy>
20001b2c:	e7da      	b.n	20001ae4 <cli_display_program_slot+0x68>
20001b2e:	2202      	movs	r2, #2
20001b30:	0020      	movs	r0, r4
20001b32:	497a      	ldr	r1, [pc, #488]	; (20001d1c <cli_display_program_slot+0x2a0>)
20001b34:	f005 fde4 	bl	20007700 <__wrap___aeabi_memcpy>
20001b38:	e7d4      	b.n	20001ae4 <cli_display_program_slot+0x68>
20001b3a:	2202      	movs	r2, #2
20001b3c:	0020      	movs	r0, r4
20001b3e:	4978      	ldr	r1, [pc, #480]	; (20001d20 <cli_display_program_slot+0x2a4>)
20001b40:	f005 fdde 	bl	20007700 <__wrap___aeabi_memcpy>
20001b44:	e7ce      	b.n	20001ae4 <cli_display_program_slot+0x68>
20001b46:	2202      	movs	r2, #2
20001b48:	0020      	movs	r0, r4
20001b4a:	4976      	ldr	r1, [pc, #472]	; (20001d24 <cli_display_program_slot+0x2a8>)
20001b4c:	f005 fdd8 	bl	20007700 <__wrap___aeabi_memcpy>
20001b50:	e7c8      	b.n	20001ae4 <cli_display_program_slot+0x68>
20001b52:	2202      	movs	r2, #2
20001b54:	0020      	movs	r0, r4
20001b56:	4974      	ldr	r1, [pc, #464]	; (20001d28 <cli_display_program_slot+0x2ac>)
20001b58:	f005 fdd2 	bl	20007700 <__wrap___aeabi_memcpy>
20001b5c:	e7c2      	b.n	20001ae4 <cli_display_program_slot+0x68>
20001b5e:	2202      	movs	r2, #2
20001b60:	0020      	movs	r0, r4
20001b62:	4972      	ldr	r1, [pc, #456]	; (20001d2c <cli_display_program_slot+0x2b0>)
20001b64:	f005 fdcc 	bl	20007700 <__wrap___aeabi_memcpy>
20001b68:	e7bc      	b.n	20001ae4 <cli_display_program_slot+0x68>
20001b6a:	2202      	movs	r2, #2
20001b6c:	0020      	movs	r0, r4
20001b6e:	4970      	ldr	r1, [pc, #448]	; (20001d30 <cli_display_program_slot+0x2b4>)
20001b70:	f005 fdc6 	bl	20007700 <__wrap___aeabi_memcpy>
20001b74:	e7b6      	b.n	20001ae4 <cli_display_program_slot+0x68>
20001b76:	2203      	movs	r2, #3
20001b78:	0020      	movs	r0, r4
20001b7a:	496e      	ldr	r1, [pc, #440]	; (20001d34 <cli_display_program_slot+0x2b8>)
20001b7c:	f005 fdc0 	bl	20007700 <__wrap___aeabi_memcpy>
20001b80:	e7b0      	b.n	20001ae4 <cli_display_program_slot+0x68>
20001b82:	2205      	movs	r2, #5
20001b84:	0020      	movs	r0, r4
20001b86:	496c      	ldr	r1, [pc, #432]	; (20001d38 <cli_display_program_slot+0x2bc>)
20001b88:	f005 fdba 	bl	20007700 <__wrap___aeabi_memcpy>
20001b8c:	e7aa      	b.n	20001ae4 <cli_display_program_slot+0x68>
20001b8e:	2203      	movs	r2, #3
20001b90:	0020      	movs	r0, r4
20001b92:	496a      	ldr	r1, [pc, #424]	; (20001d3c <cli_display_program_slot+0x2c0>)
20001b94:	f005 fdb4 	bl	20007700 <__wrap___aeabi_memcpy>
20001b98:	e7a4      	b.n	20001ae4 <cli_display_program_slot+0x68>
20001b9a:	2203      	movs	r2, #3
20001b9c:	0020      	movs	r0, r4
20001b9e:	4968      	ldr	r1, [pc, #416]	; (20001d40 <cli_display_program_slot+0x2c4>)
20001ba0:	f005 fdae 	bl	20007700 <__wrap___aeabi_memcpy>
20001ba4:	e79e      	b.n	20001ae4 <cli_display_program_slot+0x68>
20001ba6:	2203      	movs	r2, #3
20001ba8:	0020      	movs	r0, r4
20001baa:	4966      	ldr	r1, [pc, #408]	; (20001d44 <cli_display_program_slot+0x2c8>)
20001bac:	f005 fda8 	bl	20007700 <__wrap___aeabi_memcpy>
20001bb0:	e798      	b.n	20001ae4 <cli_display_program_slot+0x68>
20001bb2:	2203      	movs	r2, #3
20001bb4:	0020      	movs	r0, r4
20001bb6:	4964      	ldr	r1, [pc, #400]	; (20001d48 <cli_display_program_slot+0x2cc>)
20001bb8:	f005 fda2 	bl	20007700 <__wrap___aeabi_memcpy>
20001bbc:	e792      	b.n	20001ae4 <cli_display_program_slot+0x68>
20001bbe:	2203      	movs	r2, #3
20001bc0:	0020      	movs	r0, r4
20001bc2:	4962      	ldr	r1, [pc, #392]	; (20001d4c <cli_display_program_slot+0x2d0>)
20001bc4:	f005 fd9c 	bl	20007700 <__wrap___aeabi_memcpy>
20001bc8:	e78c      	b.n	20001ae4 <cli_display_program_slot+0x68>
20001bca:	2204      	movs	r2, #4
20001bcc:	0020      	movs	r0, r4
20001bce:	4960      	ldr	r1, [pc, #384]	; (20001d50 <cli_display_program_slot+0x2d4>)
20001bd0:	f005 fd96 	bl	20007700 <__wrap___aeabi_memcpy>
20001bd4:	e786      	b.n	20001ae4 <cli_display_program_slot+0x68>
20001bd6:	2205      	movs	r2, #5
20001bd8:	0020      	movs	r0, r4
20001bda:	495e      	ldr	r1, [pc, #376]	; (20001d54 <cli_display_program_slot+0x2d8>)
20001bdc:	f005 fd90 	bl	20007700 <__wrap___aeabi_memcpy>
20001be0:	e780      	b.n	20001ae4 <cli_display_program_slot+0x68>
20001be2:	2205      	movs	r2, #5
20001be4:	0020      	movs	r0, r4
20001be6:	495c      	ldr	r1, [pc, #368]	; (20001d58 <cli_display_program_slot+0x2dc>)
20001be8:	f005 fd8a 	bl	20007700 <__wrap___aeabi_memcpy>
20001bec:	e77a      	b.n	20001ae4 <cli_display_program_slot+0x68>
20001bee:	2204      	movs	r2, #4
20001bf0:	0020      	movs	r0, r4
20001bf2:	495a      	ldr	r1, [pc, #360]	; (20001d5c <cli_display_program_slot+0x2e0>)
20001bf4:	f005 fd84 	bl	20007700 <__wrap___aeabi_memcpy>
20001bf8:	e774      	b.n	20001ae4 <cli_display_program_slot+0x68>
20001bfa:	2203      	movs	r2, #3
20001bfc:	0020      	movs	r0, r4
20001bfe:	4958      	ldr	r1, [pc, #352]	; (20001d60 <cli_display_program_slot+0x2e4>)
20001c00:	f005 fd7e 	bl	20007700 <__wrap___aeabi_memcpy>
20001c04:	e76e      	b.n	20001ae4 <cli_display_program_slot+0x68>
20001c06:	2204      	movs	r2, #4
20001c08:	0020      	movs	r0, r4
20001c0a:	4956      	ldr	r1, [pc, #344]	; (20001d64 <cli_display_program_slot+0x2e8>)
20001c0c:	f005 fd78 	bl	20007700 <__wrap___aeabi_memcpy>
20001c10:	e768      	b.n	20001ae4 <cli_display_program_slot+0x68>
20001c12:	2204      	movs	r2, #4
20001c14:	0020      	movs	r0, r4
20001c16:	4954      	ldr	r1, [pc, #336]	; (20001d68 <cli_display_program_slot+0x2ec>)
20001c18:	f005 fd72 	bl	20007700 <__wrap___aeabi_memcpy>
20001c1c:	e762      	b.n	20001ae4 <cli_display_program_slot+0x68>
20001c1e:	2208      	movs	r2, #8
20001c20:	0020      	movs	r0, r4
20001c22:	4952      	ldr	r1, [pc, #328]	; (20001d6c <cli_display_program_slot+0x2f0>)
20001c24:	f005 fd6c 	bl	20007700 <__wrap___aeabi_memcpy>
20001c28:	e75c      	b.n	20001ae4 <cli_display_program_slot+0x68>
20001c2a:	2206      	movs	r2, #6
20001c2c:	0020      	movs	r0, r4
20001c2e:	4950      	ldr	r1, [pc, #320]	; (20001d70 <cli_display_program_slot+0x2f4>)
20001c30:	f005 fd66 	bl	20007700 <__wrap___aeabi_memcpy>
20001c34:	e756      	b.n	20001ae4 <cli_display_program_slot+0x68>
20001c36:	2206      	movs	r2, #6
20001c38:	0020      	movs	r0, r4
20001c3a:	494e      	ldr	r1, [pc, #312]	; (20001d74 <cli_display_program_slot+0x2f8>)
20001c3c:	f005 fd60 	bl	20007700 <__wrap___aeabi_memcpy>
20001c40:	e750      	b.n	20001ae4 <cli_display_program_slot+0x68>
20001c42:	2205      	movs	r2, #5
20001c44:	0020      	movs	r0, r4
20001c46:	494c      	ldr	r1, [pc, #304]	; (20001d78 <cli_display_program_slot+0x2fc>)
20001c48:	f005 fd5a 	bl	20007700 <__wrap___aeabi_memcpy>
20001c4c:	e74a      	b.n	20001ae4 <cli_display_program_slot+0x68>
20001c4e:	2206      	movs	r2, #6
20001c50:	0020      	movs	r0, r4
20001c52:	494a      	ldr	r1, [pc, #296]	; (20001d7c <cli_display_program_slot+0x300>)
20001c54:	f005 fd54 	bl	20007700 <__wrap___aeabi_memcpy>
20001c58:	e744      	b.n	20001ae4 <cli_display_program_slot+0x68>
20001c5a:	2205      	movs	r2, #5
20001c5c:	0020      	movs	r0, r4
20001c5e:	4948      	ldr	r1, [pc, #288]	; (20001d80 <cli_display_program_slot+0x304>)
20001c60:	f005 fd4e 	bl	20007700 <__wrap___aeabi_memcpy>
20001c64:	e73e      	b.n	20001ae4 <cli_display_program_slot+0x68>
20001c66:	2205      	movs	r2, #5
20001c68:	0020      	movs	r0, r4
20001c6a:	4946      	ldr	r1, [pc, #280]	; (20001d84 <cli_display_program_slot+0x308>)
20001c6c:	f005 fd48 	bl	20007700 <__wrap___aeabi_memcpy>
20001c70:	e738      	b.n	20001ae4 <cli_display_program_slot+0x68>
20001c72:	2204      	movs	r2, #4
20001c74:	0020      	movs	r0, r4
20001c76:	4944      	ldr	r1, [pc, #272]	; (20001d88 <cli_display_program_slot+0x30c>)
20001c78:	f005 fd42 	bl	20007700 <__wrap___aeabi_memcpy>
20001c7c:	e732      	b.n	20001ae4 <cli_display_program_slot+0x68>
20001c7e:	2205      	movs	r2, #5
20001c80:	0020      	movs	r0, r4
20001c82:	4942      	ldr	r1, [pc, #264]	; (20001d8c <cli_display_program_slot+0x310>)
20001c84:	f005 fd3c 	bl	20007700 <__wrap___aeabi_memcpy>
20001c88:	e72c      	b.n	20001ae4 <cli_display_program_slot+0x68>
20001c8a:	2206      	movs	r2, #6
20001c8c:	0020      	movs	r0, r4
20001c8e:	4940      	ldr	r1, [pc, #256]	; (20001d90 <cli_display_program_slot+0x314>)
20001c90:	f005 fd36 	bl	20007700 <__wrap___aeabi_memcpy>
20001c94:	e726      	b.n	20001ae4 <cli_display_program_slot+0x68>
20001c96:	2205      	movs	r2, #5
20001c98:	0020      	movs	r0, r4
20001c9a:	493e      	ldr	r1, [pc, #248]	; (20001d94 <cli_display_program_slot+0x318>)
20001c9c:	f005 fd30 	bl	20007700 <__wrap___aeabi_memcpy>
20001ca0:	e720      	b.n	20001ae4 <cli_display_program_slot+0x68>
20001ca2:	2205      	movs	r2, #5
20001ca4:	0020      	movs	r0, r4
20001ca6:	493c      	ldr	r1, [pc, #240]	; (20001d98 <cli_display_program_slot+0x31c>)
20001ca8:	f005 fd2a 	bl	20007700 <__wrap___aeabi_memcpy>
20001cac:	e71a      	b.n	20001ae4 <cli_display_program_slot+0x68>
20001cae:	2205      	movs	r2, #5
20001cb0:	0020      	movs	r0, r4
20001cb2:	493a      	ldr	r1, [pc, #232]	; (20001d9c <cli_display_program_slot+0x320>)
20001cb4:	f005 fd24 	bl	20007700 <__wrap___aeabi_memcpy>
20001cb8:	e714      	b.n	20001ae4 <cli_display_program_slot+0x68>
20001cba:	2205      	movs	r2, #5
20001cbc:	0020      	movs	r0, r4
20001cbe:	4938      	ldr	r1, [pc, #224]	; (20001da0 <cli_display_program_slot+0x324>)
20001cc0:	f005 fd1e 	bl	20007700 <__wrap___aeabi_memcpy>
20001cc4:	e70e      	b.n	20001ae4 <cli_display_program_slot+0x68>
20001cc6:	2205      	movs	r2, #5
20001cc8:	0020      	movs	r0, r4
20001cca:	4936      	ldr	r1, [pc, #216]	; (20001da4 <cli_display_program_slot+0x328>)
20001ccc:	f005 fd18 	bl	20007700 <__wrap___aeabi_memcpy>
20001cd0:	e708      	b.n	20001ae4 <cli_display_program_slot+0x68>
20001cd2:	2205      	movs	r2, #5
20001cd4:	0020      	movs	r0, r4
20001cd6:	4934      	ldr	r1, [pc, #208]	; (20001da8 <cli_display_program_slot+0x32c>)
20001cd8:	f005 fd12 	bl	20007700 <__wrap___aeabi_memcpy>
20001cdc:	e702      	b.n	20001ae4 <cli_display_program_slot+0x68>
20001cde:	2203      	movs	r2, #3
20001ce0:	0020      	movs	r0, r4
20001ce2:	4932      	ldr	r1, [pc, #200]	; (20001dac <cli_display_program_slot+0x330>)
20001ce4:	f005 fd0c 	bl	20007700 <__wrap___aeabi_memcpy>
20001ce8:	e6fc      	b.n	20001ae4 <cli_display_program_slot+0x68>
20001cea:	46c0      	nop			; (mov r8, r8)
20001cec:	2000d33c 	.word	0x2000d33c
20001cf0:	2000b7a8 	.word	0x2000b7a8
20001cf4:	2000c5d8 	.word	0x2000c5d8
20001cf8:	2000b7b0 	.word	0x2000b7b0
20001cfc:	2000ad50 	.word	0x2000ad50
20001d00:	2000b7b4 	.word	0x2000b7b4
20001d04:	2000d7cc 	.word	0x2000d7cc
20001d08:	2000ae3c 	.word	0x2000ae3c
20001d0c:	20013474 	.word	0x20013474
20001d10:	2000ae40 	.word	0x2000ae40
20001d14:	2000ae38 	.word	0x2000ae38
20001d18:	2000ae34 	.word	0x2000ae34
20001d1c:	2000ae30 	.word	0x2000ae30
20001d20:	2000ae2c 	.word	0x2000ae2c
20001d24:	2000ae28 	.word	0x2000ae28
20001d28:	2000ae24 	.word	0x2000ae24
20001d2c:	2000ae20 	.word	0x2000ae20
20001d30:	2000ae1c 	.word	0x2000ae1c
20001d34:	2000ae18 	.word	0x2000ae18
20001d38:	2000ae0c 	.word	0x2000ae0c
20001d3c:	2000ae14 	.word	0x2000ae14
20001d40:	2000ae08 	.word	0x2000ae08
20001d44:	2000ae04 	.word	0x2000ae04
20001d48:	2000adfc 	.word	0x2000adfc
20001d4c:	2000ae00 	.word	0x2000ae00
20001d50:	2000adf8 	.word	0x2000adf8
20001d54:	2000adf0 	.word	0x2000adf0
20001d58:	2000ade8 	.word	0x2000ade8
20001d5c:	2000ade0 	.word	0x2000ade0
20001d60:	2000ade4 	.word	0x2000ade4
20001d64:	2000add8 	.word	0x2000add8
20001d68:	2000addc 	.word	0x2000addc
20001d6c:	2000ad58 	.word	0x2000ad58
20001d70:	2000ad70 	.word	0x2000ad70
20001d74:	2000ad68 	.word	0x2000ad68
20001d78:	2000ad60 	.word	0x2000ad60
20001d7c:	2000ad9c 	.word	0x2000ad9c
20001d80:	2000ad94 	.word	0x2000ad94
20001d84:	2000ad8c 	.word	0x2000ad8c
20001d88:	2000ad88 	.word	0x2000ad88
20001d8c:	2000ad80 	.word	0x2000ad80
20001d90:	2000ad78 	.word	0x2000ad78
20001d94:	2000add0 	.word	0x2000add0
20001d98:	2000adc8 	.word	0x2000adc8
20001d9c:	2000adc0 	.word	0x2000adc0
20001da0:	2000adb8 	.word	0x2000adb8
20001da4:	2000adb0 	.word	0x2000adb0
20001da8:	2000ada8 	.word	0x2000ada8
20001dac:	2000ada4 	.word	0x2000ada4

20001db0 <save_ram>:
20001db0:	2280      	movs	r2, #128	; 0x80
20001db2:	b5f8      	push	{r3, r4, r5, r6, r7, lr}
20001db4:	4b1b      	ldr	r3, [pc, #108]	; (20001e24 <save_ram+0x74>)
20001db6:	000d      	movs	r5, r1
20001db8:	4f1b      	ldr	r7, [pc, #108]	; (20001e28 <save_ram+0x78>)
20001dba:	6819      	ldr	r1, [r3, #0]
20001dbc:	0304      	lsls	r4, r0, #12
20001dbe:	1909      	adds	r1, r1, r4
20001dc0:	0006      	movs	r6, r0
20001dc2:	0052      	lsls	r2, r2, #1
20001dc4:	0038      	movs	r0, r7
20001dc6:	f005 fc9b 	bl	20007700 <__wrap___aeabi_memcpy>
20001dca:	2380      	movs	r3, #128	; 0x80
20001dcc:	035b      	lsls	r3, r3, #13
20001dce:	469c      	mov	ip, r3
20001dd0:	2180      	movs	r1, #128	; 0x80
20001dd2:	4464      	add	r4, ip
20001dd4:	0020      	movs	r0, r4
20001dd6:	0149      	lsls	r1, r1, #5
20001dd8:	f008 fe6e 	bl	2000aab8 <flash_range_erase>
20001ddc:	07eb      	lsls	r3, r5, #31
20001dde:	d40b      	bmi.n	20001df8 <save_ram+0x48>
20001de0:	07ab      	lsls	r3, r5, #30
20001de2:	d414      	bmi.n	20001e0e <save_ram+0x5e>
20001de4:	2280      	movs	r2, #128	; 0x80
20001de6:	0039      	movs	r1, r7
20001de8:	0020      	movs	r0, r4
20001dea:	0052      	lsls	r2, r2, #1
20001dec:	f008 fea4 	bl	2000ab38 <flash_range_program>
20001df0:	480e      	ldr	r0, [pc, #56]	; (20001e2c <save_ram+0x7c>)
20001df2:	f005 fde1 	bl	200079b8 <__wrap_puts>
20001df6:	bdf8      	pop	{r3, r4, r5, r6, r7, pc}
20001df8:	0031      	movs	r1, r6
20001dfa:	480d      	ldr	r0, [pc, #52]	; (20001e30 <save_ram+0x80>)
20001dfc:	f005 fe92 	bl	20007b24 <__wrap_printf>
20001e00:	2280      	movs	r2, #128	; 0x80
20001e02:	0038      	movs	r0, r7
20001e04:	490b      	ldr	r1, [pc, #44]	; (20001e34 <save_ram+0x84>)
20001e06:	f005 fc7b 	bl	20007700 <__wrap___aeabi_memcpy>
20001e0a:	07ab      	lsls	r3, r5, #30
20001e0c:	d5ea      	bpl.n	20001de4 <save_ram+0x34>
20001e0e:	0031      	movs	r1, r6
20001e10:	4809      	ldr	r0, [pc, #36]	; (20001e38 <save_ram+0x88>)
20001e12:	f005 fe87 	bl	20007b24 <__wrap_printf>
20001e16:	2280      	movs	r2, #128	; 0x80
20001e18:	4908      	ldr	r1, [pc, #32]	; (20001e3c <save_ram+0x8c>)
20001e1a:	4809      	ldr	r0, [pc, #36]	; (20001e40 <save_ram+0x90>)
20001e1c:	f005 fc70 	bl	20007700 <__wrap___aeabi_memcpy>
20001e20:	e7e0      	b.n	20001de4 <save_ram+0x34>
20001e22:	46c0      	nop			; (mov r8, r8)
20001e24:	2000c5d8 	.word	0x2000c5d8
20001e28:	2000ff34 	.word	0x2000ff34
20001e2c:	2000b314 	.word	0x2000b314
20001e30:	2000b2d0 	.word	0x2000b2d0
20001e34:	20013374 	.word	0x20013374
20001e38:	2000b2f0 	.word	0x2000b2f0
20001e3c:	200133f4 	.word	0x200133f4
20001e40:	2000ffb4 	.word	0x2000ffb4

20001e44 <cli_save_ram_mp>:
20001e44:	b510      	push	{r4, lr}
20001e46:	480f      	ldr	r0, [pc, #60]	; (20001e84 <cli_save_ram_mp+0x40>)
20001e48:	f005 fe6c 	bl	20007b24 <__wrap_printf>
20001e4c:	480e      	ldr	r0, [pc, #56]	; (20001e88 <cli_save_ram_mp+0x44>)
20001e4e:	f005 fe7b 	bl	20007b48 <getchar_timeout_us>
20001e52:	1c43      	adds	r3, r0, #1
20001e54:	d014      	beq.n	20001e80 <cli_save_ram_mp+0x3c>
20001e56:	286d      	cmp	r0, #109	; 0x6d
20001e58:	d010      	beq.n	20001e7c <cli_save_ram_mp+0x38>
20001e5a:	dc0a      	bgt.n	20001e72 <cli_save_ram_mp+0x2e>
20001e5c:	284d      	cmp	r0, #77	; 0x4d
20001e5e:	d00d      	beq.n	20001e7c <cli_save_ram_mp+0x38>
20001e60:	3850      	subs	r0, #80	; 0x50
20001e62:	4241      	negs	r1, r0
20001e64:	4141      	adcs	r1, r0
20001e66:	0049      	lsls	r1, r1, #1
20001e68:	4b08      	ldr	r3, [pc, #32]	; (20001e8c <cli_save_ram_mp+0x48>)
20001e6a:	6818      	ldr	r0, [r3, #0]
20001e6c:	f7ff ffa0 	bl	20001db0 <save_ram>
20001e70:	bd10      	pop	{r4, pc}
20001e72:	3870      	subs	r0, #112	; 0x70
20001e74:	4241      	negs	r1, r0
20001e76:	4141      	adcs	r1, r0
20001e78:	0049      	lsls	r1, r1, #1
20001e7a:	e7f5      	b.n	20001e68 <cli_save_ram_mp+0x24>
20001e7c:	2101      	movs	r1, #1
20001e7e:	e7f3      	b.n	20001e68 <cli_save_ram_mp+0x24>
20001e80:	2100      	movs	r1, #0
20001e82:	e7f1      	b.n	20001e68 <cli_save_ram_mp+0x24>
20001e84:	2000b2b4 	.word	0x2000b2b4
20001e88:	00989680 	.word	0x00989680
20001e8c:	2000d33c 	.word	0x2000d33c

20001e90 <cmd_catalog>:
20001e90:	b5f0      	push	{r4, r5, r6, r7, lr}
20001e92:	4657      	mov	r7, sl
20001e94:	46de      	mov	lr, fp
20001e96:	464e      	mov	r6, r9
20001e98:	4645      	mov	r5, r8
20001e9a:	4b2d      	ldr	r3, [pc, #180]	; (20001f50 <cmd_catalog+0xc0>)
20001e9c:	b5e0      	push	{r5, r6, r7, lr}
20001e9e:	681b      	ldr	r3, [r3, #0]
20001ea0:	4683      	mov	fp, r0
20001ea2:	4699      	mov	r9, r3
20001ea4:	0303      	lsls	r3, r0, #12
20001ea6:	4698      	mov	r8, r3
20001ea8:	4b2a      	ldr	r3, [pc, #168]	; (20001f54 <cmd_catalog+0xc4>)
20001eaa:	2720      	movs	r7, #32
20001eac:	2402      	movs	r4, #2
20001eae:	469a      	mov	sl, r3
20001eb0:	b083      	sub	sp, #12
20001eb2:	e00d      	b.n	20001ed0 <cmd_catalog+0x40>
20001eb4:	2c03      	cmp	r4, #3
20001eb6:	d104      	bne.n	20001ec2 <cmd_catalog+0x32>
20001eb8:	2208      	movs	r2, #8
20001eba:	7833      	ldrb	r3, [r6, #0]
20001ebc:	3c01      	subs	r4, #1
20001ebe:	4393      	bics	r3, r2
20001ec0:	7033      	strb	r3, [r6, #0]
20001ec2:	2380      	movs	r3, #128	; 0x80
20001ec4:	015b      	lsls	r3, r3, #5
20001ec6:	469c      	mov	ip, r3
20001ec8:	3f01      	subs	r7, #1
20001eca:	44e0      	add	r8, ip
20001ecc:	2f02      	cmp	r7, #2
20001ece:	d032      	beq.n	20001f36 <cmd_catalog+0xa6>
20001ed0:	2106      	movs	r1, #6
20001ed2:	0038      	movs	r0, r7
20001ed4:	f003 fe22 	bl	20005b1c <__wrap___aeabi_idiv>
20001ed8:	2501      	movs	r5, #1
20001eda:	0003      	movs	r3, r0
20001edc:	4649      	mov	r1, r9
20001ede:	40a5      	lsls	r5, r4
20001ee0:	3308      	adds	r3, #8
20001ee2:	18ce      	adds	r6, r1, r3
20001ee4:	5ccb      	ldrb	r3, [r1, r3]
20001ee6:	b26d      	sxtb	r5, r5
20001ee8:	43ab      	bics	r3, r5
20001eea:	7033      	strb	r3, [r6, #0]
20001eec:	4653      	mov	r3, sl
20001eee:	4641      	mov	r1, r8
20001ef0:	681b      	ldr	r3, [r3, #0]
20001ef2:	0002      	movs	r2, r0
20001ef4:	5c5b      	ldrb	r3, [r3, r1]
20001ef6:	4818      	ldr	r0, [pc, #96]	; (20001f58 <cmd_catalog+0xc8>)
20001ef8:	3bff      	subs	r3, #255	; 0xff
20001efa:	4259      	negs	r1, r3
20001efc:	414b      	adcs	r3, r1
20001efe:	0021      	movs	r1, r4
20001f00:	9300      	str	r3, [sp, #0]
20001f02:	465b      	mov	r3, fp
20001f04:	f005 fe0e 	bl	20007b24 <__wrap_printf>
20001f08:	4653      	mov	r3, sl
20001f0a:	4642      	mov	r2, r8
20001f0c:	681b      	ldr	r3, [r3, #0]
20001f0e:	5c9b      	ldrb	r3, [r3, r2]
20001f10:	2bff      	cmp	r3, #255	; 0xff
20001f12:	d002      	beq.n	20001f1a <cmd_catalog+0x8a>
20001f14:	7833      	ldrb	r3, [r6, #0]
20001f16:	431d      	orrs	r5, r3
20001f18:	7035      	strb	r5, [r6, #0]
20001f1a:	3c01      	subs	r4, #1
20001f1c:	d2ca      	bcs.n	20001eb4 <cmd_catalog+0x24>
20001f1e:	227f      	movs	r2, #127	; 0x7f
20001f20:	7833      	ldrb	r3, [r6, #0]
20001f22:	3f01      	subs	r7, #1
20001f24:	4013      	ands	r3, r2
20001f26:	7033      	strb	r3, [r6, #0]
20001f28:	2380      	movs	r3, #128	; 0x80
20001f2a:	015b      	lsls	r3, r3, #5
20001f2c:	469c      	mov	ip, r3
20001f2e:	2406      	movs	r4, #6
20001f30:	44e0      	add	r8, ip
20001f32:	2f02      	cmp	r7, #2
20001f34:	d1cc      	bne.n	20001ed0 <cmd_catalog+0x40>
20001f36:	464a      	mov	r2, r9
20001f38:	2309      	movs	r3, #9
20001f3a:	7393      	strb	r3, [r2, #14]
20001f3c:	33e8      	adds	r3, #232	; 0xe8
20001f3e:	73d3      	strb	r3, [r2, #15]
20001f40:	b003      	add	sp, #12
20001f42:	bc3c      	pop	{r2, r3, r4, r5}
20001f44:	4690      	mov	r8, r2
20001f46:	4699      	mov	r9, r3
20001f48:	46a2      	mov	sl, r4
20001f4a:	46ab      	mov	fp, r5
20001f4c:	bdf0      	pop	{r4, r5, r6, r7, pc}
20001f4e:	46c0      	nop			; (mov r8, r8)
20001f50:	2000c5d4 	.word	0x2000c5d4
20001f54:	2000c5d8 	.word	0x2000c5d8
20001f58:	2000bbec 	.word	0x2000bbec

20001f5c <process_commands>:
20001f5c:	b5f0      	push	{r4, r5, r6, r7, lr}
20001f5e:	4657      	mov	r7, sl
20001f60:	46de      	mov	lr, fp
20001f62:	b580      	push	{r7, lr}
20001f64:	4fa3      	ldr	r7, [pc, #652]	; (200021f4 <process_commands+0x298>)
20001f66:	b085      	sub	sp, #20
20001f68:	683e      	ldr	r6, [r7, #0]
20001f6a:	79b3      	ldrb	r3, [r6, #6]
20001f6c:	2b93      	cmp	r3, #147	; 0x93
20001f6e:	d004      	beq.n	20001f7a <process_commands+0x1e>
20001f70:	b005      	add	sp, #20
20001f72:	bc0c      	pop	{r2, r3}
20001f74:	4692      	mov	sl, r2
20001f76:	469b      	mov	fp, r3
20001f78:	bdf0      	pop	{r4, r5, r6, r7, pc}
20001f7a:	79f3      	ldrb	r3, [r6, #7]
20001f7c:	2bf1      	cmp	r3, #241	; 0xf1
20001f7e:	d1f7      	bne.n	20001f70 <process_commands+0x14>
20001f80:	220f      	movs	r2, #15
20001f82:	7933      	ldrb	r3, [r6, #4]
20001f84:	4692      	mov	sl, r2
20001f86:	421a      	tst	r2, r3
20001f88:	d1f2      	bne.n	20001f70 <process_commands+0x14>
20001f8a:	4650      	mov	r0, sl
20001f8c:	7971      	ldrb	r1, [r6, #5]
20001f8e:	32f0      	adds	r2, #240	; 0xf0
20001f90:	0109      	lsls	r1, r1, #4
20001f92:	400a      	ands	r2, r1
20001f94:	091b      	lsrs	r3, r3, #4
20001f96:	18d5      	adds	r5, r2, r3
20001f98:	78f3      	ldrb	r3, [r6, #3]
20001f9a:	4018      	ands	r0, r3
20001f9c:	469b      	mov	fp, r3
20001f9e:	f004 f8d1 	bl	20006144 <__wrap___aeabi_i2d>
20001fa2:	4653      	mov	r3, sl
20001fa4:	78b4      	ldrb	r4, [r6, #2]
20001fa6:	9000      	str	r0, [sp, #0]
20001fa8:	9101      	str	r1, [sp, #4]
20001faa:	4023      	ands	r3, r4
20001fac:	0018      	movs	r0, r3
20001fae:	f004 f8c9 	bl	20006144 <__wrap___aeabi_i2d>
20001fb2:	465b      	mov	r3, fp
20001fb4:	9002      	str	r0, [sp, #8]
20001fb6:	9103      	str	r1, [sp, #12]
20001fb8:	0918      	lsrs	r0, r3, #4
20001fba:	f004 f8c3 	bl	20006144 <__wrap___aeabi_i2d>
20001fbe:	2200      	movs	r2, #0
20001fc0:	4b8d      	ldr	r3, [pc, #564]	; (200021f8 <process_commands+0x29c>)
20001fc2:	f004 f846 	bl	20006052 <__wrap___aeabi_dmul>
20001fc6:	9a00      	ldr	r2, [sp, #0]
20001fc8:	9b01      	ldr	r3, [sp, #4]
20001fca:	f004 f81b 	bl	20006004 <__wrap___aeabi_dadd>
20001fce:	2200      	movs	r2, #0
20001fd0:	4b89      	ldr	r3, [pc, #548]	; (200021f8 <process_commands+0x29c>)
20001fd2:	f004 f83e 	bl	20006052 <__wrap___aeabi_dmul>
20001fd6:	f004 f8cd 	bl	20006174 <__wrap___aeabi_d2iz>
20001fda:	f004 f8b3 	bl	20006144 <__wrap___aeabi_i2d>
20001fde:	9000      	str	r0, [sp, #0]
20001fe0:	9101      	str	r1, [sp, #4]
20001fe2:	0920      	lsrs	r0, r4, #4
20001fe4:	f004 f8ae 	bl	20006144 <__wrap___aeabi_i2d>
20001fe8:	2200      	movs	r2, #0
20001fea:	4b83      	ldr	r3, [pc, #524]	; (200021f8 <process_commands+0x29c>)
20001fec:	f004 f831 	bl	20006052 <__wrap___aeabi_dmul>
20001ff0:	9a02      	ldr	r2, [sp, #8]
20001ff2:	9b03      	ldr	r3, [sp, #12]
20001ff4:	f004 f806 	bl	20006004 <__wrap___aeabi_dadd>
20001ff8:	2200      	movs	r2, #0
20001ffa:	4b7f      	ldr	r3, [pc, #508]	; (200021f8 <process_commands+0x29c>)
20001ffc:	f004 f80b 	bl	20006016 <__wrap___aeabi_ddiv>
20002000:	0002      	movs	r2, r0
20002002:	000b      	movs	r3, r1
20002004:	9800      	ldr	r0, [sp, #0]
20002006:	9901      	ldr	r1, [sp, #4]
20002008:	f003 fffc 	bl	20006004 <__wrap___aeabi_dadd>
2000200c:	f004 f8b2 	bl	20006174 <__wrap___aeabi_d2iz>
20002010:	0004      	movs	r4, r0
20002012:	0029      	movs	r1, r5
20002014:	4879      	ldr	r0, [pc, #484]	; (200021fc <process_commands+0x2a0>)
20002016:	f005 fd85 	bl	20007b24 <__wrap_printf>
2000201a:	0022      	movs	r2, r4
2000201c:	0021      	movs	r1, r4
2000201e:	4878      	ldr	r0, [pc, #480]	; (20002200 <process_commands+0x2a4>)
20002020:	f005 fd80 	bl	20007b24 <__wrap_printf>
20002024:	2d47      	cmp	r5, #71	; 0x47
20002026:	dd00      	ble.n	2000202a <process_commands+0xce>
20002028:	e095      	b.n	20002156 <process_commands+0x1fa>
2000202a:	2d10      	cmp	r5, #16
2000202c:	dda0      	ble.n	20001f70 <process_commands+0x14>
2000202e:	002b      	movs	r3, r5
20002030:	3b11      	subs	r3, #17
20002032:	2b36      	cmp	r3, #54	; 0x36
20002034:	d89c      	bhi.n	20001f70 <process_commands+0x14>
20002036:	4a73      	ldr	r2, [pc, #460]	; (20002204 <process_commands+0x2a8>)
20002038:	009b      	lsls	r3, r3, #2
2000203a:	58d3      	ldr	r3, [r2, r3]
2000203c:	469f      	mov	pc, r3
2000203e:	2cdb      	cmp	r4, #219	; 0xdb
20002040:	d800      	bhi.n	20002044 <process_commands+0xe8>
20002042:	e0d2      	b.n	200021ea <process_commands+0x28e>
20002044:	210f      	movs	r1, #15
20002046:	683a      	ldr	r2, [r7, #0]
20002048:	7913      	ldrb	r3, [r2, #4]
2000204a:	438b      	bics	r3, r1
2000204c:	210b      	movs	r1, #11
2000204e:	430b      	orrs	r3, r1
20002050:	7113      	strb	r3, [r2, #4]
20002052:	e78d      	b.n	20001f70 <process_commands+0x14>
20002054:	2cf9      	cmp	r4, #249	; 0xf9
20002056:	d8f5      	bhi.n	20002044 <process_commands+0xe8>
20002058:	2102      	movs	r1, #2
2000205a:	0020      	movs	r0, r4
2000205c:	f7ff fea8 	bl	20001db0 <save_ram>
20002060:	e7f0      	b.n	20002044 <process_commands+0xe8>
20002062:	210f      	movs	r1, #15
20002064:	683a      	ldr	r2, [r7, #0]
20002066:	7913      	ldrb	r3, [r2, #4]
20002068:	438b      	bics	r3, r1
2000206a:	210b      	movs	r1, #11
2000206c:	430b      	orrs	r3, r1
2000206e:	7113      	strb	r3, [r2, #4]
20002070:	2cf9      	cmp	r4, #249	; 0xf9
20002072:	d900      	bls.n	20002076 <process_commands+0x11a>
20002074:	e77c      	b.n	20001f70 <process_commands+0x14>
20002076:	2101      	movs	r1, #1
20002078:	0020      	movs	r0, r4
2000207a:	f7ff fe99 	bl	20001db0 <save_ram>
2000207e:	e777      	b.n	20001f70 <process_commands+0x14>
20002080:	210f      	movs	r1, #15
20002082:	683a      	ldr	r2, [r7, #0]
20002084:	7913      	ldrb	r3, [r2, #4]
20002086:	438b      	bics	r3, r1
20002088:	210b      	movs	r1, #11
2000208a:	430b      	orrs	r3, r1
2000208c:	7113      	strb	r3, [r2, #4]
2000208e:	2cf9      	cmp	r4, #249	; 0xf9
20002090:	d900      	bls.n	20002094 <process_commands+0x138>
20002092:	e76d      	b.n	20001f70 <process_commands+0x14>
20002094:	2103      	movs	r1, #3
20002096:	0020      	movs	r0, r4
20002098:	f7ff fe8a 	bl	20001db0 <save_ram>
2000209c:	e768      	b.n	20001f70 <process_commands+0x14>
2000209e:	210f      	movs	r1, #15
200020a0:	683a      	ldr	r2, [r7, #0]
200020a2:	7913      	ldrb	r3, [r2, #4]
200020a4:	438b      	bics	r3, r1
200020a6:	210b      	movs	r1, #11
200020a8:	430b      	orrs	r3, r1
200020aa:	7113      	strb	r3, [r2, #4]
200020ac:	2cf9      	cmp	r4, #249	; 0xf9
200020ae:	d900      	bls.n	200020b2 <process_commands+0x156>
200020b0:	e75e      	b.n	20001f70 <process_commands+0x14>
200020b2:	0021      	movs	r1, r4
200020b4:	4854      	ldr	r0, [pc, #336]	; (20002208 <process_commands+0x2ac>)
200020b6:	f005 fd35 	bl	20007b24 <__wrap_printf>
200020ba:	4b54      	ldr	r3, [pc, #336]	; (2000220c <process_commands+0x2b0>)
200020bc:	0324      	lsls	r4, r4, #12
200020be:	6819      	ldr	r1, [r3, #0]
200020c0:	3480      	adds	r4, #128	; 0x80
200020c2:	2280      	movs	r2, #128	; 0x80
200020c4:	1909      	adds	r1, r1, r4
200020c6:	4852      	ldr	r0, [pc, #328]	; (20002210 <process_commands+0x2b4>)
200020c8:	f005 fb1a 	bl	20007700 <__wrap___aeabi_memcpy>
200020cc:	200a      	movs	r0, #10
200020ce:	f005 fc21 	bl	20007914 <__wrap_putchar>
200020d2:	e74d      	b.n	20001f70 <process_commands+0x14>
200020d4:	210f      	movs	r1, #15
200020d6:	683a      	ldr	r2, [r7, #0]
200020d8:	7913      	ldrb	r3, [r2, #4]
200020da:	438b      	bics	r3, r1
200020dc:	210b      	movs	r1, #11
200020de:	430b      	orrs	r3, r1
200020e0:	7113      	strb	r3, [r2, #4]
200020e2:	2cf9      	cmp	r4, #249	; 0xf9
200020e4:	d900      	bls.n	200020e8 <process_commands+0x18c>
200020e6:	e743      	b.n	20001f70 <process_commands+0x14>
200020e8:	0021      	movs	r1, r4
200020ea:	484a      	ldr	r0, [pc, #296]	; (20002214 <process_commands+0x2b8>)
200020ec:	f005 fd1a 	bl	20007b24 <__wrap_printf>
200020f0:	4b46      	ldr	r3, [pc, #280]	; (2000220c <process_commands+0x2b0>)
200020f2:	0324      	lsls	r4, r4, #12
200020f4:	6819      	ldr	r1, [r3, #0]
200020f6:	2280      	movs	r2, #128	; 0x80
200020f8:	1909      	adds	r1, r1, r4
200020fa:	4847      	ldr	r0, [pc, #284]	; (20002218 <process_commands+0x2bc>)
200020fc:	f005 fb00 	bl	20007700 <__wrap___aeabi_memcpy>
20002100:	200a      	movs	r0, #10
20002102:	f005 fc07 	bl	20007914 <__wrap_putchar>
20002106:	e733      	b.n	20001f70 <process_commands+0x14>
20002108:	210f      	movs	r1, #15
2000210a:	683a      	ldr	r2, [r7, #0]
2000210c:	7913      	ldrb	r3, [r2, #4]
2000210e:	438b      	bics	r3, r1
20002110:	210b      	movs	r1, #11
20002112:	430b      	orrs	r3, r1
20002114:	7113      	strb	r3, [r2, #4]
20002116:	2cf9      	cmp	r4, #249	; 0xf9
20002118:	d900      	bls.n	2000211c <process_commands+0x1c0>
2000211a:	e729      	b.n	20001f70 <process_commands+0x14>
2000211c:	0021      	movs	r1, r4
2000211e:	483d      	ldr	r0, [pc, #244]	; (20002214 <process_commands+0x2b8>)
20002120:	f005 fd00 	bl	20007b24 <__wrap_printf>
20002124:	4f39      	ldr	r7, [pc, #228]	; (2000220c <process_commands+0x2b0>)
20002126:	4d3c      	ldr	r5, [pc, #240]	; (20002218 <process_commands+0x2bc>)
20002128:	683b      	ldr	r3, [r7, #0]
2000212a:	0326      	lsls	r6, r4, #12
2000212c:	1999      	adds	r1, r3, r6
2000212e:	2280      	movs	r2, #128	; 0x80
20002130:	0028      	movs	r0, r5
20002132:	f005 fae5 	bl	20007700 <__wrap___aeabi_memcpy>
20002136:	0021      	movs	r1, r4
20002138:	4833      	ldr	r0, [pc, #204]	; (20002208 <process_commands+0x2ac>)
2000213a:	f005 fcf3 	bl	20007b24 <__wrap_printf>
2000213e:	0028      	movs	r0, r5
20002140:	6839      	ldr	r1, [r7, #0]
20002142:	3680      	adds	r6, #128	; 0x80
20002144:	2280      	movs	r2, #128	; 0x80
20002146:	1989      	adds	r1, r1, r6
20002148:	3080      	adds	r0, #128	; 0x80
2000214a:	f005 fad9 	bl	20007700 <__wrap___aeabi_memcpy>
2000214e:	200a      	movs	r0, #10
20002150:	f005 fbe0 	bl	20007914 <__wrap_putchar>
20002154:	e70c      	b.n	20001f70 <process_commands+0x14>
20002156:	2d95      	cmp	r5, #149	; 0x95
20002158:	d034      	beq.n	200021c4 <process_commands+0x268>
2000215a:	2d96      	cmp	r5, #150	; 0x96
2000215c:	d112      	bne.n	20002184 <process_commands+0x228>
2000215e:	4651      	mov	r1, sl
20002160:	683a      	ldr	r2, [r7, #0]
20002162:	482e      	ldr	r0, [pc, #184]	; (2000221c <process_commands+0x2c0>)
20002164:	7913      	ldrb	r3, [r2, #4]
20002166:	438b      	bics	r3, r1
20002168:	210b      	movs	r1, #11
2000216a:	430b      	orrs	r3, r1
2000216c:	7113      	strb	r3, [r2, #4]
2000216e:	f005 fcd9 	bl	20007b24 <__wrap_printf>
20002172:	2280      	movs	r2, #128	; 0x80
20002174:	2100      	movs	r1, #0
20002176:	4826      	ldr	r0, [pc, #152]	; (20002210 <process_commands+0x2b4>)
20002178:	f005 fabc 	bl	200076f4 <__wrap_memset>
2000217c:	200a      	movs	r0, #10
2000217e:	f005 fbc9 	bl	20007914 <__wrap_putchar>
20002182:	e6f5      	b.n	20001f70 <process_commands+0x14>
20002184:	2d94      	cmp	r5, #148	; 0x94
20002186:	d000      	beq.n	2000218a <process_commands+0x22e>
20002188:	e6f2      	b.n	20001f70 <process_commands+0x14>
2000218a:	4651      	mov	r1, sl
2000218c:	683a      	ldr	r2, [r7, #0]
2000218e:	4824      	ldr	r0, [pc, #144]	; (20002220 <process_commands+0x2c4>)
20002190:	7913      	ldrb	r3, [r2, #4]
20002192:	438b      	bics	r3, r1
20002194:	210b      	movs	r1, #11
20002196:	430b      	orrs	r3, r1
20002198:	7113      	strb	r3, [r2, #4]
2000219a:	f005 fcc3 	bl	20007b24 <__wrap_printf>
2000219e:	4c1e      	ldr	r4, [pc, #120]	; (20002218 <process_commands+0x2bc>)
200021a0:	2280      	movs	r2, #128	; 0x80
200021a2:	2100      	movs	r1, #0
200021a4:	0020      	movs	r0, r4
200021a6:	f005 faa5 	bl	200076f4 <__wrap_memset>
200021aa:	481c      	ldr	r0, [pc, #112]	; (2000221c <process_commands+0x2c0>)
200021ac:	f005 fcba 	bl	20007b24 <__wrap_printf>
200021b0:	0020      	movs	r0, r4
200021b2:	2280      	movs	r2, #128	; 0x80
200021b4:	2100      	movs	r1, #0
200021b6:	3080      	adds	r0, #128	; 0x80
200021b8:	f005 fa9c 	bl	200076f4 <__wrap_memset>
200021bc:	200a      	movs	r0, #10
200021be:	f005 fba9 	bl	20007914 <__wrap_putchar>
200021c2:	e6d5      	b.n	20001f70 <process_commands+0x14>
200021c4:	4651      	mov	r1, sl
200021c6:	683a      	ldr	r2, [r7, #0]
200021c8:	4815      	ldr	r0, [pc, #84]	; (20002220 <process_commands+0x2c4>)
200021ca:	7913      	ldrb	r3, [r2, #4]
200021cc:	438b      	bics	r3, r1
200021ce:	210b      	movs	r1, #11
200021d0:	430b      	orrs	r3, r1
200021d2:	7113      	strb	r3, [r2, #4]
200021d4:	f005 fca6 	bl	20007b24 <__wrap_printf>
200021d8:	2280      	movs	r2, #128	; 0x80
200021da:	2100      	movs	r1, #0
200021dc:	480e      	ldr	r0, [pc, #56]	; (20002218 <process_commands+0x2bc>)
200021de:	f005 fa89 	bl	200076f4 <__wrap_memset>
200021e2:	200a      	movs	r0, #10
200021e4:	f005 fb96 	bl	20007914 <__wrap_putchar>
200021e8:	e6c2      	b.n	20001f70 <process_commands+0x14>
200021ea:	0020      	movs	r0, r4
200021ec:	f7ff fe50 	bl	20001e90 <cmd_catalog>
200021f0:	e728      	b.n	20002044 <process_commands+0xe8>
200021f2:	46c0      	nop			; (mov r8, r8)
200021f4:	2000c5d4 	.word	0x2000c5d4
200021f8:	40240000 	.word	0x40240000
200021fc:	2000bc00 	.word	0x2000bc00
20002200:	2000bc10 	.word	0x2000bc10
20002204:	2000bc20 	.word	0x2000bc20
20002208:	2000b264 	.word	0x2000b264
2000220c:	2000c5d8 	.word	0x2000c5d8
20002210:	200133f4 	.word	0x200133f4
20002214:	2000b23c 	.word	0x2000b23c
20002218:	20013374 	.word	0x20013374
2000221c:	2000b2a0 	.word	0x2000b2a0
20002220:	2000b28c 	.word	0x2000b28c

20002224 <main>:
20002224:	b5f0      	push	{r4, r5, r6, r7, lr}
20002226:	46de      	mov	lr, fp
20002228:	4657      	mov	r7, sl
2000222a:	464e      	mov	r6, r9
2000222c:	4645      	mov	r5, r8
2000222e:	b5e0      	push	{r5, r6, r7, lr}
20002230:	b089      	sub	sp, #36	; 0x24
20002232:	4859      	ldr	r0, [pc, #356]	; (20002398 <main+0x174>)
20002234:	ab07      	add	r3, sp, #28
20002236:	aa06      	add	r2, sp, #24
20002238:	a905      	add	r1, sp, #20
2000223a:	f000 f90f 	bl	2000245c <check_sys_clock_khz>
2000223e:	2800      	cmp	r0, #0
20002240:	d103      	bne.n	2000224a <main+0x26>
20002242:	4955      	ldr	r1, [pc, #340]	; (20002398 <main+0x174>)
20002244:	4855      	ldr	r0, [pc, #340]	; (2000239c <main+0x178>)
20002246:	f001 fe19 	bl	20003e7c <panic>
2000224a:	9a07      	ldr	r2, [sp, #28]
2000224c:	9906      	ldr	r1, [sp, #24]
2000224e:	9805      	ldr	r0, [sp, #20]
20002250:	24d0      	movs	r4, #208	; 0xd0
20002252:	f000 f8c7 	bl	200023e4 <set_sys_clock_pll>
20002256:	2500      	movs	r5, #0
20002258:	f005 fc70 	bl	20007b3c <stdio_init_all>
2000225c:	2601      	movs	r6, #1
2000225e:	0624      	lsls	r4, r4, #24
20002260:	0028      	movs	r0, r5
20002262:	f000 f9e1 	bl	20002628 <gpio_init>
20002266:	0033      	movs	r3, r6
20002268:	40ab      	lsls	r3, r5
2000226a:	0028      	movs	r0, r5
2000226c:	2200      	movs	r2, #0
2000226e:	2100      	movs	r1, #0
20002270:	62a3      	str	r3, [r4, #40]	; 0x28
20002272:	3501      	adds	r5, #1
20002274:	f000 f9c0 	bl	200025f8 <gpio_set_pulls>
20002278:	2d17      	cmp	r5, #23
2000227a:	d1f1      	bne.n	20002260 <main+0x3c>
2000227c:	200c      	movs	r0, #12
2000227e:	f000 f9d3 	bl	20002628 <gpio_init>
20002282:	2380      	movs	r3, #128	; 0x80
20002284:	015b      	lsls	r3, r3, #5
20002286:	6263      	str	r3, [r4, #36]	; 0x24
20002288:	200b      	movs	r0, #11
2000228a:	61a3      	str	r3, [r4, #24]
2000228c:	f000 f9cc 	bl	20002628 <gpio_init>
20002290:	2380      	movs	r3, #128	; 0x80
20002292:	011b      	lsls	r3, r3, #4
20002294:	6263      	str	r3, [r4, #36]	; 0x24
20002296:	2010      	movs	r0, #16
20002298:	61a3      	str	r3, [r4, #24]
2000229a:	6163      	str	r3, [r4, #20]
2000229c:	f000 f9c4 	bl	20002628 <gpio_init>
200022a0:	2380      	movs	r3, #128	; 0x80
200022a2:	025b      	lsls	r3, r3, #9
200022a4:	6263      	str	r3, [r4, #36]	; 0x24
200022a6:	201a      	movs	r0, #26
200022a8:	61a3      	str	r3, [r4, #24]
200022aa:	f7fe fde5 	bl	20000e78 <set_gpio_input>
200022ae:	201b      	movs	r0, #27
200022b0:	f7fe fde2 	bl	20000e78 <set_gpio_input>
200022b4:	201c      	movs	r0, #28
200022b6:	f7fe fddf 	bl	20000e78 <set_gpio_input>
200022ba:	4839      	ldr	r0, [pc, #228]	; (200023a0 <main+0x17c>)
200022bc:	f008 fa3e 	bl	2000a73c <multicore_launch_core1>
200022c0:	20fa      	movs	r0, #250	; 0xfa
200022c2:	00c0      	lsls	r0, r0, #3
200022c4:	f001 f8c8 	bl	20003458 <sleep_ms>
200022c8:	4836      	ldr	r0, [pc, #216]	; (200023a4 <main+0x180>)
200022ca:	f005 fb75 	bl	200079b8 <__wrap_puts>
200022ce:	2100      	movs	r1, #0
200022d0:	4835      	ldr	r0, [pc, #212]	; (200023a8 <main+0x184>)
200022d2:	f005 fc27 	bl	20007b24 <__wrap_printf>
200022d6:	4c35      	ldr	r4, [pc, #212]	; (200023ac <main+0x188>)
200022d8:	2280      	movs	r2, #128	; 0x80
200022da:	6821      	ldr	r1, [r4, #0]
200022dc:	4834      	ldr	r0, [pc, #208]	; (200023b0 <main+0x18c>)
200022de:	f005 fa0f 	bl	20007700 <__wrap___aeabi_memcpy>
200022e2:	2100      	movs	r1, #0
200022e4:	4833      	ldr	r0, [pc, #204]	; (200023b4 <main+0x190>)
200022e6:	f005 fc1d 	bl	20007b24 <__wrap_printf>
200022ea:	6821      	ldr	r1, [r4, #0]
200022ec:	2280      	movs	r2, #128	; 0x80
200022ee:	3180      	adds	r1, #128	; 0x80
200022f0:	4831      	ldr	r0, [pc, #196]	; (200023b8 <main+0x194>)
200022f2:	f005 fa05 	bl	20007700 <__wrap___aeabi_memcpy>
200022f6:	200a      	movs	r0, #10
200022f8:	f005 fb0c 	bl	20007914 <__wrap_putchar>
200022fc:	20fa      	movs	r0, #250	; 0xfa
200022fe:	4b2f      	ldr	r3, [pc, #188]	; (200023bc <main+0x198>)
20002300:	0080      	lsls	r0, r0, #2
20002302:	469b      	mov	fp, r3
20002304:	4b2e      	ldr	r3, [pc, #184]	; (200023c0 <main+0x19c>)
20002306:	4c2f      	ldr	r4, [pc, #188]	; (200023c4 <main+0x1a0>)
20002308:	469a      	mov	sl, r3
2000230a:	4b2f      	ldr	r3, [pc, #188]	; (200023c8 <main+0x1a4>)
2000230c:	4f2f      	ldr	r7, [pc, #188]	; (200023cc <main+0x1a8>)
2000230e:	4699      	mov	r9, r3
20002310:	4b2f      	ldr	r3, [pc, #188]	; (200023d0 <main+0x1ac>)
20002312:	4e30      	ldr	r6, [pc, #192]	; (200023d4 <main+0x1b0>)
20002314:	4698      	mov	r8, r3
20002316:	350a      	adds	r5, #10
20002318:	f005 fc16 	bl	20007b48 <getchar_timeout_us>
2000231c:	1c43      	adds	r3, r0, #1
2000231e:	d034      	beq.n	2000238a <main+0x166>
20002320:	0022      	movs	r2, r4
20002322:	2300      	movs	r3, #0
20002324:	e003      	b.n	2000232e <main+0x10a>
20002326:	3301      	adds	r3, #1
20002328:	320c      	adds	r2, #12
2000232a:	2b22      	cmp	r3, #34	; 0x22
2000232c:	d025      	beq.n	2000237a <main+0x156>
2000232e:	7811      	ldrb	r1, [r2, #0]
20002330:	4288      	cmp	r0, r1
20002332:	d1f8      	bne.n	20002326 <main+0x102>
20002334:	465a      	mov	r2, fp
20002336:	6010      	str	r0, [r2, #0]
20002338:	005a      	lsls	r2, r3, #1
2000233a:	18d3      	adds	r3, r2, r3
2000233c:	009b      	lsls	r3, r3, #2
2000233e:	18e3      	adds	r3, r4, r3
20002340:	689b      	ldr	r3, [r3, #8]
20002342:	4798      	blx	r3
20002344:	4651      	mov	r1, sl
20002346:	4824      	ldr	r0, [pc, #144]	; (200023d8 <main+0x1b4>)
20002348:	f005 fbec 	bl	20007b24 <__wrap_printf>
2000234c:	4643      	mov	r3, r8
2000234e:	681b      	ldr	r3, [r3, #0]
20002350:	6839      	ldr	r1, [r7, #0]
20002352:	1e5a      	subs	r2, r3, #1
20002354:	4193      	sbcs	r3, r2
20002356:	6832      	ldr	r2, [r6, #0]
20002358:	9101      	str	r1, [sp, #4]
2000235a:	1e50      	subs	r0, r2, #1
2000235c:	4182      	sbcs	r2, r0
2000235e:	4252      	negs	r2, r2
20002360:	402a      	ands	r2, r5
20002362:	3220      	adds	r2, #32
20002364:	9202      	str	r2, [sp, #8]
20002366:	464a      	mov	r2, r9
20002368:	9100      	str	r1, [sp, #0]
2000236a:	6812      	ldr	r2, [r2, #0]
2000236c:	425b      	negs	r3, r3
2000236e:	402b      	ands	r3, r5
20002370:	0011      	movs	r1, r2
20002372:	481a      	ldr	r0, [pc, #104]	; (200023dc <main+0x1b8>)
20002374:	3320      	adds	r3, #32
20002376:	f005 fbd5 	bl	20007b24 <__wrap_printf>
2000237a:	f7ff fdef 	bl	20001f5c <process_commands>
2000237e:	20fa      	movs	r0, #250	; 0xfa
20002380:	0080      	lsls	r0, r0, #2
20002382:	f005 fbe1 	bl	20007b48 <getchar_timeout_us>
20002386:	1c43      	adds	r3, r0, #1
20002388:	d1ca      	bne.n	20002320 <main+0xfc>
2000238a:	f005 fb4b 	bl	20007a24 <stdio_flush>
2000238e:	4814      	ldr	r0, [pc, #80]	; (200023e0 <main+0x1bc>)
20002390:	f005 fbc8 	bl	20007b24 <__wrap_printf>
20002394:	e7f1      	b.n	2000237a <main+0x156>
20002396:	46c0      	nop			; (mov r8, r8)
20002398:	00041eb0 	.word	0x00041eb0
2000239c:	2000bcfc 	.word	0x2000bcfc
200023a0:	20000399 	.word	0x20000399
200023a4:	2000bd30 	.word	0x2000bd30
200023a8:	2000b23c 	.word	0x2000b23c
200023ac:	2000c5d8 	.word	0x2000c5d8
200023b0:	20013374 	.word	0x20013374
200023b4:	2000b264 	.word	0x2000b264
200023b8:	200133f4 	.word	0x200133f4
200023bc:	2000d320 	.word	0x2000d320
200023c0:	2000d37c 	.word	0x2000d37c
200023c4:	2000c5dc 	.word	0x2000c5dc
200023c8:	2000d33c 	.word	0x2000d33c
200023cc:	2000cd58 	.word	0x2000cd58
200023d0:	2000cd70 	.word	0x2000cd70
200023d4:	2000cd6c 	.word	0x2000cd6c
200023d8:	2000bb9c 	.word	0x2000bb9c
200023dc:	2000bbb4 	.word	0x2000bbb4
200023e0:	2000bbe8 	.word	0x2000bbe8

200023e4 <set_sys_clock_pll>:
200023e4:	b5f0      	push	{r4, r5, r6, r7, lr}
200023e6:	b083      	sub	sp, #12
200023e8:	0005      	movs	r5, r0
200023ea:	000e      	movs	r6, r1
200023ec:	0014      	movs	r4, r2
200023ee:	f000 f9ab 	bl	20002748 <running_on_fpga>
200023f2:	2800      	cmp	r0, #0
200023f4:	d001      	beq.n	200023fa <set_sys_clock_pll+0x16>
200023f6:	b003      	add	sp, #12
200023f8:	bdf0      	pop	{r4, r5, r6, r7, pc}
200023fa:	4f15      	ldr	r7, [pc, #84]	; (20002450 <set_sys_clock_pll+0x6c>)
200023fc:	2201      	movs	r2, #1
200023fe:	003b      	movs	r3, r7
20002400:	2101      	movs	r1, #1
20002402:	9700      	str	r7, [sp, #0]
20002404:	3005      	adds	r0, #5
20002406:	f001 fd57 	bl	20003eb8 <clock_configure>
2000240a:	0033      	movs	r3, r6
2000240c:	002a      	movs	r2, r5
2000240e:	9400      	str	r4, [sp, #0]
20002410:	2101      	movs	r1, #1
20002412:	4810      	ldr	r0, [pc, #64]	; (20002454 <set_sys_clock_pll+0x70>)
20002414:	f001 ff3e 	bl	20004294 <pll_init>
20002418:	0021      	movs	r1, r4
2000241a:	0028      	movs	r0, r5
2000241c:	4371      	muls	r1, r6
2000241e:	f003 fba5 	bl	20005b6c <__wrap___aeabi_uidiv>
20002422:	0004      	movs	r4, r0
20002424:	4b0c      	ldr	r3, [pc, #48]	; (20002458 <set_sys_clock_pll+0x74>)
20002426:	2200      	movs	r2, #0
20002428:	9300      	str	r3, [sp, #0]
2000242a:	2102      	movs	r1, #2
2000242c:	2004      	movs	r0, #4
2000242e:	f001 fd43 	bl	20003eb8 <clock_configure>
20002432:	0023      	movs	r3, r4
20002434:	2200      	movs	r2, #0
20002436:	2101      	movs	r1, #1
20002438:	9400      	str	r4, [sp, #0]
2000243a:	2005      	movs	r0, #5
2000243c:	f001 fd3c 	bl	20003eb8 <clock_configure>
20002440:	003b      	movs	r3, r7
20002442:	2202      	movs	r2, #2
20002444:	2100      	movs	r1, #0
20002446:	9700      	str	r7, [sp, #0]
20002448:	2006      	movs	r0, #6
2000244a:	f001 fd35 	bl	20003eb8 <clock_configure>
2000244e:	e7d2      	b.n	200023f6 <set_sys_clock_pll+0x12>
20002450:	02dc6c00 	.word	0x02dc6c00
20002454:	40028000 	.word	0x40028000
20002458:	00b71b00 	.word	0x00b71b00

2000245c <check_sys_clock_khz>:
2000245c:	b5f0      	push	{r4, r5, r6, r7, lr}
2000245e:	46de      	mov	lr, fp
20002460:	4657      	mov	r7, sl
20002462:	464e      	mov	r6, r9
20002464:	4645      	mov	r5, r8
20002466:	b5e0      	push	{r5, r6, r7, lr}
20002468:	0007      	movs	r7, r0
2000246a:	b083      	sub	sp, #12
2000246c:	2004      	movs	r0, #4
2000246e:	469b      	mov	fp, r3
20002470:	9100      	str	r1, [sp, #0]
20002472:	9201      	str	r2, [sp, #4]
20002474:	f001 ff08 	bl	20004288 <clock_get_hz>
20002478:	21fa      	movs	r1, #250	; 0xfa
2000247a:	0089      	lsls	r1, r1, #2
2000247c:	f003 fb76 	bl	20005b6c <__wrap___aeabi_uidiv>
20002480:	2332      	movs	r3, #50	; 0x32
20002482:	4682      	mov	sl, r0
20002484:	33ff      	adds	r3, #255	; 0xff
20002486:	4699      	mov	r9, r3
20002488:	0086      	lsls	r6, r0, #2
2000248a:	4456      	add	r6, sl
2000248c:	01b6      	lsls	r6, r6, #6
2000248e:	4b4c      	ldr	r3, [pc, #304]	; (200025c0 <check_sys_clock_khz+0x164>)
20002490:	4a4c      	ldr	r2, [pc, #304]	; (200025c4 <check_sys_clock_khz+0x168>)
20002492:	18f3      	adds	r3, r6, r3
20002494:	2407      	movs	r4, #7
20002496:	4293      	cmp	r3, r2
20002498:	d90b      	bls.n	200024b2 <check_sys_clock_khz+0x56>
2000249a:	2301      	movs	r3, #1
2000249c:	425b      	negs	r3, r3
2000249e:	469c      	mov	ip, r3
200024a0:	4653      	mov	r3, sl
200024a2:	44e1      	add	r9, ip
200024a4:	1af6      	subs	r6, r6, r3
200024a6:	464b      	mov	r3, r9
200024a8:	2b00      	cmp	r3, #0
200024aa:	d1f0      	bne.n	2000248e <check_sys_clock_khz+0x32>
200024ac:	2000      	movs	r0, #0
200024ae:	e05a      	b.n	20002566 <check_sys_clock_khz+0x10a>
200024b0:	2401      	movs	r4, #1
200024b2:	0021      	movs	r1, r4
200024b4:	0030      	movs	r0, r6
200024b6:	4361      	muls	r1, r4
200024b8:	f003 fb58 	bl	20005b6c <__wrap___aeabi_uidiv>
200024bc:	4287      	cmp	r7, r0
200024be:	d059      	beq.n	20002574 <check_sys_clock_khz+0x118>
200024c0:	1e63      	subs	r3, r4, #1
200024c2:	4698      	mov	r8, r3
200024c4:	2c01      	cmp	r4, #1
200024c6:	d0e8      	beq.n	2000249a <check_sys_clock_khz+0x3e>
200024c8:	001d      	movs	r5, r3
200024ca:	4365      	muls	r5, r4
200024cc:	0030      	movs	r0, r6
200024ce:	0029      	movs	r1, r5
200024d0:	f003 fb4c 	bl	20005b6c <__wrap___aeabi_uidiv>
200024d4:	4287      	cmp	r7, r0
200024d6:	d051      	beq.n	2000257c <check_sys_clock_khz+0x120>
200024d8:	1ea3      	subs	r3, r4, #2
200024da:	4698      	mov	r8, r3
200024dc:	2c02      	cmp	r4, #2
200024de:	d0e7      	beq.n	200024b0 <check_sys_clock_khz+0x54>
200024e0:	1b2d      	subs	r5, r5, r4
200024e2:	0029      	movs	r1, r5
200024e4:	0030      	movs	r0, r6
200024e6:	f003 fb41 	bl	20005b6c <__wrap___aeabi_uidiv>
200024ea:	4287      	cmp	r7, r0
200024ec:	d049      	beq.n	20002582 <check_sys_clock_khz+0x126>
200024ee:	1ee3      	subs	r3, r4, #3
200024f0:	4698      	mov	r8, r3
200024f2:	2c03      	cmp	r4, #3
200024f4:	d04b      	beq.n	2000258e <check_sys_clock_khz+0x132>
200024f6:	1b2d      	subs	r5, r5, r4
200024f8:	0029      	movs	r1, r5
200024fa:	0030      	movs	r0, r6
200024fc:	f003 fb36 	bl	20005b6c <__wrap___aeabi_uidiv>
20002500:	4287      	cmp	r7, r0
20002502:	d046      	beq.n	20002592 <check_sys_clock_khz+0x136>
20002504:	1f23      	subs	r3, r4, #4
20002506:	4698      	mov	r8, r3
20002508:	2c04      	cmp	r4, #4
2000250a:	d048      	beq.n	2000259e <check_sys_clock_khz+0x142>
2000250c:	1b2d      	subs	r5, r5, r4
2000250e:	0029      	movs	r1, r5
20002510:	0030      	movs	r0, r6
20002512:	f003 fb2b 	bl	20005b6c <__wrap___aeabi_uidiv>
20002516:	4287      	cmp	r7, r0
20002518:	d043      	beq.n	200025a2 <check_sys_clock_khz+0x146>
2000251a:	1f63      	subs	r3, r4, #5
2000251c:	4698      	mov	r8, r3
2000251e:	2c05      	cmp	r4, #5
20002520:	d045      	beq.n	200025ae <check_sys_clock_khz+0x152>
20002522:	1b2d      	subs	r5, r5, r4
20002524:	0029      	movs	r1, r5
20002526:	0030      	movs	r0, r6
20002528:	f003 fb20 	bl	20005b6c <__wrap___aeabi_uidiv>
2000252c:	4287      	cmp	r7, r0
2000252e:	d040      	beq.n	200025b2 <check_sys_clock_khz+0x156>
20002530:	2c06      	cmp	r4, #6
20002532:	d042      	beq.n	200025ba <check_sys_clock_khz+0x15e>
20002534:	0030      	movs	r0, r6
20002536:	1fe9      	subs	r1, r5, #7
20002538:	f003 fb18 	bl	20005b6c <__wrap___aeabi_uidiv>
2000253c:	2406      	movs	r4, #6
2000253e:	4287      	cmp	r7, r0
20002540:	d1b7      	bne.n	200024b2 <check_sys_clock_khz+0x56>
20002542:	2900      	cmp	r1, #0
20002544:	d1b5      	bne.n	200024b2 <check_sys_clock_khz+0x56>
20002546:	2301      	movs	r3, #1
20002548:	2407      	movs	r4, #7
2000254a:	4698      	mov	r8, r3
2000254c:	0173      	lsls	r3, r6, #5
2000254e:	1b9b      	subs	r3, r3, r6
20002550:	009b      	lsls	r3, r3, #2
20002552:	199e      	adds	r6, r3, r6
20002554:	9b00      	ldr	r3, [sp, #0]
20002556:	00f6      	lsls	r6, r6, #3
20002558:	601e      	str	r6, [r3, #0]
2000255a:	9b01      	ldr	r3, [sp, #4]
2000255c:	4642      	mov	r2, r8
2000255e:	601c      	str	r4, [r3, #0]
20002560:	465b      	mov	r3, fp
20002562:	2001      	movs	r0, #1
20002564:	601a      	str	r2, [r3, #0]
20002566:	b003      	add	sp, #12
20002568:	bc3c      	pop	{r2, r3, r4, r5}
2000256a:	4690      	mov	r8, r2
2000256c:	4699      	mov	r9, r3
2000256e:	46a2      	mov	sl, r4
20002570:	46ab      	mov	fp, r5
20002572:	bdf0      	pop	{r4, r5, r6, r7, pc}
20002574:	2900      	cmp	r1, #0
20002576:	d1a3      	bne.n	200024c0 <check_sys_clock_khz+0x64>
20002578:	46a0      	mov	r8, r4
2000257a:	e7e7      	b.n	2000254c <check_sys_clock_khz+0xf0>
2000257c:	2900      	cmp	r1, #0
2000257e:	d1ab      	bne.n	200024d8 <check_sys_clock_khz+0x7c>
20002580:	e7e4      	b.n	2000254c <check_sys_clock_khz+0xf0>
20002582:	2900      	cmp	r1, #0
20002584:	d0e2      	beq.n	2000254c <check_sys_clock_khz+0xf0>
20002586:	1ee3      	subs	r3, r4, #3
20002588:	4698      	mov	r8, r3
2000258a:	2c03      	cmp	r4, #3
2000258c:	d1b3      	bne.n	200024f6 <check_sys_clock_khz+0x9a>
2000258e:	2402      	movs	r4, #2
20002590:	e78f      	b.n	200024b2 <check_sys_clock_khz+0x56>
20002592:	2900      	cmp	r1, #0
20002594:	d0da      	beq.n	2000254c <check_sys_clock_khz+0xf0>
20002596:	1f23      	subs	r3, r4, #4
20002598:	4698      	mov	r8, r3
2000259a:	2c04      	cmp	r4, #4
2000259c:	d1b6      	bne.n	2000250c <check_sys_clock_khz+0xb0>
2000259e:	2403      	movs	r4, #3
200025a0:	e787      	b.n	200024b2 <check_sys_clock_khz+0x56>
200025a2:	2900      	cmp	r1, #0
200025a4:	d0d2      	beq.n	2000254c <check_sys_clock_khz+0xf0>
200025a6:	1f63      	subs	r3, r4, #5
200025a8:	4698      	mov	r8, r3
200025aa:	2c05      	cmp	r4, #5
200025ac:	d1b9      	bne.n	20002522 <check_sys_clock_khz+0xc6>
200025ae:	2404      	movs	r4, #4
200025b0:	e77f      	b.n	200024b2 <check_sys_clock_khz+0x56>
200025b2:	2900      	cmp	r1, #0
200025b4:	d0ca      	beq.n	2000254c <check_sys_clock_khz+0xf0>
200025b6:	2c06      	cmp	r4, #6
200025b8:	d1bc      	bne.n	20002534 <check_sys_clock_khz+0xd8>
200025ba:	2405      	movs	r4, #5
200025bc:	e779      	b.n	200024b2 <check_sys_clock_khz+0x56>
200025be:	46c0      	nop			; (mov r8, r8)
200025c0:	fff48e50 	.word	0xfff48e50
200025c4:	000cf850 	.word	0x000cf850

200025c8 <gpio_set_function>:
200025c8:	4a09      	ldr	r2, [pc, #36]	; (200025f0 <gpio_set_function+0x28>)
200025ca:	0083      	lsls	r3, r0, #2
200025cc:	4694      	mov	ip, r2
200025ce:	2240      	movs	r2, #64	; 0x40
200025d0:	4463      	add	r3, ip
200025d2:	b510      	push	{r4, lr}
200025d4:	681c      	ldr	r4, [r3, #0]
200025d6:	00c0      	lsls	r0, r0, #3
200025d8:	4062      	eors	r2, r4
200025da:	24c0      	movs	r4, #192	; 0xc0
200025dc:	4014      	ands	r4, r2
200025de:	2280      	movs	r2, #128	; 0x80
200025e0:	0152      	lsls	r2, r2, #5
200025e2:	4313      	orrs	r3, r2
200025e4:	601c      	str	r4, [r3, #0]
200025e6:	4b03      	ldr	r3, [pc, #12]	; (200025f4 <gpio_set_function+0x2c>)
200025e8:	469c      	mov	ip, r3
200025ea:	4460      	add	r0, ip
200025ec:	6041      	str	r1, [r0, #4]
200025ee:	bd10      	pop	{r4, pc}
200025f0:	4001c004 	.word	0x4001c004
200025f4:	40014000 	.word	0x40014000

200025f8 <gpio_set_pulls>:
200025f8:	4b0a      	ldr	r3, [pc, #40]	; (20002624 <gpio_set_pulls+0x2c>)
200025fa:	0080      	lsls	r0, r0, #2
200025fc:	469c      	mov	ip, r3
200025fe:	2304      	movs	r3, #4
20002600:	4460      	add	r0, ip
20002602:	2900      	cmp	r1, #0
20002604:	d001      	beq.n	2000260a <gpio_set_pulls+0x12>
20002606:	230c      	movs	r3, #12
20002608:	2108      	movs	r1, #8
2000260a:	2a00      	cmp	r2, #0
2000260c:	d100      	bne.n	20002610 <gpio_set_pulls+0x18>
2000260e:	000b      	movs	r3, r1
20002610:	6802      	ldr	r2, [r0, #0]
20002612:	4053      	eors	r3, r2
20002614:	220c      	movs	r2, #12
20002616:	401a      	ands	r2, r3
20002618:	2380      	movs	r3, #128	; 0x80
2000261a:	015b      	lsls	r3, r3, #5
2000261c:	4318      	orrs	r0, r3
2000261e:	6002      	str	r2, [r0, #0]
20002620:	4770      	bx	lr
20002622:	46c0      	nop			; (mov r8, r8)
20002624:	4001c004 	.word	0x4001c004

20002628 <gpio_init>:
20002628:	2301      	movs	r3, #1
2000262a:	22d0      	movs	r2, #208	; 0xd0
2000262c:	4083      	lsls	r3, r0
2000262e:	0612      	lsls	r2, r2, #24
20002630:	6293      	str	r3, [r2, #40]	; 0x28
20002632:	6193      	str	r3, [r2, #24]
20002634:	4a09      	ldr	r2, [pc, #36]	; (2000265c <gpio_init+0x34>)
20002636:	0083      	lsls	r3, r0, #2
20002638:	4694      	mov	ip, r2
2000263a:	2240      	movs	r2, #64	; 0x40
2000263c:	4463      	add	r3, ip
2000263e:	6819      	ldr	r1, [r3, #0]
20002640:	00c0      	lsls	r0, r0, #3
20002642:	404a      	eors	r2, r1
20002644:	21c0      	movs	r1, #192	; 0xc0
20002646:	4011      	ands	r1, r2
20002648:	2280      	movs	r2, #128	; 0x80
2000264a:	0152      	lsls	r2, r2, #5
2000264c:	4313      	orrs	r3, r2
2000264e:	6019      	str	r1, [r3, #0]
20002650:	4b03      	ldr	r3, [pc, #12]	; (20002660 <gpio_init+0x38>)
20002652:	469c      	mov	ip, r3
20002654:	2305      	movs	r3, #5
20002656:	4460      	add	r0, ip
20002658:	6043      	str	r3, [r0, #4]
2000265a:	4770      	bx	lr
2000265c:	4001c004 	.word	0x4001c004
20002660:	40014000 	.word	0x40014000

20002664 <hw_claim_or_assert>:
20002664:	b5f8      	push	{r3, r4, r5, r6, r7, lr}
20002666:	f3ef 8710 	mrs	r7, PRIMASK
2000266a:	b672      	cpsid	i
2000266c:	4e0e      	ldr	r6, [pc, #56]	; (200026a8 <hw_claim_or_assert+0x44>)
2000266e:	6833      	ldr	r3, [r6, #0]
20002670:	2b00      	cmp	r3, #0
20002672:	d0fc      	beq.n	2000266e <hw_claim_or_assert+0xa>
20002674:	f3bf 8f5f 	dmb	sy
20002678:	08cb      	lsrs	r3, r1, #3
2000267a:	18c4      	adds	r4, r0, r3
2000267c:	2507      	movs	r5, #7
2000267e:	46a4      	mov	ip, r4
20002680:	5cc4      	ldrb	r4, [r0, r3]
20002682:	2301      	movs	r3, #1
20002684:	400d      	ands	r5, r1
20002686:	40ab      	lsls	r3, r5
20002688:	0018      	movs	r0, r3
2000268a:	4020      	ands	r0, r4
2000268c:	4223      	tst	r3, r4
2000268e:	d108      	bne.n	200026a2 <hw_claim_or_assert+0x3e>
20002690:	4662      	mov	r2, ip
20002692:	4323      	orrs	r3, r4
20002694:	7013      	strb	r3, [r2, #0]
20002696:	f3bf 8f5f 	dmb	sy
2000269a:	6030      	str	r0, [r6, #0]
2000269c:	f387 8810 	msr	PRIMASK, r7
200026a0:	bdf8      	pop	{r3, r4, r5, r6, r7, pc}
200026a2:	0010      	movs	r0, r2
200026a4:	f001 fbea 	bl	20003e7c <panic>
200026a8:	d000012c 	.word	0xd000012c

200026ac <hw_claim_unused_from_range>:
200026ac:	b5f8      	push	{r3, r4, r5, r6, r7, lr}
200026ae:	46ce      	mov	lr, r9
200026b0:	4647      	mov	r7, r8
200026b2:	468c      	mov	ip, r1
200026b4:	b580      	push	{r7, lr}
200026b6:	f3ef 8810 	mrs	r8, PRIMASK
200026ba:	b672      	cpsid	i
200026bc:	4d21      	ldr	r5, [pc, #132]	; (20002744 <hw_claim_unused_from_range+0x98>)
200026be:	682c      	ldr	r4, [r5, #0]
200026c0:	2c00      	cmp	r4, #0
200026c2:	d0fc      	beq.n	200026be <hw_claim_unused_from_range+0x12>
200026c4:	f3bf 8f5f 	dmb	sy
200026c8:	429a      	cmp	r2, r3
200026ca:	d82c      	bhi.n	20002726 <hw_claim_unused_from_range+0x7a>
200026cc:	08d4      	lsrs	r4, r2, #3
200026ce:	2107      	movs	r1, #7
200026d0:	5d05      	ldrb	r5, [r0, r4]
200026d2:	1906      	adds	r6, r0, r4
200026d4:	2401      	movs	r4, #1
200026d6:	4011      	ands	r1, r2
200026d8:	408c      	lsls	r4, r1
200026da:	422c      	tst	r4, r5
200026dc:	d01f      	beq.n	2000271e <hw_claim_unused_from_range+0x72>
200026de:	2107      	movs	r1, #7
200026e0:	4689      	mov	r9, r1
200026e2:	3906      	subs	r1, #6
200026e4:	e009      	b.n	200026fa <hw_claim_unused_from_range+0x4e>
200026e6:	08d4      	lsrs	r4, r2, #3
200026e8:	5d05      	ldrb	r5, [r0, r4]
200026ea:	1906      	adds	r6, r0, r4
200026ec:	464c      	mov	r4, r9
200026ee:	000f      	movs	r7, r1
200026f0:	4014      	ands	r4, r2
200026f2:	40a7      	lsls	r7, r4
200026f4:	003c      	movs	r4, r7
200026f6:	422f      	tst	r7, r5
200026f8:	d011      	beq.n	2000271e <hw_claim_unused_from_range+0x72>
200026fa:	3201      	adds	r2, #1
200026fc:	4293      	cmp	r3, r2
200026fe:	d2f2      	bcs.n	200026e6 <hw_claim_unused_from_range+0x3a>
20002700:	2001      	movs	r0, #1
20002702:	4240      	negs	r0, r0
20002704:	f3bf 8f5f 	dmb	sy
20002708:	2200      	movs	r2, #0
2000270a:	4b0e      	ldr	r3, [pc, #56]	; (20002744 <hw_claim_unused_from_range+0x98>)
2000270c:	601a      	str	r2, [r3, #0]
2000270e:	f388 8810 	msr	PRIMASK, r8
20002712:	2800      	cmp	r0, #0
20002714:	db0f      	blt.n	20002736 <hw_claim_unused_from_range+0x8a>
20002716:	bc0c      	pop	{r2, r3}
20002718:	4690      	mov	r8, r2
2000271a:	4699      	mov	r9, r3
2000271c:	bdf8      	pop	{r3, r4, r5, r6, r7, pc}
2000271e:	432c      	orrs	r4, r5
20002720:	0010      	movs	r0, r2
20002722:	7034      	strb	r4, [r6, #0]
20002724:	e7ee      	b.n	20002704 <hw_claim_unused_from_range+0x58>
20002726:	f3bf 8f5f 	dmb	sy
2000272a:	2300      	movs	r3, #0
2000272c:	602b      	str	r3, [r5, #0]
2000272e:	f388 8810 	msr	PRIMASK, r8
20002732:	2001      	movs	r0, #1
20002734:	4240      	negs	r0, r0
20002736:	4663      	mov	r3, ip
20002738:	2b00      	cmp	r3, #0
2000273a:	d0ec      	beq.n	20002716 <hw_claim_unused_from_range+0x6a>
2000273c:	9808      	ldr	r0, [sp, #32]
2000273e:	f001 fb9d 	bl	20003e7c <panic>
20002742:	46c0      	nop			; (mov r8, r8)
20002744:	d000012c 	.word	0xd000012c

20002748 <running_on_fpga>:
20002748:	4b02      	ldr	r3, [pc, #8]	; (20002754 <running_on_fpga+0xc>)
2000274a:	6818      	ldr	r0, [r3, #0]
2000274c:	0780      	lsls	r0, r0, #30
2000274e:	0fc0      	lsrs	r0, r0, #31
20002750:	4770      	bx	lr
20002752:	46c0      	nop			; (mov r8, r8)
20002754:	4006c000 	.word	0x4006c000

20002758 <spin_locks_reset>:
20002758:	2100      	movs	r1, #0
2000275a:	4b04      	ldr	r3, [pc, #16]	; (2000276c <spin_locks_reset+0x14>)
2000275c:	4a04      	ldr	r2, [pc, #16]	; (20002770 <spin_locks_reset+0x18>)
2000275e:	f3bf 8f5f 	dmb	sy
20002762:	c302      	stmia	r3!, {r1}
20002764:	4293      	cmp	r3, r2
20002766:	d1fa      	bne.n	2000275e <spin_locks_reset+0x6>
20002768:	4770      	bx	lr
2000276a:	46c0      	nop			; (mov r8, r8)
2000276c:	d0000100 	.word	0xd0000100
20002770:	d0000180 	.word	0xd0000180

20002774 <next_striped_spin_lock_num>:
20002774:	4a04      	ldr	r2, [pc, #16]	; (20002788 <next_striped_spin_lock_num+0x14>)
20002776:	7810      	ldrb	r0, [r2, #0]
20002778:	1c43      	adds	r3, r0, #1
2000277a:	b2db      	uxtb	r3, r3
2000277c:	2b17      	cmp	r3, #23
2000277e:	d900      	bls.n	20002782 <next_striped_spin_lock_num+0xe>
20002780:	2310      	movs	r3, #16
20002782:	7013      	strb	r3, [r2, #0]
20002784:	4770      	bx	lr
20002786:	46c0      	nop			; (mov r8, r8)
20002788:	2000c774 	.word	0x2000c774

2000278c <spin_lock_claim_unused>:
2000278c:	b500      	push	{lr}
2000278e:	4b05      	ldr	r3, [pc, #20]	; (200027a4 <spin_lock_claim_unused+0x18>)
20002790:	b083      	sub	sp, #12
20002792:	0001      	movs	r1, r0
20002794:	9300      	str	r3, [sp, #0]
20002796:	2218      	movs	r2, #24
20002798:	231f      	movs	r3, #31
2000279a:	4803      	ldr	r0, [pc, #12]	; (200027a8 <spin_lock_claim_unused+0x1c>)
2000279c:	f7ff ff86 	bl	200026ac <hw_claim_unused_from_range>
200027a0:	b003      	add	sp, #12
200027a2:	bd00      	pop	{pc}
200027a4:	2000bf64 	.word	0x2000bf64
200027a8:	2000ce74 	.word	0x2000ce74

200027ac <irq_set_enabled>:
200027ac:	2301      	movs	r3, #1
200027ae:	4083      	lsls	r3, r0
200027b0:	2900      	cmp	r1, #0
200027b2:	d004      	beq.n	200027be <irq_set_enabled+0x12>
200027b4:	4a03      	ldr	r2, [pc, #12]	; (200027c4 <irq_set_enabled+0x18>)
200027b6:	6013      	str	r3, [r2, #0]
200027b8:	4a03      	ldr	r2, [pc, #12]	; (200027c8 <irq_set_enabled+0x1c>)
200027ba:	6013      	str	r3, [r2, #0]
200027bc:	4770      	bx	lr
200027be:	4a03      	ldr	r2, [pc, #12]	; (200027cc <irq_set_enabled+0x20>)
200027c0:	6013      	str	r3, [r2, #0]
200027c2:	e7fb      	b.n	200027bc <irq_set_enabled+0x10>
200027c4:	e000e280 	.word	0xe000e280
200027c8:	e000e100 	.word	0xe000e100
200027cc:	e000e180 	.word	0xe000e180

200027d0 <irq_is_enabled>:
200027d0:	2201      	movs	r2, #1
200027d2:	4082      	lsls	r2, r0
200027d4:	4b03      	ldr	r3, [pc, #12]	; (200027e4 <irq_is_enabled+0x14>)
200027d6:	681b      	ldr	r3, [r3, #0]
200027d8:	4013      	ands	r3, r2
200027da:	1e58      	subs	r0, r3, #1
200027dc:	4183      	sbcs	r3, r0
200027de:	b2d8      	uxtb	r0, r3
200027e0:	4770      	bx	lr
200027e2:	46c0      	nop			; (mov r8, r8)
200027e4:	e000e100 	.word	0xe000e100

200027e8 <irq_set_mask_enabled>:
200027e8:	2900      	cmp	r1, #0
200027ea:	d004      	beq.n	200027f6 <irq_set_mask_enabled+0xe>
200027ec:	4b03      	ldr	r3, [pc, #12]	; (200027fc <irq_set_mask_enabled+0x14>)
200027ee:	6018      	str	r0, [r3, #0]
200027f0:	4b03      	ldr	r3, [pc, #12]	; (20002800 <irq_set_mask_enabled+0x18>)
200027f2:	6018      	str	r0, [r3, #0]
200027f4:	4770      	bx	lr
200027f6:	4b03      	ldr	r3, [pc, #12]	; (20002804 <irq_set_mask_enabled+0x1c>)
200027f8:	6018      	str	r0, [r3, #0]
200027fa:	e7fb      	b.n	200027f4 <irq_set_mask_enabled+0xc>
200027fc:	e000e280 	.word	0xe000e280
20002800:	e000e100 	.word	0xe000e100
20002804:	e000e180 	.word	0xe000e180

20002808 <irq_set_pending>:
20002808:	2301      	movs	r3, #1
2000280a:	4083      	lsls	r3, r0
2000280c:	4a01      	ldr	r2, [pc, #4]	; (20002814 <irq_set_pending+0xc>)
2000280e:	6013      	str	r3, [r2, #0]
20002810:	4770      	bx	lr
20002812:	46c0      	nop			; (mov r8, r8)
20002814:	e000e200 	.word	0xe000e200

20002818 <irq_has_shared_handler>:
20002818:	4b08      	ldr	r3, [pc, #32]	; (2000283c <irq_has_shared_handler+0x24>)
2000281a:	3010      	adds	r0, #16
2000281c:	689b      	ldr	r3, [r3, #8]
2000281e:	0080      	lsls	r0, r0, #2
20002820:	58c3      	ldr	r3, [r0, r3]
20002822:	2b00      	cmp	r3, #0
20002824:	d007      	beq.n	20002836 <irq_has_shared_handler+0x1e>
20002826:	4a06      	ldr	r2, [pc, #24]	; (20002840 <irq_has_shared_handler+0x28>)
20002828:	2000      	movs	r0, #0
2000282a:	1a9b      	subs	r3, r3, r2
2000282c:	222f      	movs	r2, #47	; 0x2f
2000282e:	429a      	cmp	r2, r3
20002830:	4140      	adcs	r0, r0
20002832:	b2c0      	uxtb	r0, r0
20002834:	4770      	bx	lr
20002836:	2000      	movs	r0, #0
20002838:	e7fc      	b.n	20002834 <irq_has_shared_handler+0x1c>
2000283a:	46c0      	nop			; (mov r8, r8)
2000283c:	e000ed00 	.word	0xe000ed00
20002840:	2000c778 	.word	0x2000c778

20002844 <irq_get_vtable_handler>:
20002844:	4b02      	ldr	r3, [pc, #8]	; (20002850 <irq_get_vtable_handler+0xc>)
20002846:	3010      	adds	r0, #16
20002848:	689b      	ldr	r3, [r3, #8]
2000284a:	0080      	lsls	r0, r0, #2
2000284c:	58c0      	ldr	r0, [r0, r3]
2000284e:	4770      	bx	lr
20002850:	e000ed00 	.word	0xe000ed00

20002854 <irq_set_exclusive_handler>:
20002854:	b570      	push	{r4, r5, r6, lr}
20002856:	000d      	movs	r5, r1
20002858:	f3ef 8610 	mrs	r6, PRIMASK
2000285c:	b672      	cpsid	i
2000285e:	4a0f      	ldr	r2, [pc, #60]	; (2000289c <irq_set_exclusive_handler+0x48>)
20002860:	6813      	ldr	r3, [r2, #0]
20002862:	2b00      	cmp	r3, #0
20002864:	d0fc      	beq.n	20002860 <irq_set_exclusive_handler+0xc>
20002866:	f3bf 8f5f 	dmb	sy
2000286a:	4b0d      	ldr	r3, [pc, #52]	; (200028a0 <irq_set_exclusive_handler+0x4c>)
2000286c:	3010      	adds	r0, #16
2000286e:	689b      	ldr	r3, [r3, #8]
20002870:	0084      	lsls	r4, r0, #2
20002872:	591b      	ldr	r3, [r3, r4]
20002874:	4a0b      	ldr	r2, [pc, #44]	; (200028a4 <irq_set_exclusive_handler+0x50>)
20002876:	4293      	cmp	r3, r2
20002878:	d003      	beq.n	20002882 <irq_set_exclusive_handler+0x2e>
2000287a:	429d      	cmp	r5, r3
2000287c:	d001      	beq.n	20002882 <irq_set_exclusive_handler+0x2e>
2000287e:	f001 fb15 	bl	20003eac <hard_assertion_failure>
20002882:	4b07      	ldr	r3, [pc, #28]	; (200028a0 <irq_set_exclusive_handler+0x4c>)
20002884:	689b      	ldr	r3, [r3, #8]
20002886:	511d      	str	r5, [r3, r4]
20002888:	f3bf 8f5f 	dmb	sy
2000288c:	f3bf 8f5f 	dmb	sy
20002890:	2200      	movs	r2, #0
20002892:	4b02      	ldr	r3, [pc, #8]	; (2000289c <irq_set_exclusive_handler+0x48>)
20002894:	601a      	str	r2, [r3, #0]
20002896:	f386 8810 	msr	PRIMASK, r6
2000289a:	bd70      	pop	{r4, r5, r6, pc}
2000289c:	d0000124 	.word	0xd0000124
200028a0:	e000ed00 	.word	0xe000ed00
200028a4:	100001cd 	.word	0x100001cd

200028a8 <irq_add_shared_handler>:
200028a8:	b5f0      	push	{r4, r5, r6, r7, lr}
200028aa:	4657      	mov	r7, sl
200028ac:	464e      	mov	r6, r9
200028ae:	4645      	mov	r5, r8
200028b0:	46de      	mov	lr, fp
200028b2:	b5e0      	push	{r5, r6, r7, lr}
200028b4:	4689      	mov	r9, r1
200028b6:	b083      	sub	sp, #12
200028b8:	0005      	movs	r5, r0
200028ba:	0017      	movs	r7, r2
200028bc:	f3ef 8a10 	mrs	sl, PRIMASK
200028c0:	b672      	cpsid	i
200028c2:	4a5e      	ldr	r2, [pc, #376]	; (20002a3c <irq_add_shared_handler+0x194>)
200028c4:	6813      	ldr	r3, [r2, #0]
200028c6:	2b00      	cmp	r3, #0
200028c8:	d0fc      	beq.n	200028c4 <irq_add_shared_handler+0x1c>
200028ca:	f3bf 8f5f 	dmb	sy
200028ce:	2000      	movs	r0, #0
200028d0:	4b5b      	ldr	r3, [pc, #364]	; (20002a40 <irq_add_shared_handler+0x198>)
200028d2:	5618      	ldrsb	r0, [r3, r0]
200028d4:	469b      	mov	fp, r3
200028d6:	2800      	cmp	r0, #0
200028d8:	db6d      	blt.n	200029b6 <irq_add_shared_handler+0x10e>
200028da:	465a      	mov	r2, fp
200028dc:	0044      	lsls	r4, r0, #1
200028de:	4e59      	ldr	r6, [pc, #356]	; (20002a44 <irq_add_shared_handler+0x19c>)
200028e0:	1824      	adds	r4, r4, r0
200028e2:	00a4      	lsls	r4, r4, #2
200028e4:	1933      	adds	r3, r6, r4
200028e6:	4698      	mov	r8, r3
200028e8:	799b      	ldrb	r3, [r3, #6]
200028ea:	3510      	adds	r5, #16
200028ec:	7013      	strb	r3, [r2, #0]
200028ee:	4b56      	ldr	r3, [pc, #344]	; (20002a48 <irq_add_shared_handler+0x1a0>)
200028f0:	00aa      	lsls	r2, r5, #2
200028f2:	689b      	ldr	r3, [r3, #8]
200028f4:	9201      	str	r2, [sp, #4]
200028f6:	589b      	ldr	r3, [r3, r2]
200028f8:	469c      	mov	ip, r3
200028fa:	1b9b      	subs	r3, r3, r6
200028fc:	2b2f      	cmp	r3, #47	; 0x2f
200028fe:	d829      	bhi.n	20002954 <irq_add_shared_handler+0xac>
20002900:	2201      	movs	r2, #1
20002902:	4661      	mov	r1, ip
20002904:	4391      	bics	r1, r2
20002906:	79cb      	ldrb	r3, [r1, #7]
20002908:	42bb      	cmp	r3, r7
2000290a:	d808      	bhi.n	2000291e <irq_add_shared_handler+0x76>
2000290c:	e06b      	b.n	200029e6 <irq_add_shared_handler+0x13e>
2000290e:	0053      	lsls	r3, r2, #1
20002910:	189b      	adds	r3, r3, r2
20002912:	009b      	lsls	r3, r3, #2
20002914:	18f3      	adds	r3, r6, r3
20002916:	79dd      	ldrb	r5, [r3, #7]
20002918:	42bd      	cmp	r5, r7
2000291a:	d952      	bls.n	200029c2 <irq_add_shared_handler+0x11a>
2000291c:	0019      	movs	r1, r3
2000291e:	2206      	movs	r2, #6
20002920:	568a      	ldrsb	r2, [r1, r2]
20002922:	2a00      	cmp	r2, #0
20002924:	daf3      	bge.n	2000290e <irq_add_shared_handler+0x66>
20002926:	26bd      	movs	r6, #189	; 0xbd
20002928:	1d0b      	adds	r3, r1, #4
2000292a:	469b      	mov	fp, r3
2000292c:	0236      	lsls	r6, r6, #8
2000292e:	4643      	mov	r3, r8
20002930:	465c      	mov	r4, fp
20002932:	3b04      	subs	r3, #4
20002934:	1b1b      	subs	r3, r3, r4
20002936:	051b      	lsls	r3, r3, #20
20002938:	4c44      	ldr	r4, [pc, #272]	; (20002a4c <irq_add_shared_handler+0x1a4>)
2000293a:	0d5b      	lsrs	r3, r3, #21
2000293c:	4323      	orrs	r3, r4
2000293e:	808b      	strh	r3, [r1, #4]
20002940:	7188      	strb	r0, [r1, #6]
20002942:	4641      	mov	r1, r8
20002944:	718a      	strb	r2, [r1, #6]
20002946:	464a      	mov	r2, r9
20002948:	4b41      	ldr	r3, [pc, #260]	; (20002a50 <irq_add_shared_handler+0x1a8>)
2000294a:	808e      	strh	r6, [r1, #4]
2000294c:	600b      	str	r3, [r1, #0]
2000294e:	71cf      	strb	r7, [r1, #7]
20002950:	608a      	str	r2, [r1, #8]
20002952:	e01b      	b.n	2000298c <irq_add_shared_handler+0xe4>
20002954:	4b3f      	ldr	r3, [pc, #252]	; (20002a54 <irq_add_shared_handler+0x1ac>)
20002956:	459c      	cmp	ip, r3
20002958:	d142      	bne.n	200029e0 <irq_add_shared_handler+0x138>
2000295a:	4642      	mov	r2, r8
2000295c:	4b3e      	ldr	r3, [pc, #248]	; (20002a58 <irq_add_shared_handler+0x1b0>)
2000295e:	3402      	adds	r4, #2
20002960:	8013      	strh	r3, [r2, #0]
20002962:	4b3e      	ldr	r3, [pc, #248]	; (20002a5c <irq_add_shared_handler+0x1b4>)
20002964:	1936      	adds	r6, r6, r4
20002966:	3b04      	subs	r3, #4
20002968:	1b9e      	subs	r6, r3, r6
2000296a:	0536      	lsls	r6, r6, #20
2000296c:	4b37      	ldr	r3, [pc, #220]	; (20002a4c <irq_add_shared_handler+0x1a4>)
2000296e:	0d76      	lsrs	r6, r6, #21
20002970:	431e      	orrs	r6, r3
20002972:	4b3b      	ldr	r3, [pc, #236]	; (20002a60 <irq_add_shared_handler+0x1b8>)
20002974:	8056      	strh	r6, [r2, #2]
20002976:	8093      	strh	r3, [r2, #4]
20002978:	23ff      	movs	r3, #255	; 0xff
2000297a:	71d7      	strb	r7, [r2, #7]
2000297c:	7193      	strb	r3, [r2, #6]
2000297e:	4643      	mov	r3, r8
20002980:	464a      	mov	r2, r9
20002982:	609a      	str	r2, [r3, #8]
20002984:	2301      	movs	r3, #1
20002986:	4642      	mov	r2, r8
20002988:	431a      	orrs	r2, r3
2000298a:	4694      	mov	ip, r2
2000298c:	4661      	mov	r1, ip
2000298e:	4b2e      	ldr	r3, [pc, #184]	; (20002a48 <irq_add_shared_handler+0x1a0>)
20002990:	9a01      	ldr	r2, [sp, #4]
20002992:	689b      	ldr	r3, [r3, #8]
20002994:	5099      	str	r1, [r3, r2]
20002996:	f3bf 8f5f 	dmb	sy
2000299a:	f3bf 8f5f 	dmb	sy
2000299e:	2200      	movs	r2, #0
200029a0:	4b26      	ldr	r3, [pc, #152]	; (20002a3c <irq_add_shared_handler+0x194>)
200029a2:	601a      	str	r2, [r3, #0]
200029a4:	f38a 8810 	msr	PRIMASK, sl
200029a8:	b003      	add	sp, #12
200029aa:	bc3c      	pop	{r2, r3, r4, r5}
200029ac:	4690      	mov	r8, r2
200029ae:	4699      	mov	r9, r3
200029b0:	46a2      	mov	sl, r4
200029b2:	46ab      	mov	fp, r5
200029b4:	bdf0      	pop	{r4, r5, r6, r7, pc}
200029b6:	f001 fa79 	bl	20003eac <hard_assertion_failure>
200029ba:	465b      	mov	r3, fp
200029bc:	2000      	movs	r0, #0
200029be:	5618      	ldrsb	r0, [r3, r0]
200029c0:	e78b      	b.n	200028da <irq_add_shared_handler+0x32>
200029c2:	1d0b      	adds	r3, r1, #4
200029c4:	469b      	mov	fp, r3
200029c6:	888b      	ldrh	r3, [r1, #4]
200029c8:	3404      	adds	r4, #4
200029ca:	055b      	lsls	r3, r3, #21
200029cc:	151b      	asrs	r3, r3, #20
200029ce:	445b      	add	r3, fp
200029d0:	1936      	adds	r6, r6, r4
200029d2:	1b9e      	subs	r6, r3, r6
200029d4:	23e0      	movs	r3, #224	; 0xe0
200029d6:	0536      	lsls	r6, r6, #20
200029d8:	0d76      	lsrs	r6, r6, #21
200029da:	021b      	lsls	r3, r3, #8
200029dc:	431e      	orrs	r6, r3
200029de:	e7a6      	b.n	2000292e <irq_add_shared_handler+0x86>
200029e0:	f001 fa64 	bl	20003eac <hard_assertion_failure>
200029e4:	e7b9      	b.n	2000295a <irq_add_shared_handler+0xb2>
200029e6:	4645      	mov	r5, r8
200029e8:	000b      	movs	r3, r1
200029ea:	481e      	ldr	r0, [pc, #120]	; (20002a64 <irq_add_shared_handler+0x1bc>)
200029ec:	1b9b      	subs	r3, r3, r6
200029ee:	415b      	adcs	r3, r3
200029f0:	4358      	muls	r0, r3
200029f2:	0d00      	lsrs	r0, r0, #20
200029f4:	4b18      	ldr	r3, [pc, #96]	; (20002a58 <irq_add_shared_handler+0x1b0>)
200029f6:	802b      	strh	r3, [r5, #0]
200029f8:	1ca3      	adds	r3, r4, #2
200029fa:	469c      	mov	ip, r3
200029fc:	44b4      	add	ip, r6
200029fe:	4665      	mov	r5, ip
20002a00:	4b16      	ldr	r3, [pc, #88]	; (20002a5c <irq_add_shared_handler+0x1b4>)
20002a02:	3404      	adds	r4, #4
20002a04:	3b04      	subs	r3, #4
20002a06:	1b5b      	subs	r3, r3, r5
20002a08:	051b      	lsls	r3, r3, #20
20002a0a:	4d10      	ldr	r5, [pc, #64]	; (20002a4c <irq_add_shared_handler+0x1a4>)
20002a0c:	0d5b      	lsrs	r3, r3, #21
20002a0e:	46ac      	mov	ip, r5
20002a10:	432b      	orrs	r3, r5
20002a12:	4645      	mov	r5, r8
20002a14:	1936      	adds	r6, r6, r4
20002a16:	806b      	strh	r3, [r5, #2]
20002a18:	1f0b      	subs	r3, r1, #4
20002a1a:	1b9e      	subs	r6, r3, r6
20002a1c:	4663      	mov	r3, ip
20002a1e:	71a8      	strb	r0, [r5, #6]
20002a20:	4648      	mov	r0, r9
20002a22:	0536      	lsls	r6, r6, #20
20002a24:	0d76      	lsrs	r6, r6, #21
20002a26:	431e      	orrs	r6, r3
20002a28:	4b09      	ldr	r3, [pc, #36]	; (20002a50 <irq_add_shared_handler+0x1a8>)
20002a2a:	80ae      	strh	r6, [r5, #4]
20002a2c:	71ef      	strb	r7, [r5, #7]
20002a2e:	60a8      	str	r0, [r5, #8]
20002a30:	600b      	str	r3, [r1, #0]
20002a32:	4643      	mov	r3, r8
20002a34:	4313      	orrs	r3, r2
20002a36:	469c      	mov	ip, r3
20002a38:	e7a8      	b.n	2000298c <irq_add_shared_handler+0xe4>
20002a3a:	46c0      	nop			; (mov r8, r8)
20002a3c:	d0000124 	.word	0xd0000124
20002a40:	2000d3c6 	.word	0x2000d3c6
20002a44:	2000c778 	.word	0x2000c778
20002a48:	e000ed00 	.word	0xe000ed00
20002a4c:	ffffe000 	.word	0xffffe000
20002a50:	47804801 	.word	0x47804801
20002a54:	100001cd 	.word	0x100001cd
20002a58:	ffffa100 	.word	0xffffa100
20002a5c:	2000c7a8 	.word	0x2000c7a8
20002a60:	ffffbd00 	.word	0xffffbd00
20002a64:	0000aaaa 	.word	0x0000aaaa

20002a68 <irq_remove_handler>:
20002a68:	b5f0      	push	{r4, r5, r6, r7, lr}
20002a6a:	46de      	mov	lr, fp
20002a6c:	4657      	mov	r7, sl
20002a6e:	464e      	mov	r6, r9
20002a70:	4645      	mov	r5, r8
20002a72:	b5e0      	push	{r5, r6, r7, lr}
20002a74:	000c      	movs	r4, r1
20002a76:	b083      	sub	sp, #12
20002a78:	f3ef 8a10 	mrs	sl, PRIMASK
20002a7c:	b672      	cpsid	i
20002a7e:	4a5a      	ldr	r2, [pc, #360]	; (20002be8 <irq_remove_handler+0x180>)
20002a80:	6813      	ldr	r3, [r2, #0]
20002a82:	2b00      	cmp	r3, #0
20002a84:	d0fc      	beq.n	20002a80 <irq_remove_handler+0x18>
20002a86:	f3bf 8f5f 	dmb	sy
20002a8a:	2210      	movs	r2, #16
20002a8c:	4691      	mov	r9, r2
20002a8e:	4481      	add	r9, r0
20002a90:	464a      	mov	r2, r9
20002a92:	4b56      	ldr	r3, [pc, #344]	; (20002bec <irq_remove_handler+0x184>)
20002a94:	0096      	lsls	r6, r2, #2
20002a96:	689b      	ldr	r3, [r3, #8]
20002a98:	599d      	ldr	r5, [r3, r6]
20002a9a:	4b55      	ldr	r3, [pc, #340]	; (20002bf0 <irq_remove_handler+0x188>)
20002a9c:	4698      	mov	r8, r3
20002a9e:	429d      	cmp	r5, r3
20002aa0:	d005      	beq.n	20002aae <irq_remove_handler+0x46>
20002aa2:	42a5      	cmp	r5, r4
20002aa4:	d016      	beq.n	20002ad4 <irq_remove_handler+0x6c>
20002aa6:	4f53      	ldr	r7, [pc, #332]	; (20002bf4 <irq_remove_handler+0x18c>)
20002aa8:	1beb      	subs	r3, r5, r7
20002aaa:	2b2f      	cmp	r3, #47	; 0x2f
20002aac:	d914      	bls.n	20002ad8 <irq_remove_handler+0x70>
20002aae:	4b4f      	ldr	r3, [pc, #316]	; (20002bec <irq_remove_handler+0x184>)
20002ab0:	689b      	ldr	r3, [r3, #8]
20002ab2:	519d      	str	r5, [r3, r6]
20002ab4:	f3bf 8f5f 	dmb	sy
20002ab8:	f3bf 8f5f 	dmb	sy
20002abc:	2200      	movs	r2, #0
20002abe:	4b4a      	ldr	r3, [pc, #296]	; (20002be8 <irq_remove_handler+0x180>)
20002ac0:	601a      	str	r2, [r3, #0]
20002ac2:	f38a 8810 	msr	PRIMASK, sl
20002ac6:	b003      	add	sp, #12
20002ac8:	bc3c      	pop	{r2, r3, r4, r5}
20002aca:	4690      	mov	r8, r2
20002acc:	4699      	mov	r9, r3
20002ace:	46a2      	mov	sl, r4
20002ad0:	46ab      	mov	fp, r5
20002ad2:	bdf0      	pop	{r4, r5, r6, r7, pc}
20002ad4:	001d      	movs	r5, r3
20002ad6:	e7ea      	b.n	20002aae <irq_remove_handler+0x46>
20002ad8:	2301      	movs	r3, #1
20002ada:	4083      	lsls	r3, r0
20002adc:	469b      	mov	fp, r3
20002ade:	465a      	mov	r2, fp
20002ae0:	4b45      	ldr	r3, [pc, #276]	; (20002bf8 <irq_remove_handler+0x190>)
20002ae2:	681b      	ldr	r3, [r3, #0]
20002ae4:	401a      	ands	r2, r3
20002ae6:	9200      	str	r2, [sp, #0]
20002ae8:	465a      	mov	r2, fp
20002aea:	4b44      	ldr	r3, [pc, #272]	; (20002bfc <irq_remove_handler+0x194>)
20002aec:	601a      	str	r2, [r3, #0]
20002aee:	f3bf 8f5f 	dmb	sy
20002af2:	f007 fef1 	bl	2000a8d8 <____get_current_exception_veneer>
20002af6:	9001      	str	r0, [sp, #4]
20002af8:	2800      	cmp	r0, #0
20002afa:	d003      	beq.n	20002b04 <irq_remove_handler+0x9c>
20002afc:	4581      	cmp	r9, r0
20002afe:	d001      	beq.n	20002b04 <irq_remove_handler+0x9c>
20002b00:	f001 f9d4 	bl	20003eac <hard_assertion_failure>
20002b04:	2301      	movs	r3, #1
20002b06:	002a      	movs	r2, r5
20002b08:	439a      	bics	r2, r3
20002b0a:	6893      	ldr	r3, [r2, #8]
20002b0c:	429c      	cmp	r4, r3
20002b0e:	d108      	bne.n	20002b22 <irq_remove_handler+0xba>
20002b10:	e060      	b.n	20002bd4 <irq_remove_handler+0x16c>
20002b12:	004b      	lsls	r3, r1, #1
20002b14:	185b      	adds	r3, r3, r1
20002b16:	009b      	lsls	r3, r3, #2
20002b18:	18fb      	adds	r3, r7, r3
20002b1a:	6899      	ldr	r1, [r3, #8]
20002b1c:	42a1      	cmp	r1, r4
20002b1e:	d011      	beq.n	20002b44 <irq_remove_handler+0xdc>
20002b20:	001a      	movs	r2, r3
20002b22:	2106      	movs	r1, #6
20002b24:	5651      	ldrsb	r1, [r2, r1]
20002b26:	2900      	cmp	r1, #0
20002b28:	daf3      	bge.n	20002b12 <irq_remove_handler+0xaa>
20002b2a:	9b00      	ldr	r3, [sp, #0]
20002b2c:	2b00      	cmp	r3, #0
20002b2e:	d005      	beq.n	20002b3c <irq_remove_handler+0xd4>
20002b30:	465a      	mov	r2, fp
20002b32:	4b33      	ldr	r3, [pc, #204]	; (20002c00 <irq_remove_handler+0x198>)
20002b34:	601a      	str	r2, [r3, #0]
20002b36:	4b30      	ldr	r3, [pc, #192]	; (20002bf8 <irq_remove_handler+0x190>)
20002b38:	601a      	str	r2, [r3, #0]
20002b3a:	e7b8      	b.n	20002aae <irq_remove_handler+0x46>
20002b3c:	465a      	mov	r2, fp
20002b3e:	4b2f      	ldr	r3, [pc, #188]	; (20002bfc <irq_remove_handler+0x194>)
20002b40:	601a      	str	r2, [r3, #0]
20002b42:	e7b4      	b.n	20002aae <irq_remove_handler+0x46>
20002b44:	2106      	movs	r1, #6
20002b46:	5659      	ldrsb	r1, [r3, r1]
20002b48:	2900      	cmp	r1, #0
20002b4a:	db22      	blt.n	20002b92 <irq_remove_handler+0x12a>
20002b4c:	004a      	lsls	r2, r1, #1
20002b4e:	1850      	adds	r0, r2, r1
20002b50:	0080      	lsls	r0, r0, #2
20002b52:	183c      	adds	r4, r7, r0
20002b54:	4680      	mov	r8, r0
20002b56:	68a0      	ldr	r0, [r4, #8]
20002b58:	6098      	str	r0, [r3, #8]
20002b5a:	79e0      	ldrb	r0, [r4, #7]
20002b5c:	71d8      	strb	r0, [r3, #7]
20002b5e:	2006      	movs	r0, #6
20002b60:	5620      	ldrsb	r0, [r4, r0]
20002b62:	7198      	strb	r0, [r3, #6]
20002b64:	79a0      	ldrb	r0, [r4, #6]
20002b66:	287f      	cmp	r0, #127	; 0x7f
20002b68:	d824      	bhi.n	20002bb4 <irq_remove_handler+0x14c>
20002b6a:	88a4      	ldrh	r4, [r4, #4]
20002b6c:	1af8      	subs	r0, r7, r3
20002b6e:	0564      	lsls	r4, r4, #21
20002b70:	1524      	asrs	r4, r4, #20
20002b72:	4444      	add	r4, r8
20002b74:	1900      	adds	r0, r0, r4
20002b76:	24e0      	movs	r4, #224	; 0xe0
20002b78:	0500      	lsls	r0, r0, #20
20002b7a:	0d40      	lsrs	r0, r0, #21
20002b7c:	0224      	lsls	r4, r4, #8
20002b7e:	4320      	orrs	r0, r4
20002b80:	8098      	strh	r0, [r3, #4]
20002b82:	1852      	adds	r2, r2, r1
20002b84:	4b1f      	ldr	r3, [pc, #124]	; (20002c04 <irq_remove_handler+0x19c>)
20002b86:	0092      	lsls	r2, r2, #2
20002b88:	18bf      	adds	r7, r7, r2
20002b8a:	781a      	ldrb	r2, [r3, #0]
20002b8c:	7019      	strb	r1, [r3, #0]
20002b8e:	71ba      	strb	r2, [r7, #6]
20002b90:	e7cb      	b.n	20002b2a <irq_remove_handler+0xc2>
20002b92:	9901      	ldr	r1, [sp, #4]
20002b94:	2900      	cmp	r1, #0
20002b96:	d110      	bne.n	20002bba <irq_remove_handler+0x152>
20002b98:	31ff      	adds	r1, #255	; 0xff
20002b9a:	7191      	strb	r1, [r2, #6]
20002b9c:	491a      	ldr	r1, [pc, #104]	; (20002c08 <irq_remove_handler+0x1a0>)
20002b9e:	8091      	strh	r1, [r2, #4]
20002ba0:	4918      	ldr	r1, [pc, #96]	; (20002c04 <irq_remove_handler+0x19c>)
20002ba2:	780a      	ldrb	r2, [r1, #0]
20002ba4:	719a      	strb	r2, [r3, #6]
20002ba6:	4a19      	ldr	r2, [pc, #100]	; (20002c0c <irq_remove_handler+0x1a4>)
20002ba8:	1bdb      	subs	r3, r3, r7
20002baa:	415b      	adcs	r3, r3
20002bac:	435a      	muls	r2, r3
20002bae:	0d12      	lsrs	r2, r2, #20
20002bb0:	700a      	strb	r2, [r1, #0]
20002bb2:	e7ba      	b.n	20002b2a <irq_remove_handler+0xc2>
20002bb4:	20bd      	movs	r0, #189	; 0xbd
20002bb6:	0200      	lsls	r0, r0, #8
20002bb8:	e7e2      	b.n	20002b80 <irq_remove_handler+0x118>
20002bba:	4a15      	ldr	r2, [pc, #84]	; (20002c10 <irq_remove_handler+0x1a8>)
20002bbc:	4915      	ldr	r1, [pc, #84]	; (20002c14 <irq_remove_handler+0x1ac>)
20002bbe:	1ad2      	subs	r2, r2, r3
20002bc0:	3a08      	subs	r2, #8
20002bc2:	0250      	lsls	r0, r2, #9
20002bc4:	0d40      	lsrs	r0, r0, #21
20002bc6:	4301      	orrs	r1, r0
20002bc8:	8099      	strh	r1, [r3, #4]
20002bca:	4913      	ldr	r1, [pc, #76]	; (20002c18 <irq_remove_handler+0x1b0>)
20002bcc:	0852      	lsrs	r2, r2, #1
20002bce:	430a      	orrs	r2, r1
20002bd0:	80da      	strh	r2, [r3, #6]
20002bd2:	e7aa      	b.n	20002b2a <irq_remove_handler+0xc2>
20002bd4:	2106      	movs	r1, #6
20002bd6:	5651      	ldrsb	r1, [r2, r1]
20002bd8:	0013      	movs	r3, r2
20002bda:	2900      	cmp	r1, #0
20002bdc:	dab6      	bge.n	20002b4c <irq_remove_handler+0xe4>
20002bde:	9a01      	ldr	r2, [sp, #4]
20002be0:	2a00      	cmp	r2, #0
20002be2:	d1ea      	bne.n	20002bba <irq_remove_handler+0x152>
20002be4:	4645      	mov	r5, r8
20002be6:	e7db      	b.n	20002ba0 <irq_remove_handler+0x138>
20002be8:	d0000124 	.word	0xd0000124
20002bec:	e000ed00 	.word	0xe000ed00
20002bf0:	100001cd 	.word	0x100001cd
20002bf4:	2000c778 	.word	0x2000c778
20002bf8:	e000e100 	.word	0xe000e100
20002bfc:	e000e180 	.word	0xe000e180
20002c00:	e000e280 	.word	0xe000e280
20002c04:	2000d3c6 	.word	0x2000d3c6
20002c08:	ffffbd00 	.word	0xffffbd00
20002c0c:	0000aaaa 	.word	0x0000aaaa
20002c10:	2000c7b2 	.word	0x2000c7b2
20002c14:	fffff000 	.word	0xfffff000
20002c18:	fffff800 	.word	0xfffff800

20002c1c <irq_add_tail_to_free_list>:
20002c1c:	b5f8      	push	{r3, r4, r5, r6, r7, lr}
20002c1e:	2501      	movs	r5, #1
20002c20:	0004      	movs	r4, r0
20002c22:	4305      	orrs	r5, r0
20002c24:	f007 fe58 	bl	2000a8d8 <____get_current_exception_veneer>
20002c28:	0003      	movs	r3, r0
20002c2a:	f3ef 8610 	mrs	r6, PRIMASK
20002c2e:	b672      	cpsid	i
20002c30:	4921      	ldr	r1, [pc, #132]	; (20002cb8 <irq_add_tail_to_free_list+0x9c>)
20002c32:	680a      	ldr	r2, [r1, #0]
20002c34:	2a00      	cmp	r2, #0
20002c36:	d0fc      	beq.n	20002c32 <irq_add_tail_to_free_list+0x16>
20002c38:	f3bf 8f5f 	dmb	sy
20002c3c:	4a1f      	ldr	r2, [pc, #124]	; (20002cbc <irq_add_tail_to_free_list+0xa0>)
20002c3e:	0020      	movs	r0, r4
20002c40:	491f      	ldr	r1, [pc, #124]	; (20002cc0 <irq_add_tail_to_free_list+0xa4>)
20002c42:	1a80      	subs	r0, r0, r2
20002c44:	4140      	adcs	r0, r0
20002c46:	4341      	muls	r1, r0
20002c48:	0d09      	lsrs	r1, r1, #20
20002c4a:	481e      	ldr	r0, [pc, #120]	; (20002cc4 <irq_add_tail_to_free_list+0xa8>)
20002c4c:	009b      	lsls	r3, r3, #2
20002c4e:	6887      	ldr	r7, [r0, #8]
20002c50:	b249      	sxtb	r1, r1
20002c52:	58ff      	ldr	r7, [r7, r3]
20002c54:	42af      	cmp	r7, r5
20002c56:	d01c      	beq.n	20002c92 <irq_add_tail_to_free_list+0x76>
20002c58:	2306      	movs	r3, #6
20002c5a:	56d3      	ldrsb	r3, [r2, r3]
20002c5c:	428b      	cmp	r3, r1
20002c5e:	d01c      	beq.n	20002c9a <irq_add_tail_to_free_list+0x7e>
20002c60:	2312      	movs	r3, #18
20002c62:	56d3      	ldrsb	r3, [r2, r3]
20002c64:	428b      	cmp	r3, r1
20002c66:	d022      	beq.n	20002cae <irq_add_tail_to_free_list+0x92>
20002c68:	231e      	movs	r3, #30
20002c6a:	56d3      	ldrsb	r3, [r2, r3]
20002c6c:	428b      	cmp	r3, r1
20002c6e:	d020      	beq.n	20002cb2 <irq_add_tail_to_free_list+0x96>
20002c70:	232a      	movs	r3, #42	; 0x2a
20002c72:	56d3      	ldrsb	r3, [r2, r3]
20002c74:	2003      	movs	r0, #3
20002c76:	428b      	cmp	r3, r1
20002c78:	d010      	beq.n	20002c9c <irq_add_tail_to_free_list+0x80>
20002c7a:	4b13      	ldr	r3, [pc, #76]	; (20002cc8 <irq_add_tail_to_free_list+0xac>)
20002c7c:	781a      	ldrb	r2, [r3, #0]
20002c7e:	7019      	strb	r1, [r3, #0]
20002c80:	71a2      	strb	r2, [r4, #6]
20002c82:	f3bf 8f5f 	dmb	sy
20002c86:	2200      	movs	r2, #0
20002c88:	4b0b      	ldr	r3, [pc, #44]	; (20002cb8 <irq_add_tail_to_free_list+0x9c>)
20002c8a:	601a      	str	r2, [r3, #0]
20002c8c:	f386 8810 	msr	PRIMASK, r6
20002c90:	bdf8      	pop	{r3, r4, r5, r6, r7, pc}
20002c92:	6882      	ldr	r2, [r0, #8]
20002c94:	480d      	ldr	r0, [pc, #52]	; (20002ccc <irq_add_tail_to_free_list+0xb0>)
20002c96:	50d0      	str	r0, [r2, r3]
20002c98:	e7ef      	b.n	20002c7a <irq_add_tail_to_free_list+0x5e>
20002c9a:	2000      	movs	r0, #0
20002c9c:	0043      	lsls	r3, r0, #1
20002c9e:	181b      	adds	r3, r3, r0
20002ca0:	009b      	lsls	r3, r3, #2
20002ca2:	18d2      	adds	r2, r2, r3
20002ca4:	23ff      	movs	r3, #255	; 0xff
20002ca6:	7193      	strb	r3, [r2, #6]
20002ca8:	4b09      	ldr	r3, [pc, #36]	; (20002cd0 <irq_add_tail_to_free_list+0xb4>)
20002caa:	8093      	strh	r3, [r2, #4]
20002cac:	e7e5      	b.n	20002c7a <irq_add_tail_to_free_list+0x5e>
20002cae:	2001      	movs	r0, #1
20002cb0:	e7f4      	b.n	20002c9c <irq_add_tail_to_free_list+0x80>
20002cb2:	2002      	movs	r0, #2
20002cb4:	e7f2      	b.n	20002c9c <irq_add_tail_to_free_list+0x80>
20002cb6:	46c0      	nop			; (mov r8, r8)
20002cb8:	d0000124 	.word	0xd0000124
20002cbc:	2000c778 	.word	0x2000c778
20002cc0:	0000aaaa 	.word	0x0000aaaa
20002cc4:	e000ed00 	.word	0xe000ed00
20002cc8:	2000d3c6 	.word	0x2000d3c6
20002ccc:	100001cd 	.word	0x100001cd
20002cd0:	ffffbd00 	.word	0xffffbd00

20002cd4 <irq_init_priorities>:
20002cd4:	4b05      	ldr	r3, [pc, #20]	; (20002cec <irq_init_priorities+0x18>)
20002cd6:	4a06      	ldr	r2, [pc, #24]	; (20002cf0 <irq_init_priorities+0x1c>)
20002cd8:	6013      	str	r3, [r2, #0]
20002cda:	4a06      	ldr	r2, [pc, #24]	; (20002cf4 <irq_init_priorities+0x20>)
20002cdc:	6013      	str	r3, [r2, #0]
20002cde:	6053      	str	r3, [r2, #4]
20002ce0:	6093      	str	r3, [r2, #8]
20002ce2:	60d3      	str	r3, [r2, #12]
20002ce4:	6113      	str	r3, [r2, #16]
20002ce6:	6153      	str	r3, [r2, #20]
20002ce8:	6193      	str	r3, [r2, #24]
20002cea:	4770      	bx	lr
20002cec:	80808080 	.word	0x80808080
20002cf0:	e000e400 	.word	0xe000e400
20002cf4:	e000e404 	.word	0xe000e404

20002cf8 <user_irq_claim_unused>:
20002cf8:	23d0      	movs	r3, #208	; 0xd0
20002cfa:	b500      	push	{lr}
20002cfc:	061b      	lsls	r3, r3, #24
20002cfe:	681b      	ldr	r3, [r3, #0]
20002d00:	0001      	movs	r1, r0
20002d02:	4807      	ldr	r0, [pc, #28]	; (20002d20 <user_irq_claim_unused+0x28>)
20002d04:	b083      	sub	sp, #12
20002d06:	18c0      	adds	r0, r0, r3
20002d08:	4b06      	ldr	r3, [pc, #24]	; (20002d24 <user_irq_claim_unused+0x2c>)
20002d0a:	2200      	movs	r2, #0
20002d0c:	9300      	str	r3, [sp, #0]
20002d0e:	2305      	movs	r3, #5
20002d10:	f7ff fccc 	bl	200026ac <hw_claim_unused_from_range>
20002d14:	2800      	cmp	r0, #0
20002d16:	db01      	blt.n	20002d1c <user_irq_claim_unused+0x24>
20002d18:	231f      	movs	r3, #31
20002d1a:	1a18      	subs	r0, r3, r0
20002d1c:	b003      	add	sp, #12
20002d1e:	bd00      	pop	{pc}
20002d20:	2000d3c0 	.word	0x2000d3c0
20002d24:	2000bf80 	.word	0x2000bf80

20002d28 <lock_init>:
20002d28:	4b02      	ldr	r3, [pc, #8]	; (20002d34 <lock_init+0xc>)
20002d2a:	469c      	mov	ip, r3
20002d2c:	4461      	add	r1, ip
20002d2e:	0089      	lsls	r1, r1, #2
20002d30:	6001      	str	r1, [r0, #0]
20002d32:	4770      	bx	lr
20002d34:	34000040 	.word	0x34000040

20002d38 <timer_pool_entry_comparator>:
20002d38:	6883      	ldr	r3, [r0, #8]
20002d3a:	480b      	ldr	r0, [pc, #44]	; (20002d68 <timer_pool_entry_comparator+0x30>)
20002d3c:	b510      	push	{r4, lr}
20002d3e:	4684      	mov	ip, r0
20002d40:	4461      	add	r1, ip
20002d42:	4462      	add	r2, ip
20002d44:	0109      	lsls	r1, r1, #4
20002d46:	0112      	lsls	r2, r2, #4
20002d48:	189a      	adds	r2, r3, r2
20002d4a:	1859      	adds	r1, r3, r1
20002d4c:	6854      	ldr	r4, [r2, #4]
20002d4e:	684b      	ldr	r3, [r1, #4]
20002d50:	2001      	movs	r0, #1
20002d52:	429c      	cmp	r4, r3
20002d54:	d801      	bhi.n	20002d5a <timer_pool_entry_comparator+0x22>
20002d56:	d002      	beq.n	20002d5e <timer_pool_entry_comparator+0x26>
20002d58:	2000      	movs	r0, #0
20002d5a:	b2c0      	uxtb	r0, r0
20002d5c:	bd10      	pop	{r4, pc}
20002d5e:	6812      	ldr	r2, [r2, #0]
20002d60:	680b      	ldr	r3, [r1, #0]
20002d62:	429a      	cmp	r2, r3
20002d64:	d8f9      	bhi.n	20002d5a <timer_pool_entry_comparator+0x22>
20002d66:	e7f7      	b.n	20002d58 <timer_pool_entry_comparator+0x20>
20002d68:	0fffffff 	.word	0x0fffffff

20002d6c <sleep_until_callback>:
20002d6c:	4b0a      	ldr	r3, [pc, #40]	; (20002d98 <sleep_until_callback+0x2c>)
20002d6e:	6819      	ldr	r1, [r3, #0]
20002d70:	f3ef 8010 	mrs	r0, PRIMASK
20002d74:	b672      	cpsid	i
20002d76:	680a      	ldr	r2, [r1, #0]
20002d78:	2a00      	cmp	r2, #0
20002d7a:	d0fc      	beq.n	20002d76 <sleep_until_callback+0xa>
20002d7c:	f3bf 8f5f 	dmb	sy
20002d80:	681b      	ldr	r3, [r3, #0]
20002d82:	f3bf 8f5f 	dmb	sy
20002d86:	2200      	movs	r2, #0
20002d88:	601a      	str	r2, [r3, #0]
20002d8a:	f380 8810 	msr	PRIMASK, r0
20002d8e:	bf40      	sev
20002d90:	2000      	movs	r0, #0
20002d92:	2100      	movs	r1, #0
20002d94:	4770      	bx	lr
20002d96:	46c0      	nop			; (mov r8, r8)
20002d98:	2000d35c 	.word	0x2000d35c

20002d9c <alarm_pool_add_alarm_at.constprop.0>:
20002d9c:	b5f8      	push	{r3, r4, r5, r6, r7, lr}
20002d9e:	4657      	mov	r7, sl
20002da0:	464e      	mov	r6, r9
20002da2:	4645      	mov	r5, r8
20002da4:	46de      	mov	lr, fp
20002da6:	b5e0      	push	{r5, r6, r7, lr}
20002da8:	4d43      	ldr	r5, [pc, #268]	; (20002eb8 <alarm_pool_add_alarm_at.constprop.0+0x11c>)
20002daa:	4681      	mov	r9, r0
20002dac:	468a      	mov	sl, r1
20002dae:	686a      	ldr	r2, [r5, #4]
20002db0:	f3ef 8810 	mrs	r8, PRIMASK
20002db4:	b672      	cpsid	i
20002db6:	6813      	ldr	r3, [r2, #0]
20002db8:	2b00      	cmp	r3, #0
20002dba:	d0fc      	beq.n	20002db6 <alarm_pool_add_alarm_at.constprop.0+0x1a>
20002dbc:	f3bf 8f5f 	dmb	sy
20002dc0:	682e      	ldr	r6, [r5, #0]
20002dc2:	7bb4      	ldrb	r4, [r6, #14]
20002dc4:	2c00      	cmp	r4, #0
20002dc6:	d03e      	beq.n	20002e46 <alarm_pool_add_alarm_at.constprop.0+0xaa>
20002dc8:	0067      	lsls	r7, r4, #1
20002dca:	6833      	ldr	r3, [r6, #0]
20002dcc:	193f      	adds	r7, r7, r4
20002dce:	3f03      	subs	r7, #3
20002dd0:	19da      	adds	r2, r3, r7
20002dd2:	7853      	ldrb	r3, [r2, #1]
20002dd4:	73b3      	strb	r3, [r6, #14]
20002dd6:	2b00      	cmp	r3, #0
20002dd8:	d100      	bne.n	20002ddc <alarm_pool_add_alarm_at.constprop.0+0x40>
20002dda:	73f3      	strb	r3, [r6, #15]
20002ddc:	2300      	movs	r3, #0
20002dde:	7093      	strb	r3, [r2, #2]
20002de0:	7053      	strb	r3, [r2, #1]
20002de2:	7013      	strb	r3, [r2, #0]
20002de4:	68a9      	ldr	r1, [r5, #8]
20002de6:	4a35      	ldr	r2, [pc, #212]	; (20002ebc <alarm_pool_add_alarm_at.constprop.0+0x120>)
20002de8:	468c      	mov	ip, r1
20002dea:	4649      	mov	r1, r9
20002dec:	18a2      	adds	r2, r4, r2
20002dee:	0112      	lsls	r2, r2, #4
20002df0:	4462      	add	r2, ip
20002df2:	6011      	str	r1, [r2, #0]
20002df4:	4651      	mov	r1, sl
20002df6:	6051      	str	r1, [r2, #4]
20002df8:	4931      	ldr	r1, [pc, #196]	; (20002ec0 <alarm_pool_add_alarm_at.constprop.0+0x124>)
20002dfa:	60d3      	str	r3, [r2, #12]
20002dfc:	6091      	str	r1, [r2, #8]
20002dfe:	6832      	ldr	r2, [r6, #0]
20002e00:	19d2      	adds	r2, r2, r7
20002e02:	7093      	strb	r3, [r2, #2]
20002e04:	7053      	strb	r3, [r2, #1]
20002e06:	7013      	strb	r3, [r2, #0]
20002e08:	7b73      	ldrb	r3, [r6, #13]
20002e0a:	469b      	mov	fp, r3
20002e0c:	2b00      	cmp	r3, #0
20002e0e:	d035      	beq.n	20002e7c <alarm_pool_add_alarm_at.constprop.0+0xe0>
20002e10:	0022      	movs	r2, r4
20002e12:	0019      	movs	r1, r3
20002e14:	68b0      	ldr	r0, [r6, #8]
20002e16:	6873      	ldr	r3, [r6, #4]
20002e18:	4798      	blx	r3
20002e1a:	6832      	ldr	r2, [r6, #0]
20002e1c:	2800      	cmp	r0, #0
20002e1e:	d020      	beq.n	20002e62 <alarm_pool_add_alarm_at.constprop.0+0xc6>
20002e20:	465b      	mov	r3, fp
20002e22:	4658      	mov	r0, fp
20002e24:	005b      	lsls	r3, r3, #1
20002e26:	445b      	add	r3, fp
20002e28:	19d7      	adds	r7, r2, r7
20002e2a:	3b03      	subs	r3, #3
20002e2c:	70b8      	strb	r0, [r7, #2]
20002e2e:	18d1      	adds	r1, r2, r3
20002e30:	5cd3      	ldrb	r3, [r2, r3]
20002e32:	2b00      	cmp	r3, #0
20002e34:	d000      	beq.n	20002e38 <alarm_pool_add_alarm_at.constprop.0+0x9c>
20002e36:	707b      	strb	r3, [r7, #1]
20002e38:	465b      	mov	r3, fp
20002e3a:	700c      	strb	r4, [r1, #0]
20002e3c:	7373      	strb	r3, [r6, #13]
20002e3e:	455c      	cmp	r4, fp
20002e40:	d01d      	beq.n	20002e7e <alarm_pool_add_alarm_at.constprop.0+0xe2>
20002e42:	2600      	movs	r6, #0
20002e44:	e026      	b.n	20002e94 <alarm_pool_add_alarm_at.constprop.0+0xf8>
20002e46:	686b      	ldr	r3, [r5, #4]
20002e48:	f3bf 8f5f 	dmb	sy
20002e4c:	601c      	str	r4, [r3, #0]
20002e4e:	f388 8810 	msr	PRIMASK, r8
20002e52:	2001      	movs	r0, #1
20002e54:	4240      	negs	r0, r0
20002e56:	bc3c      	pop	{r2, r3, r4, r5}
20002e58:	4690      	mov	r8, r2
20002e5a:	4699      	mov	r9, r3
20002e5c:	46a2      	mov	sl, r4
20002e5e:	46ab      	mov	fp, r5
20002e60:	bdf8      	pop	{r3, r4, r5, r6, r7, pc}
20002e62:	465b      	mov	r3, fp
20002e64:	005b      	lsls	r3, r3, #1
20002e66:	445b      	add	r3, fp
20002e68:	3b03      	subs	r3, #3
20002e6a:	18d3      	adds	r3, r2, r3
20002e6c:	709c      	strb	r4, [r3, #2]
20002e6e:	19d1      	adds	r1, r2, r7
20002e70:	5dd2      	ldrb	r2, [r2, r7]
20002e72:	2a00      	cmp	r2, #0
20002e74:	d000      	beq.n	20002e78 <alarm_pool_add_alarm_at.constprop.0+0xdc>
20002e76:	705a      	strb	r2, [r3, #1]
20002e78:	465b      	mov	r3, fp
20002e7a:	700b      	strb	r3, [r1, #0]
20002e7c:	7374      	strb	r4, [r6, #13]
20002e7e:	464a      	mov	r2, r9
20002e80:	4653      	mov	r3, sl
20002e82:	7d28      	ldrb	r0, [r5, #20]
20002e84:	f000 fc60 	bl	20003748 <hardware_alarm_set_target>
20002e88:	1e06      	subs	r6, r0, #0
20002e8a:	d0da      	beq.n	20002e42 <alarm_pool_add_alarm_at.constprop.0+0xa6>
20002e8c:	0021      	movs	r1, r4
20002e8e:	6828      	ldr	r0, [r5, #0]
20002e90:	f000 fea0 	bl	20003bd4 <ph_remove_and_free_node>
20002e94:	68eb      	ldr	r3, [r5, #12]
20002e96:	686a      	ldr	r2, [r5, #4]
20002e98:	191b      	adds	r3, r3, r4
20002e9a:	3b01      	subs	r3, #1
20002e9c:	781b      	ldrb	r3, [r3, #0]
20002e9e:	f3bf 8f5f 	dmb	sy
20002ea2:	2100      	movs	r1, #0
20002ea4:	6011      	str	r1, [r2, #0]
20002ea6:	f388 8810 	msr	PRIMASK, r8
20002eaa:	2000      	movs	r0, #0
20002eac:	2e00      	cmp	r6, #0
20002eae:	d1d2      	bne.n	20002e56 <alarm_pool_add_alarm_at.constprop.0+0xba>
20002eb0:	0218      	lsls	r0, r3, #8
20002eb2:	4320      	orrs	r0, r4
20002eb4:	e7cf      	b.n	20002e56 <alarm_pool_add_alarm_at.constprop.0+0xba>
20002eb6:	46c0      	nop			; (mov r8, r8)
20002eb8:	2000c7c0 	.word	0x2000c7c0
20002ebc:	0fffffff 	.word	0x0fffffff
20002ec0:	20002d6d 	.word	0x20002d6d

20002ec4 <add_alarm_under_lock>:
20002ec4:	b5f8      	push	{r3, r4, r5, r6, r7, lr}
20002ec6:	4657      	mov	r7, sl
20002ec8:	4645      	mov	r5, r8
20002eca:	464e      	mov	r6, r9
20002ecc:	46de      	mov	lr, fp
20002ece:	b5e0      	push	{r5, r6, r7, lr}
20002ed0:	4699      	mov	r9, r3
20002ed2:	ab0c      	add	r3, sp, #48	; 0x30
20002ed4:	7819      	ldrb	r1, [r3, #0]
20002ed6:	ab0d      	add	r3, sp, #52	; 0x34
20002ed8:	781b      	ldrb	r3, [r3, #0]
20002eda:	0005      	movs	r5, r0
20002edc:	4690      	mov	r8, r2
20002ede:	469a      	mov	sl, r3
20002ee0:	6807      	ldr	r7, [r0, #0]
20002ee2:	2900      	cmp	r1, #0
20002ee4:	d112      	bne.n	20002f0c <add_alarm_under_lock+0x48>
20002ee6:	7bbe      	ldrb	r6, [r7, #14]
20002ee8:	2e00      	cmp	r6, #0
20002eea:	d045      	beq.n	20002f78 <add_alarm_under_lock+0xb4>
20002eec:	0074      	lsls	r4, r6, #1
20002eee:	683b      	ldr	r3, [r7, #0]
20002ef0:	19a4      	adds	r4, r4, r6
20002ef2:	3c03      	subs	r4, #3
20002ef4:	191b      	adds	r3, r3, r4
20002ef6:	785a      	ldrb	r2, [r3, #1]
20002ef8:	0031      	movs	r1, r6
20002efa:	73ba      	strb	r2, [r7, #14]
20002efc:	2a00      	cmp	r2, #0
20002efe:	d100      	bne.n	20002f02 <add_alarm_under_lock+0x3e>
20002f00:	73fa      	strb	r2, [r7, #15]
20002f02:	2200      	movs	r2, #0
20002f04:	709a      	strb	r2, [r3, #2]
20002f06:	705a      	strb	r2, [r3, #1]
20002f08:	701a      	strb	r2, [r3, #0]
20002f0a:	e003      	b.n	20002f14 <add_alarm_under_lock+0x50>
20002f0c:	000e      	movs	r6, r1
20002f0e:	004c      	lsls	r4, r1, #1
20002f10:	1864      	adds	r4, r4, r1
20002f12:	3c03      	subs	r4, #3
20002f14:	4b2c      	ldr	r3, [pc, #176]	; (20002fc8 <add_alarm_under_lock+0x104>)
20002f16:	2200      	movs	r2, #0
20002f18:	469c      	mov	ip, r3
20002f1a:	68ab      	ldr	r3, [r5, #8]
20002f1c:	4461      	add	r1, ip
20002f1e:	469c      	mov	ip, r3
20002f20:	4643      	mov	r3, r8
20002f22:	0109      	lsls	r1, r1, #4
20002f24:	4461      	add	r1, ip
20002f26:	600b      	str	r3, [r1, #0]
20002f28:	464b      	mov	r3, r9
20002f2a:	604b      	str	r3, [r1, #4]
20002f2c:	9b0a      	ldr	r3, [sp, #40]	; 0x28
20002f2e:	608b      	str	r3, [r1, #8]
20002f30:	9b0b      	ldr	r3, [sp, #44]	; 0x2c
20002f32:	60cb      	str	r3, [r1, #12]
20002f34:	683b      	ldr	r3, [r7, #0]
20002f36:	191b      	adds	r3, r3, r4
20002f38:	709a      	strb	r2, [r3, #2]
20002f3a:	705a      	strb	r2, [r3, #1]
20002f3c:	701a      	strb	r2, [r3, #0]
20002f3e:	7b7b      	ldrb	r3, [r7, #13]
20002f40:	469b      	mov	fp, r3
20002f42:	2b00      	cmp	r3, #0
20002f44:	d02c      	beq.n	20002fa0 <add_alarm_under_lock+0xdc>
20002f46:	0032      	movs	r2, r6
20002f48:	4659      	mov	r1, fp
20002f4a:	68b8      	ldr	r0, [r7, #8]
20002f4c:	687b      	ldr	r3, [r7, #4]
20002f4e:	4798      	blx	r3
20002f50:	683a      	ldr	r2, [r7, #0]
20002f52:	2800      	cmp	r0, #0
20002f54:	d017      	beq.n	20002f86 <add_alarm_under_lock+0xc2>
20002f56:	465b      	mov	r3, fp
20002f58:	4658      	mov	r0, fp
20002f5a:	005b      	lsls	r3, r3, #1
20002f5c:	445b      	add	r3, fp
20002f5e:	1914      	adds	r4, r2, r4
20002f60:	3b03      	subs	r3, #3
20002f62:	70a0      	strb	r0, [r4, #2]
20002f64:	18d1      	adds	r1, r2, r3
20002f66:	5cd3      	ldrb	r3, [r2, r3]
20002f68:	2b00      	cmp	r3, #0
20002f6a:	d000      	beq.n	20002f6e <add_alarm_under_lock+0xaa>
20002f6c:	7063      	strb	r3, [r4, #1]
20002f6e:	465b      	mov	r3, fp
20002f70:	700e      	strb	r6, [r1, #0]
20002f72:	737b      	strb	r3, [r7, #13]
20002f74:	45b3      	cmp	fp, r6
20002f76:	d014      	beq.n	20002fa2 <add_alarm_under_lock+0xde>
20002f78:	0030      	movs	r0, r6
20002f7a:	bc3c      	pop	{r2, r3, r4, r5}
20002f7c:	4690      	mov	r8, r2
20002f7e:	4699      	mov	r9, r3
20002f80:	46a2      	mov	sl, r4
20002f82:	46ab      	mov	fp, r5
20002f84:	bdf8      	pop	{r3, r4, r5, r6, r7, pc}
20002f86:	465b      	mov	r3, fp
20002f88:	005b      	lsls	r3, r3, #1
20002f8a:	445b      	add	r3, fp
20002f8c:	3b03      	subs	r3, #3
20002f8e:	18d3      	adds	r3, r2, r3
20002f90:	709e      	strb	r6, [r3, #2]
20002f92:	1911      	adds	r1, r2, r4
20002f94:	5d12      	ldrb	r2, [r2, r4]
20002f96:	2a00      	cmp	r2, #0
20002f98:	d000      	beq.n	20002f9c <add_alarm_under_lock+0xd8>
20002f9a:	705a      	strb	r2, [r3, #1]
20002f9c:	465b      	mov	r3, fp
20002f9e:	700b      	strb	r3, [r1, #0]
20002fa0:	737e      	strb	r6, [r7, #13]
20002fa2:	4642      	mov	r2, r8
20002fa4:	464b      	mov	r3, r9
20002fa6:	7d28      	ldrb	r0, [r5, #20]
20002fa8:	f000 fbce 	bl	20003748 <hardware_alarm_set_target>
20002fac:	1e04      	subs	r4, r0, #0
20002fae:	d006      	beq.n	20002fbe <add_alarm_under_lock+0xfa>
20002fb0:	4653      	mov	r3, sl
20002fb2:	2b00      	cmp	r3, #0
20002fb4:	d103      	bne.n	20002fbe <add_alarm_under_lock+0xfa>
20002fb6:	0031      	movs	r1, r6
20002fb8:	6828      	ldr	r0, [r5, #0]
20002fba:	f000 fe0b 	bl	20003bd4 <ph_remove_and_free_node>
20002fbe:	9b0e      	ldr	r3, [sp, #56]	; 0x38
20002fc0:	2b00      	cmp	r3, #0
20002fc2:	d0d9      	beq.n	20002f78 <add_alarm_under_lock+0xb4>
20002fc4:	701c      	strb	r4, [r3, #0]
20002fc6:	e7d7      	b.n	20002f78 <add_alarm_under_lock+0xb4>
20002fc8:	0fffffff 	.word	0x0fffffff

20002fcc <alarm_pool_alarm_callback>:
20002fcc:	b5f0      	push	{r4, r5, r6, r7, lr}
20002fce:	46de      	mov	lr, fp
20002fd0:	464e      	mov	r6, r9
20002fd2:	4657      	mov	r7, sl
20002fd4:	4645      	mov	r5, r8
20002fd6:	2300      	movs	r3, #0
20002fd8:	b5e0      	push	{r5, r6, r7, lr}
20002fda:	b08d      	sub	sp, #52	; 0x34
20002fdc:	930a      	str	r3, [sp, #40]	; 0x28
20002fde:	4b6b      	ldr	r3, [pc, #428]	; (2000318c <alarm_pool_alarm_callback+0x1c0>)
20002fe0:	0082      	lsls	r2, r0, #2
20002fe2:	58d3      	ldr	r3, [r2, r3]
20002fe4:	900b      	str	r0, [sp, #44]	; 0x2c
20002fe6:	4699      	mov	r9, r3
20002fe8:	2300      	movs	r3, #0
20002fea:	469b      	mov	fp, r3
20002fec:	464b      	mov	r3, r9
20002fee:	9307      	str	r3, [sp, #28]
20002ff0:	f000 fb20 	bl	20003634 <time_us_64>
20002ff4:	9c07      	ldr	r4, [sp, #28]
20002ff6:	0006      	movs	r6, r0
20002ff8:	000f      	movs	r7, r1
20002ffa:	6862      	ldr	r2, [r4, #4]
20002ffc:	f3ef 8510 	mrs	r5, PRIMASK
20003000:	b672      	cpsid	i
20003002:	6813      	ldr	r3, [r2, #0]
20003004:	2b00      	cmp	r3, #0
20003006:	d0fc      	beq.n	20003002 <alarm_pool_alarm_callback+0x36>
20003008:	0022      	movs	r2, r4
2000300a:	9407      	str	r4, [sp, #28]
2000300c:	f3bf 8f5f 	dmb	sy
20003010:	6824      	ldr	r4, [r4, #0]
20003012:	7b63      	ldrb	r3, [r4, #13]
20003014:	4699      	mov	r9, r3
20003016:	2b00      	cmp	r3, #0
20003018:	d067      	beq.n	200030ea <alarm_pool_alarm_callback+0x11e>
2000301a:	6892      	ldr	r2, [r2, #8]
2000301c:	4b5c      	ldr	r3, [pc, #368]	; (20003190 <alarm_pool_alarm_callback+0x1c4>)
2000301e:	4690      	mov	r8, r2
20003020:	444b      	add	r3, r9
20003022:	011b      	lsls	r3, r3, #4
20003024:	4498      	add	r8, r3
20003026:	4643      	mov	r3, r8
20003028:	681a      	ldr	r2, [r3, #0]
2000302a:	685b      	ldr	r3, [r3, #4]
2000302c:	0010      	movs	r0, r2
2000302e:	0019      	movs	r1, r3
20003030:	1b80      	subs	r0, r0, r6
20003032:	41b9      	sbcs	r1, r7
20003034:	2900      	cmp	r1, #0
20003036:	dd5f      	ble.n	200030f8 <alarm_pool_alarm_callback+0x12c>
20003038:	980b      	ldr	r0, [sp, #44]	; 0x2c
2000303a:	f000 fb85 	bl	20003748 <hardware_alarm_set_target>
2000303e:	2300      	movs	r3, #0
20003040:	2600      	movs	r6, #0
20003042:	4698      	mov	r8, r3
20003044:	2700      	movs	r7, #0
20003046:	469a      	mov	sl, r3
20003048:	9c07      	ldr	r4, [sp, #28]
2000304a:	6863      	ldr	r3, [r4, #4]
2000304c:	f3bf 8f5f 	dmb	sy
20003050:	465a      	mov	r2, fp
20003052:	601a      	str	r2, [r3, #0]
20003054:	f385 8810 	msr	PRIMASK, r5
20003058:	4653      	mov	r3, sl
2000305a:	2b00      	cmp	r3, #0
2000305c:	d108      	bne.n	20003070 <alarm_pool_alarm_callback+0xa4>
2000305e:	2800      	cmp	r0, #0
20003060:	d1c6      	bne.n	20002ff0 <alarm_pool_alarm_callback+0x24>
20003062:	b00d      	add	sp, #52	; 0x34
20003064:	bc3c      	pop	{r2, r3, r4, r5}
20003066:	4690      	mov	r8, r2
20003068:	4699      	mov	r9, r3
2000306a:	46a2      	mov	sl, r4
2000306c:	46ab      	mov	fp, r5
2000306e:	bdf0      	pop	{r4, r5, r6, r7, pc}
20003070:	9b0a      	ldr	r3, [sp, #40]	; 0x28
20003072:	4641      	mov	r1, r8
20003074:	0218      	lsls	r0, r3, #8
20003076:	464b      	mov	r3, r9
20003078:	4318      	orrs	r0, r3
2000307a:	47d0      	blx	sl
2000307c:	9008      	str	r0, [sp, #32]
2000307e:	9109      	str	r1, [sp, #36]	; 0x24
20003080:	6862      	ldr	r2, [r4, #4]
20003082:	f3ef 8510 	mrs	r5, PRIMASK
20003086:	b672      	cpsid	i
20003088:	6813      	ldr	r3, [r2, #0]
2000308a:	2b00      	cmp	r3, #0
2000308c:	d0fc      	beq.n	20003088 <alarm_pool_alarm_callback+0xbc>
2000308e:	9407      	str	r4, [sp, #28]
20003090:	f3bf 8f5f 	dmb	sy
20003094:	9908      	ldr	r1, [sp, #32]
20003096:	9a09      	ldr	r2, [sp, #36]	; 0x24
20003098:	2a00      	cmp	r2, #0
2000309a:	db48      	blt.n	2000312e <alarm_pool_alarm_callback+0x162>
2000309c:	4311      	orrs	r1, r2
2000309e:	d003      	beq.n	200030a8 <alarm_pool_alarm_callback+0xdc>
200030a0:	9b07      	ldr	r3, [sp, #28]
200030a2:	691b      	ldr	r3, [r3, #16]
200030a4:	2b00      	cmp	r3, #0
200030a6:	d15d      	bne.n	20003164 <alarm_pool_alarm_callback+0x198>
200030a8:	9b07      	ldr	r3, [sp, #28]
200030aa:	681b      	ldr	r3, [r3, #0]
200030ac:	7bda      	ldrb	r2, [r3, #15]
200030ae:	2a00      	cmp	r2, #0
200030b0:	d007      	beq.n	200030c2 <alarm_pool_alarm_callback+0xf6>
200030b2:	0051      	lsls	r1, r2, #1
200030b4:	188a      	adds	r2, r1, r2
200030b6:	6819      	ldr	r1, [r3, #0]
200030b8:	468c      	mov	ip, r1
200030ba:	4649      	mov	r1, r9
200030bc:	4462      	add	r2, ip
200030be:	3a03      	subs	r2, #3
200030c0:	7051      	strb	r1, [r2, #1]
200030c2:	464a      	mov	r2, r9
200030c4:	73da      	strb	r2, [r3, #15]
200030c6:	464b      	mov	r3, r9
200030c8:	9a07      	ldr	r2, [sp, #28]
200030ca:	3b01      	subs	r3, #1
200030cc:	68d1      	ldr	r1, [r2, #12]
200030ce:	5cca      	ldrb	r2, [r1, r3]
200030d0:	3201      	adds	r2, #1
200030d2:	54ca      	strb	r2, [r1, r3]
200030d4:	465b      	mov	r3, fp
200030d6:	9a07      	ldr	r2, [sp, #28]
200030d8:	6113      	str	r3, [r2, #16]
200030da:	6853      	ldr	r3, [r2, #4]
200030dc:	f3bf 8f5f 	dmb	sy
200030e0:	465a      	mov	r2, fp
200030e2:	601a      	str	r2, [r3, #0]
200030e4:	f385 8810 	msr	PRIMASK, r5
200030e8:	e782      	b.n	20002ff0 <alarm_pool_alarm_callback+0x24>
200030ea:	2300      	movs	r3, #0
200030ec:	2600      	movs	r6, #0
200030ee:	4698      	mov	r8, r3
200030f0:	2700      	movs	r7, #0
200030f2:	469a      	mov	sl, r3
200030f4:	2000      	movs	r0, #0
200030f6:	e7a7      	b.n	20003048 <alarm_pool_alarm_callback+0x7c>
200030f8:	2900      	cmp	r1, #0
200030fa:	d101      	bne.n	20003100 <alarm_pool_alarm_callback+0x134>
200030fc:	2800      	cmp	r0, #0
200030fe:	d19b      	bne.n	20003038 <alarm_pool_alarm_callback+0x6c>
20003100:	2100      	movs	r1, #0
20003102:	0020      	movs	r0, r4
20003104:	f000 fcc8 	bl	20003a98 <ph_remove_head>
20003108:	4643      	mov	r3, r8
2000310a:	681e      	ldr	r6, [r3, #0]
2000310c:	685f      	ldr	r7, [r3, #4]
2000310e:	689b      	ldr	r3, [r3, #8]
20003110:	9a07      	ldr	r2, [sp, #28]
20003112:	469a      	mov	sl, r3
20003114:	4643      	mov	r3, r8
20003116:	68db      	ldr	r3, [r3, #12]
20003118:	4698      	mov	r8, r3
2000311a:	68d3      	ldr	r3, [r2, #12]
2000311c:	444b      	add	r3, r9
2000311e:	3b01      	subs	r3, #1
20003120:	781b      	ldrb	r3, [r3, #0]
20003122:	930a      	str	r3, [sp, #40]	; 0x28
20003124:	021b      	lsls	r3, r3, #8
20003126:	4303      	orrs	r3, r0
20003128:	6113      	str	r3, [r2, #16]
2000312a:	2000      	movs	r0, #0
2000312c:	e78c      	b.n	20003048 <alarm_pool_alarm_callback+0x7c>
2000312e:	6923      	ldr	r3, [r4, #16]
20003130:	2b00      	cmp	r3, #0
20003132:	d0b9      	beq.n	200030a8 <alarm_pool_alarm_callback+0xdc>
20003134:	0033      	movs	r3, r6
20003136:	003c      	movs	r4, r7
20003138:	1a5b      	subs	r3, r3, r1
2000313a:	4194      	sbcs	r4, r2
2000313c:	001a      	movs	r2, r3
2000313e:	0023      	movs	r3, r4
20003140:	42a7      	cmp	r7, r4
20003142:	d819      	bhi.n	20003178 <alarm_pool_alarm_callback+0x1ac>
20003144:	429f      	cmp	r7, r3
20003146:	d01b      	beq.n	20003180 <alarm_pool_alarm_callback+0x1b4>
20003148:	4659      	mov	r1, fp
2000314a:	9104      	str	r1, [sp, #16]
2000314c:	2101      	movs	r1, #1
2000314e:	9103      	str	r1, [sp, #12]
20003150:	4649      	mov	r1, r9
20003152:	9102      	str	r1, [sp, #8]
20003154:	4641      	mov	r1, r8
20003156:	9101      	str	r1, [sp, #4]
20003158:	4651      	mov	r1, sl
2000315a:	9807      	ldr	r0, [sp, #28]
2000315c:	9100      	str	r1, [sp, #0]
2000315e:	f7ff feb1 	bl	20002ec4 <add_alarm_under_lock>
20003162:	e7b7      	b.n	200030d4 <alarm_pool_alarm_callback+0x108>
20003164:	f000 fa66 	bl	20003634 <time_us_64>
20003168:	9a08      	ldr	r2, [sp, #32]
2000316a:	9b09      	ldr	r3, [sp, #36]	; 0x24
2000316c:	0006      	movs	r6, r0
2000316e:	000f      	movs	r7, r1
20003170:	1992      	adds	r2, r2, r6
20003172:	417b      	adcs	r3, r7
20003174:	4299      	cmp	r1, r3
20003176:	d9e5      	bls.n	20003144 <alarm_pool_alarm_callback+0x178>
20003178:	2201      	movs	r2, #1
2000317a:	4252      	negs	r2, r2
2000317c:	17d3      	asrs	r3, r2, #31
2000317e:	e7e3      	b.n	20003148 <alarm_pool_alarm_callback+0x17c>
20003180:	4296      	cmp	r6, r2
20003182:	d9e1      	bls.n	20003148 <alarm_pool_alarm_callback+0x17c>
20003184:	2201      	movs	r2, #1
20003186:	4252      	negs	r2, r2
20003188:	17d3      	asrs	r3, r2, #31
2000318a:	e7dd      	b.n	20003148 <alarm_pool_alarm_callback+0x17c>
2000318c:	2000d340 	.word	0x2000d340
20003190:	0fffffff 	.word	0x0fffffff

20003194 <alarm_pool_init_default>:
20003194:	b510      	push	{r4, lr}
20003196:	4c12      	ldr	r4, [pc, #72]	; (200031e0 <alarm_pool_init_default+0x4c>)
20003198:	6863      	ldr	r3, [r4, #4]
2000319a:	2b00      	cmp	r3, #0
2000319c:	d004      	beq.n	200031a8 <alarm_pool_init_default+0x14>
2000319e:	210a      	movs	r1, #10
200031a0:	4810      	ldr	r0, [pc, #64]	; (200031e4 <alarm_pool_init_default+0x50>)
200031a2:	f7ff fdc1 	bl	20002d28 <lock_init>
200031a6:	bd10      	pop	{r4, pc}
200031a8:	0023      	movs	r3, r4
200031aa:	4a0f      	ldr	r2, [pc, #60]	; (200031e8 <alarm_pool_init_default+0x54>)
200031ac:	2110      	movs	r1, #16
200031ae:	6820      	ldr	r0, [r4, #0]
200031b0:	f000 fb90 	bl	200038d4 <ph_post_alloc_init>
200031b4:	2003      	movs	r0, #3
200031b6:	f000 fa31 	bl	2000361c <hardware_alarm_claim>
200031ba:	2003      	movs	r0, #3
200031bc:	f000 fb36 	bl	2000382c <hardware_alarm_cancel>
200031c0:	2003      	movs	r0, #3
200031c2:	490a      	ldr	r1, [pc, #40]	; (200031ec <alarm_pool_init_default+0x58>)
200031c4:	f000 fa7a 	bl	200036bc <hardware_alarm_set_callback>
200031c8:	f7ff fad4 	bl	20002774 <next_striped_spin_lock_num>
200031cc:	4b08      	ldr	r3, [pc, #32]	; (200031f0 <alarm_pool_init_default+0x5c>)
200031ce:	469c      	mov	ip, r3
200031d0:	2303      	movs	r3, #3
200031d2:	4460      	add	r0, ip
200031d4:	7523      	strb	r3, [r4, #20]
200031d6:	4b07      	ldr	r3, [pc, #28]	; (200031f4 <alarm_pool_init_default+0x60>)
200031d8:	0080      	lsls	r0, r0, #2
200031da:	6060      	str	r0, [r4, #4]
200031dc:	60dc      	str	r4, [r3, #12]
200031de:	e7de      	b.n	2000319e <alarm_pool_init_default+0xa>
200031e0:	2000c7c0 	.word	0x2000c7c0
200031e4:	2000d35c 	.word	0x2000d35c
200031e8:	20002d39 	.word	0x20002d39
200031ec:	20002fcd 	.word	0x20002fcd
200031f0:	34000040 	.word	0x34000040
200031f4:	2000d340 	.word	0x2000d340

200031f8 <alarm_pool_get_default>:
200031f8:	4800      	ldr	r0, [pc, #0]	; (200031fc <alarm_pool_get_default+0x4>)
200031fa:	4770      	bx	lr
200031fc:	2000c7c0 	.word	0x2000c7c0

20003200 <alarm_pool_add_alarm_at>:
20003200:	b5f0      	push	{r4, r5, r6, r7, lr}
20003202:	4657      	mov	r7, sl
20003204:	4645      	mov	r5, r8
20003206:	46de      	mov	lr, fp
20003208:	464e      	mov	r6, r9
2000320a:	b5e0      	push	{r5, r6, r7, lr}
2000320c:	b085      	sub	sp, #20
2000320e:	9301      	str	r3, [sp, #4]
20003210:	ab10      	add	r3, sp, #64	; 0x40
20003212:	781b      	ldrb	r3, [r3, #0]
20003214:	2700      	movs	r7, #0
20003216:	9303      	str	r3, [sp, #12]
20003218:	2300      	movs	r3, #0
2000321a:	4680      	mov	r8, r0
2000321c:	469a      	mov	sl, r3
2000321e:	9200      	str	r2, [sp, #0]
20003220:	4643      	mov	r3, r8
20003222:	685a      	ldr	r2, [r3, #4]
20003224:	f3ef 8910 	mrs	r9, PRIMASK
20003228:	b672      	cpsid	i
2000322a:	6813      	ldr	r3, [r2, #0]
2000322c:	2b00      	cmp	r3, #0
2000322e:	d0fc      	beq.n	2000322a <alarm_pool_add_alarm_at+0x2a>
20003230:	f3bf 8f5f 	dmb	sy
20003234:	4643      	mov	r3, r8
20003236:	681d      	ldr	r5, [r3, #0]
20003238:	7bac      	ldrb	r4, [r5, #14]
2000323a:	2c00      	cmp	r4, #0
2000323c:	d04f      	beq.n	200032de <alarm_pool_add_alarm_at+0xde>
2000323e:	0066      	lsls	r6, r4, #1
20003240:	682b      	ldr	r3, [r5, #0]
20003242:	1936      	adds	r6, r6, r4
20003244:	3e03      	subs	r6, #3
20003246:	199b      	adds	r3, r3, r6
20003248:	785a      	ldrb	r2, [r3, #1]
2000324a:	73aa      	strb	r2, [r5, #14]
2000324c:	2a00      	cmp	r2, #0
2000324e:	d100      	bne.n	20003252 <alarm_pool_add_alarm_at+0x52>
20003250:	73ea      	strb	r2, [r5, #15]
20003252:	4642      	mov	r2, r8
20003254:	709f      	strb	r7, [r3, #2]
20003256:	705f      	strb	r7, [r3, #1]
20003258:	701f      	strb	r7, [r3, #0]
2000325a:	6892      	ldr	r2, [r2, #8]
2000325c:	4b52      	ldr	r3, [pc, #328]	; (200033a8 <alarm_pool_add_alarm_at+0x1a8>)
2000325e:	4694      	mov	ip, r2
20003260:	9900      	ldr	r1, [sp, #0]
20003262:	9a01      	ldr	r2, [sp, #4]
20003264:	18e3      	adds	r3, r4, r3
20003266:	011b      	lsls	r3, r3, #4
20003268:	4463      	add	r3, ip
2000326a:	6019      	str	r1, [r3, #0]
2000326c:	605a      	str	r2, [r3, #4]
2000326e:	9a0e      	ldr	r2, [sp, #56]	; 0x38
20003270:	609a      	str	r2, [r3, #8]
20003272:	9a0f      	ldr	r2, [sp, #60]	; 0x3c
20003274:	60da      	str	r2, [r3, #12]
20003276:	682b      	ldr	r3, [r5, #0]
20003278:	199b      	adds	r3, r3, r6
2000327a:	709f      	strb	r7, [r3, #2]
2000327c:	705f      	strb	r7, [r3, #1]
2000327e:	701f      	strb	r7, [r3, #0]
20003280:	7b6b      	ldrb	r3, [r5, #13]
20003282:	469b      	mov	fp, r3
20003284:	2b00      	cmp	r3, #0
20003286:	d046      	beq.n	20003316 <alarm_pool_add_alarm_at+0x116>
20003288:	0022      	movs	r2, r4
2000328a:	0019      	movs	r1, r3
2000328c:	68a8      	ldr	r0, [r5, #8]
2000328e:	686b      	ldr	r3, [r5, #4]
20003290:	4798      	blx	r3
20003292:	682a      	ldr	r2, [r5, #0]
20003294:	2800      	cmp	r0, #0
20003296:	d031      	beq.n	200032fc <alarm_pool_add_alarm_at+0xfc>
20003298:	465b      	mov	r3, fp
2000329a:	4658      	mov	r0, fp
2000329c:	005b      	lsls	r3, r3, #1
2000329e:	445b      	add	r3, fp
200032a0:	1996      	adds	r6, r2, r6
200032a2:	3b03      	subs	r3, #3
200032a4:	70b0      	strb	r0, [r6, #2]
200032a6:	18d1      	adds	r1, r2, r3
200032a8:	5cd3      	ldrb	r3, [r2, r3]
200032aa:	2b00      	cmp	r3, #0
200032ac:	d000      	beq.n	200032b0 <alarm_pool_add_alarm_at+0xb0>
200032ae:	7073      	strb	r3, [r6, #1]
200032b0:	465b      	mov	r3, fp
200032b2:	700c      	strb	r4, [r1, #0]
200032b4:	736b      	strb	r3, [r5, #13]
200032b6:	455c      	cmp	r4, fp
200032b8:	d02e      	beq.n	20003318 <alarm_pool_add_alarm_at+0x118>
200032ba:	4643      	mov	r3, r8
200032bc:	68db      	ldr	r3, [r3, #12]
200032be:	191b      	adds	r3, r3, r4
200032c0:	3b01      	subs	r3, #1
200032c2:	7818      	ldrb	r0, [r3, #0]
200032c4:	4643      	mov	r3, r8
200032c6:	685b      	ldr	r3, [r3, #4]
200032c8:	f3bf 8f5f 	dmb	sy
200032cc:	601f      	str	r7, [r3, #0]
200032ce:	f389 8810 	msr	PRIMASK, r9
200032d2:	4653      	mov	r3, sl
200032d4:	2b00      	cmp	r3, #0
200032d6:	d12e      	bne.n	20003336 <alarm_pool_add_alarm_at+0x136>
200032d8:	0200      	lsls	r0, r0, #8
200032da:	4320      	orrs	r0, r4
200032dc:	e007      	b.n	200032ee <alarm_pool_add_alarm_at+0xee>
200032de:	685b      	ldr	r3, [r3, #4]
200032e0:	f3bf 8f5f 	dmb	sy
200032e4:	601c      	str	r4, [r3, #0]
200032e6:	f389 8810 	msr	PRIMASK, r9
200032ea:	2001      	movs	r0, #1
200032ec:	4240      	negs	r0, r0
200032ee:	b005      	add	sp, #20
200032f0:	bc3c      	pop	{r2, r3, r4, r5}
200032f2:	4690      	mov	r8, r2
200032f4:	4699      	mov	r9, r3
200032f6:	46a2      	mov	sl, r4
200032f8:	46ab      	mov	fp, r5
200032fa:	bdf0      	pop	{r4, r5, r6, r7, pc}
200032fc:	465b      	mov	r3, fp
200032fe:	005b      	lsls	r3, r3, #1
20003300:	445b      	add	r3, fp
20003302:	3b03      	subs	r3, #3
20003304:	18d3      	adds	r3, r2, r3
20003306:	709c      	strb	r4, [r3, #2]
20003308:	1991      	adds	r1, r2, r6
2000330a:	5d92      	ldrb	r2, [r2, r6]
2000330c:	2a00      	cmp	r2, #0
2000330e:	d000      	beq.n	20003312 <alarm_pool_add_alarm_at+0x112>
20003310:	705a      	strb	r2, [r3, #1]
20003312:	465b      	mov	r3, fp
20003314:	700b      	strb	r3, [r1, #0]
20003316:	736c      	strb	r4, [r5, #13]
20003318:	4643      	mov	r3, r8
2000331a:	7d18      	ldrb	r0, [r3, #20]
2000331c:	9a00      	ldr	r2, [sp, #0]
2000331e:	9b01      	ldr	r3, [sp, #4]
20003320:	f000 fa12 	bl	20003748 <hardware_alarm_set_target>
20003324:	4682      	mov	sl, r0
20003326:	2800      	cmp	r0, #0
20003328:	d0c7      	beq.n	200032ba <alarm_pool_add_alarm_at+0xba>
2000332a:	4643      	mov	r3, r8
2000332c:	0021      	movs	r1, r4
2000332e:	6818      	ldr	r0, [r3, #0]
20003330:	f000 fc50 	bl	20003bd4 <ph_remove_and_free_node>
20003334:	e7c1      	b.n	200032ba <alarm_pool_add_alarm_at+0xba>
20003336:	9b03      	ldr	r3, [sp, #12]
20003338:	2b00      	cmp	r3, #0
2000333a:	d032      	beq.n	200033a2 <alarm_pool_add_alarm_at+0x1a2>
2000333c:	9b0e      	ldr	r3, [sp, #56]	; 0x38
2000333e:	2000      	movs	r0, #0
20003340:	990f      	ldr	r1, [sp, #60]	; 0x3c
20003342:	4798      	blx	r3
20003344:	0003      	movs	r3, r0
20003346:	0004      	movs	r4, r0
20003348:	000d      	movs	r5, r1
2000334a:	430b      	orrs	r3, r1
2000334c:	d029      	beq.n	200033a2 <alarm_pool_add_alarm_at+0x1a2>
2000334e:	2900      	cmp	r1, #0
20003350:	da0d      	bge.n	2000336e <alarm_pool_add_alarm_at+0x16e>
20003352:	9800      	ldr	r0, [sp, #0]
20003354:	9901      	ldr	r1, [sp, #4]
20003356:	0002      	movs	r2, r0
20003358:	000b      	movs	r3, r1
2000335a:	1b12      	subs	r2, r2, r4
2000335c:	41ab      	sbcs	r3, r5
2000335e:	4299      	cmp	r1, r3
20003360:	d815      	bhi.n	2000338e <alarm_pool_add_alarm_at+0x18e>
20003362:	d01a      	beq.n	2000339a <alarm_pool_add_alarm_at+0x19a>
20003364:	9200      	str	r2, [sp, #0]
20003366:	9301      	str	r3, [sp, #4]
20003368:	9b03      	ldr	r3, [sp, #12]
2000336a:	469a      	mov	sl, r3
2000336c:	e758      	b.n	20003220 <alarm_pool_add_alarm_at+0x20>
2000336e:	f000 f961 	bl	20003634 <time_us_64>
20003372:	0002      	movs	r2, r0
20003374:	000b      	movs	r3, r1
20003376:	18a4      	adds	r4, r4, r2
20003378:	415d      	adcs	r5, r3
2000337a:	0020      	movs	r0, r4
2000337c:	0029      	movs	r1, r5
2000337e:	9000      	str	r0, [sp, #0]
20003380:	9101      	str	r1, [sp, #4]
20003382:	42ab      	cmp	r3, r5
20003384:	d803      	bhi.n	2000338e <alarm_pool_add_alarm_at+0x18e>
20003386:	d1ef      	bne.n	20003368 <alarm_pool_add_alarm_at+0x168>
20003388:	9900      	ldr	r1, [sp, #0]
2000338a:	428a      	cmp	r2, r1
2000338c:	d9ec      	bls.n	20003368 <alarm_pool_add_alarm_at+0x168>
2000338e:	2301      	movs	r3, #1
20003390:	425b      	negs	r3, r3
20003392:	17dc      	asrs	r4, r3, #31
20003394:	9300      	str	r3, [sp, #0]
20003396:	9401      	str	r4, [sp, #4]
20003398:	e7e6      	b.n	20003368 <alarm_pool_add_alarm_at+0x168>
2000339a:	9900      	ldr	r1, [sp, #0]
2000339c:	4291      	cmp	r1, r2
2000339e:	d9e1      	bls.n	20003364 <alarm_pool_add_alarm_at+0x164>
200033a0:	e7f5      	b.n	2000338e <alarm_pool_add_alarm_at+0x18e>
200033a2:	2000      	movs	r0, #0
200033a4:	e7a3      	b.n	200032ee <alarm_pool_add_alarm_at+0xee>
200033a6:	46c0      	nop			; (mov r8, r8)
200033a8:	0fffffff 	.word	0x0fffffff

200033ac <sleep_until>:
200033ac:	b5f0      	push	{r4, r5, r6, r7, lr}
200033ae:	0004      	movs	r4, r0
200033b0:	000d      	movs	r5, r1
200033b2:	2606      	movs	r6, #6
200033b4:	4276      	negs	r6, r6
200033b6:	17f7      	asrs	r7, r6, #31
200033b8:	46c6      	mov	lr, r8
200033ba:	1936      	adds	r6, r6, r4
200033bc:	416f      	adcs	r7, r5
200033be:	b500      	push	{lr}
200033c0:	428f      	cmp	r7, r1
200033c2:	d813      	bhi.n	200033ec <sleep_until+0x40>
200033c4:	d010      	beq.n	200033e8 <sleep_until+0x3c>
200033c6:	f000 f935 	bl	20003634 <time_us_64>
200033ca:	0032      	movs	r2, r6
200033cc:	003b      	movs	r3, r7
200033ce:	1a12      	subs	r2, r2, r0
200033d0:	418b      	sbcs	r3, r1
200033d2:	2b00      	cmp	r3, #0
200033d4:	dc14      	bgt.n	20003400 <sleep_until+0x54>
200033d6:	2b00      	cmp	r3, #0
200033d8:	d037      	beq.n	2000344a <sleep_until+0x9e>
200033da:	0029      	movs	r1, r5
200033dc:	0020      	movs	r0, r4
200033de:	f000 f95d 	bl	2000369c <busy_wait_until>
200033e2:	bc04      	pop	{r2}
200033e4:	4690      	mov	r8, r2
200033e6:	bdf0      	pop	{r4, r5, r6, r7, pc}
200033e8:	4286      	cmp	r6, r0
200033ea:	d9ec      	bls.n	200033c6 <sleep_until+0x1a>
200033ec:	2600      	movs	r6, #0
200033ee:	2700      	movs	r7, #0
200033f0:	f000 f920 	bl	20003634 <time_us_64>
200033f4:	0032      	movs	r2, r6
200033f6:	003b      	movs	r3, r7
200033f8:	1a12      	subs	r2, r2, r0
200033fa:	418b      	sbcs	r3, r1
200033fc:	2b00      	cmp	r3, #0
200033fe:	ddea      	ble.n	200033d6 <sleep_until+0x2a>
20003400:	0030      	movs	r0, r6
20003402:	0039      	movs	r1, r7
20003404:	f7ff fcca 	bl	20002d9c <alarm_pool_add_alarm_at.constprop.0>
20003408:	2800      	cmp	r0, #0
2000340a:	dbe6      	blt.n	200033da <sleep_until+0x2e>
2000340c:	2300      	movs	r3, #0
2000340e:	4698      	mov	r8, r3
20003410:	46bc      	mov	ip, r7
20003412:	4a0f      	ldr	r2, [pc, #60]	; (20003450 <sleep_until+0xa4>)
20003414:	4f0f      	ldr	r7, [pc, #60]	; (20003454 <sleep_until+0xa8>)
20003416:	6a7b      	ldr	r3, [r7, #36]	; 0x24
20003418:	459c      	cmp	ip, r3
2000341a:	d804      	bhi.n	20003426 <sleep_until+0x7a>
2000341c:	6ab9      	ldr	r1, [r7, #40]	; 0x28
2000341e:	428e      	cmp	r6, r1
20003420:	d9db      	bls.n	200033da <sleep_until+0x2e>
20003422:	459c      	cmp	ip, r3
20003424:	d1d9      	bne.n	200033da <sleep_until+0x2e>
20003426:	6811      	ldr	r1, [r2, #0]
20003428:	f3ef 8010 	mrs	r0, PRIMASK
2000342c:	b672      	cpsid	i
2000342e:	680b      	ldr	r3, [r1, #0]
20003430:	2b00      	cmp	r3, #0
20003432:	d0fc      	beq.n	2000342e <sleep_until+0x82>
20003434:	f3bf 8f5f 	dmb	sy
20003438:	6813      	ldr	r3, [r2, #0]
2000343a:	f3bf 8f5f 	dmb	sy
2000343e:	4641      	mov	r1, r8
20003440:	6019      	str	r1, [r3, #0]
20003442:	f380 8810 	msr	PRIMASK, r0
20003446:	bf20      	wfe
20003448:	e7e5      	b.n	20003416 <sleep_until+0x6a>
2000344a:	2a00      	cmp	r2, #0
2000344c:	d0c5      	beq.n	200033da <sleep_until+0x2e>
2000344e:	e7d7      	b.n	20003400 <sleep_until+0x54>
20003450:	2000d35c 	.word	0x2000d35c
20003454:	40054000 	.word	0x40054000

20003458 <sleep_ms>:
20003458:	b570      	push	{r4, r5, r6, lr}
2000345a:	0006      	movs	r6, r0
2000345c:	f000 f8ea 	bl	20003634 <time_us_64>
20003460:	22fa      	movs	r2, #250	; 0xfa
20003462:	0004      	movs	r4, r0
20003464:	000d      	movs	r5, r1
20003466:	2300      	movs	r3, #0
20003468:	0030      	movs	r0, r6
2000346a:	2100      	movs	r1, #0
2000346c:	0092      	lsls	r2, r2, #2
2000346e:	f004 f8d7 	bl	20007620 <__wrap___aeabi_lmul>
20003472:	1900      	adds	r0, r0, r4
20003474:	4169      	adcs	r1, r5
20003476:	428d      	cmp	r5, r1
20003478:	d805      	bhi.n	20003486 <sleep_ms+0x2e>
2000347a:	d002      	beq.n	20003482 <sleep_ms+0x2a>
2000347c:	f7ff ff96 	bl	200033ac <sleep_until>
20003480:	bd70      	pop	{r4, r5, r6, pc}
20003482:	4284      	cmp	r4, r0
20003484:	d9fa      	bls.n	2000347c <sleep_ms+0x24>
20003486:	2001      	movs	r0, #1
20003488:	4240      	negs	r0, r0
2000348a:	17c1      	asrs	r1, r0, #31
2000348c:	e7f6      	b.n	2000347c <sleep_ms+0x24>
2000348e:	46c0      	nop			; (mov r8, r8)

20003490 <best_effort_wfe_or_timeout>:
20003490:	b5f8      	push	{r3, r4, r5, r6, r7, lr}
20003492:	46ce      	mov	lr, r9
20003494:	4647      	mov	r7, r8
20003496:	b580      	push	{r7, lr}
20003498:	0006      	movs	r6, r0
2000349a:	000c      	movs	r4, r1
2000349c:	f7ff fc7e 	bl	20002d9c <alarm_pool_add_alarm_at.constprop.0>
200034a0:	2800      	cmp	r0, #0
200034a2:	dc0c      	bgt.n	200034be <best_effort_wfe_or_timeout+0x2e>
200034a4:	4b2d      	ldr	r3, [pc, #180]	; (2000355c <best_effort_wfe_or_timeout+0xcc>)
200034a6:	2000      	movs	r0, #0
200034a8:	6a59      	ldr	r1, [r3, #36]	; 0x24
200034aa:	428c      	cmp	r4, r1
200034ac:	d803      	bhi.n	200034b6 <best_effort_wfe_or_timeout+0x26>
200034ae:	6a9b      	ldr	r3, [r3, #40]	; 0x28
200034b0:	3001      	adds	r0, #1
200034b2:	42b3      	cmp	r3, r6
200034b4:	d345      	bcc.n	20003542 <best_effort_wfe_or_timeout+0xb2>
200034b6:	bc0c      	pop	{r2, r3}
200034b8:	4690      	mov	r8, r2
200034ba:	4699      	mov	r9, r3
200034bc:	bdf8      	pop	{r3, r4, r5, r6, r7, pc}
200034be:	bf20      	wfe
200034c0:	4d27      	ldr	r5, [pc, #156]	; (20003560 <best_effort_wfe_or_timeout+0xd0>)
200034c2:	686a      	ldr	r2, [r5, #4]
200034c4:	f3ef 8710 	mrs	r7, PRIMASK
200034c8:	b672      	cpsid	i
200034ca:	6813      	ldr	r3, [r2, #0]
200034cc:	2b00      	cmp	r3, #0
200034ce:	d0fc      	beq.n	200034ca <best_effort_wfe_or_timeout+0x3a>
200034d0:	f3bf 8f5f 	dmb	sy
200034d4:	682b      	ldr	r3, [r5, #0]
200034d6:	b2c1      	uxtb	r1, r0
200034d8:	469c      	mov	ip, r3
200034da:	7b5b      	ldrb	r3, [r3, #13]
200034dc:	428b      	cmp	r3, r1
200034de:	d035      	beq.n	2000354c <best_effort_wfe_or_timeout+0xbc>
200034e0:	23ff      	movs	r3, #255	; 0xff
200034e2:	4003      	ands	r3, r0
200034e4:	005a      	lsls	r2, r3, #1
200034e6:	4691      	mov	r9, r2
200034e8:	4662      	mov	r2, ip
200034ea:	6812      	ldr	r2, [r2, #0]
200034ec:	4499      	add	r9, r3
200034ee:	4690      	mov	r8, r2
200034f0:	464a      	mov	r2, r9
200034f2:	4442      	add	r2, r8
200034f4:	3a03      	subs	r2, #3
200034f6:	7892      	ldrb	r2, [r2, #2]
200034f8:	2a00      	cmp	r2, #0
200034fa:	d01d      	beq.n	20003538 <best_effort_wfe_or_timeout+0xa8>
200034fc:	68ea      	ldr	r2, [r5, #12]
200034fe:	0a00      	lsrs	r0, r0, #8
20003500:	4690      	mov	r8, r2
20003502:	4443      	add	r3, r8
20003504:	3b01      	subs	r3, #1
20003506:	781b      	ldrb	r3, [r3, #0]
20003508:	b2c0      	uxtb	r0, r0
2000350a:	4283      	cmp	r3, r0
2000350c:	d021      	beq.n	20003552 <best_effort_wfe_or_timeout+0xc2>
2000350e:	686b      	ldr	r3, [r5, #4]
20003510:	f3bf 8f5f 	dmb	sy
20003514:	2200      	movs	r2, #0
20003516:	601a      	str	r2, [r3, #0]
20003518:	f387 8810 	msr	PRIMASK, r7
2000351c:	4a0f      	ldr	r2, [pc, #60]	; (2000355c <best_effort_wfe_or_timeout+0xcc>)
2000351e:	2000      	movs	r0, #0
20003520:	6a53      	ldr	r3, [r2, #36]	; 0x24
20003522:	429c      	cmp	r4, r3
20003524:	d8c7      	bhi.n	200034b6 <best_effort_wfe_or_timeout+0x26>
20003526:	6a92      	ldr	r2, [r2, #40]	; 0x28
20003528:	3001      	adds	r0, #1
2000352a:	42b2      	cmp	r2, r6
2000352c:	d2c3      	bcs.n	200034b6 <best_effort_wfe_or_timeout+0x26>
2000352e:	1ae4      	subs	r4, r4, r3
20003530:	1e60      	subs	r0, r4, #1
20003532:	4184      	sbcs	r4, r0
20003534:	b2e0      	uxtb	r0, r4
20003536:	e7be      	b.n	200034b6 <best_effort_wfe_or_timeout+0x26>
20003538:	692b      	ldr	r3, [r5, #16]
2000353a:	4298      	cmp	r0, r3
2000353c:	d1e7      	bne.n	2000350e <best_effort_wfe_or_timeout+0x7e>
2000353e:	612a      	str	r2, [r5, #16]
20003540:	e7e5      	b.n	2000350e <best_effort_wfe_or_timeout+0x7e>
20003542:	1a64      	subs	r4, r4, r1
20003544:	1e60      	subs	r0, r4, #1
20003546:	4184      	sbcs	r4, r0
20003548:	b2e0      	uxtb	r0, r4
2000354a:	e7b4      	b.n	200034b6 <best_effort_wfe_or_timeout+0x26>
2000354c:	23ff      	movs	r3, #255	; 0xff
2000354e:	4003      	ands	r3, r0
20003550:	e7d4      	b.n	200034fc <best_effort_wfe_or_timeout+0x6c>
20003552:	4660      	mov	r0, ip
20003554:	f000 fb3e 	bl	20003bd4 <ph_remove_and_free_node>
20003558:	e7d9      	b.n	2000350e <best_effort_wfe_or_timeout+0x7e>
2000355a:	46c0      	nop			; (mov r8, r8)
2000355c:	40054000 	.word	0x40054000
20003560:	2000c7c0 	.word	0x2000c7c0

20003564 <hardware_alarm_irq_handler>:
20003564:	b5f0      	push	{r4, r5, r6, r7, lr}
20003566:	46d6      	mov	lr, sl
20003568:	464f      	mov	r7, r9
2000356a:	4646      	mov	r6, r8
2000356c:	b5c0      	push	{r6, r7, lr}
2000356e:	f3ef 8305 	mrs	r3, IPSR
20003572:	223f      	movs	r2, #63	; 0x3f
20003574:	4013      	ands	r3, r2
20003576:	0018      	movs	r0, r3
20003578:	3810      	subs	r0, #16
2000357a:	f3ef 8c10 	mrs	ip, PRIMASK
2000357e:	b672      	cpsid	i
20003580:	4d20      	ldr	r5, [pc, #128]	; (20003604 <hardware_alarm_irq_handler+0xa0>)
20003582:	682a      	ldr	r2, [r5, #0]
20003584:	2a00      	cmp	r2, #0
20003586:	d0fc      	beq.n	20003582 <hardware_alarm_irq_handler+0x1e>
20003588:	f3bf 8f5f 	dmb	sy
2000358c:	2201      	movs	r2, #1
2000358e:	0011      	movs	r1, r2
20003590:	4081      	lsls	r1, r0
20003592:	4c1d      	ldr	r4, [pc, #116]	; (20003608 <hardware_alarm_irq_handler+0xa4>)
20003594:	4688      	mov	r8, r1
20003596:	6361      	str	r1, [r4, #52]	; 0x34
20003598:	491c      	ldr	r1, [pc, #112]	; (2000360c <hardware_alarm_irq_handler+0xa8>)
2000359a:	0017      	movs	r7, r2
2000359c:	780e      	ldrb	r6, [r1, #0]
2000359e:	468a      	mov	sl, r1
200035a0:	0031      	movs	r1, r6
200035a2:	40c1      	lsrs	r1, r0
200035a4:	400f      	ands	r7, r1
200035a6:	420a      	tst	r2, r1
200035a8:	d015      	beq.n	200035d6 <hardware_alarm_irq_handler+0x72>
200035aa:	4919      	ldr	r1, [pc, #100]	; (20003610 <hardware_alarm_irq_handler+0xac>)
200035ac:	0082      	lsls	r2, r0, #2
200035ae:	6a64      	ldr	r4, [r4, #36]	; 0x24
200035b0:	5851      	ldr	r1, [r2, r1]
200035b2:	428c      	cmp	r4, r1
200035b4:	d319      	bcc.n	200035ea <hardware_alarm_irq_handler+0x86>
200035b6:	4b17      	ldr	r3, [pc, #92]	; (20003614 <hardware_alarm_irq_handler+0xb0>)
200035b8:	58d2      	ldr	r2, [r2, r3]
200035ba:	4643      	mov	r3, r8
200035bc:	439e      	bics	r6, r3
200035be:	4653      	mov	r3, sl
200035c0:	701e      	strb	r6, [r3, #0]
200035c2:	f3bf 8f5f 	dmb	sy
200035c6:	2300      	movs	r3, #0
200035c8:	602b      	str	r3, [r5, #0]
200035ca:	f38c 8810 	msr	PRIMASK, ip
200035ce:	2a00      	cmp	r2, #0
200035d0:	d006      	beq.n	200035e0 <hardware_alarm_irq_handler+0x7c>
200035d2:	4790      	blx	r2
200035d4:	e004      	b.n	200035e0 <hardware_alarm_irq_handler+0x7c>
200035d6:	f3bf 8f5f 	dmb	sy
200035da:	602f      	str	r7, [r5, #0]
200035dc:	f38c 8810 	msr	PRIMASK, ip
200035e0:	bc1c      	pop	{r2, r3, r4}
200035e2:	4690      	mov	r8, r2
200035e4:	4699      	mov	r9, r3
200035e6:	46a2      	mov	sl, r4
200035e8:	bdf0      	pop	{r4, r5, r6, r7, pc}
200035ea:	4a0b      	ldr	r2, [pc, #44]	; (20003618 <hardware_alarm_irq_handler+0xb4>)
200035ec:	009b      	lsls	r3, r3, #2
200035ee:	4690      	mov	r8, r2
200035f0:	4443      	add	r3, r8
200035f2:	681a      	ldr	r2, [r3, #0]
200035f4:	601a      	str	r2, [r3, #0]
200035f6:	f3bf 8f5f 	dmb	sy
200035fa:	2300      	movs	r3, #0
200035fc:	602b      	str	r3, [r5, #0]
200035fe:	f38c 8810 	msr	PRIMASK, ip
20003602:	e7ed      	b.n	200035e0 <hardware_alarm_irq_handler+0x7c>
20003604:	d0000128 	.word	0xd0000128
20003608:	40054000 	.word	0x40054000
2000360c:	2000d3c9 	.word	0x2000d3c9
20003610:	2000d36c 	.word	0x2000d36c
20003614:	2000cd5c 	.word	0x2000cd5c
20003618:	40053fd0 	.word	0x40053fd0

2000361c <hardware_alarm_claim>:
2000361c:	b510      	push	{r4, lr}
2000361e:	0001      	movs	r1, r0
20003620:	4a02      	ldr	r2, [pc, #8]	; (2000362c <hardware_alarm_claim+0x10>)
20003622:	4803      	ldr	r0, [pc, #12]	; (20003630 <hardware_alarm_claim+0x14>)
20003624:	f7ff f81e 	bl	20002664 <hw_claim_or_assert>
20003628:	bd10      	pop	{r4, pc}
2000362a:	46c0      	nop			; (mov r8, r8)
2000362c:	2000bf9c 	.word	0x2000bf9c
20003630:	2000d3c5 	.word	0x2000d3c5

20003634 <time_us_64>:
20003634:	4b03      	ldr	r3, [pc, #12]	; (20003644 <time_us_64+0x10>)
20003636:	6a59      	ldr	r1, [r3, #36]	; 0x24
20003638:	000a      	movs	r2, r1
2000363a:	6a98      	ldr	r0, [r3, #40]	; 0x28
2000363c:	6a59      	ldr	r1, [r3, #36]	; 0x24
2000363e:	428a      	cmp	r2, r1
20003640:	d1fa      	bne.n	20003638 <time_us_64+0x4>
20003642:	4770      	bx	lr
20003644:	40054000 	.word	0x40054000

20003648 <busy_wait_us>:
20003648:	b570      	push	{r4, r5, r6, lr}
2000364a:	0004      	movs	r4, r0
2000364c:	000d      	movs	r5, r1
2000364e:	4a12      	ldr	r2, [pc, #72]	; (20003698 <busy_wait_us+0x50>)
20003650:	6a53      	ldr	r3, [r2, #36]	; 0x24
20003652:	0019      	movs	r1, r3
20003654:	6a96      	ldr	r6, [r2, #40]	; 0x28
20003656:	6a53      	ldr	r3, [r2, #36]	; 0x24
20003658:	428b      	cmp	r3, r1
2000365a:	d1fa      	bne.n	20003652 <busy_wait_us+0xa>
2000365c:	0030      	movs	r0, r6
2000365e:	0019      	movs	r1, r3
20003660:	1824      	adds	r4, r4, r0
20003662:	414d      	adcs	r5, r1
20003664:	42ab      	cmp	r3, r5
20003666:	d811      	bhi.n	2000368c <busy_wait_us+0x44>
20003668:	d00e      	beq.n	20003688 <busy_wait_us+0x40>
2000366a:	002b      	movs	r3, r5
2000366c:	490a      	ldr	r1, [pc, #40]	; (20003698 <busy_wait_us+0x50>)
2000366e:	6a4a      	ldr	r2, [r1, #36]	; 0x24
20003670:	429a      	cmp	r2, r3
20003672:	d3fc      	bcc.n	2000366e <busy_wait_us+0x26>
20003674:	d107      	bne.n	20003686 <busy_wait_us+0x3e>
20003676:	4a08      	ldr	r2, [pc, #32]	; (20003698 <busy_wait_us+0x50>)
20003678:	e002      	b.n	20003680 <busy_wait_us+0x38>
2000367a:	6a51      	ldr	r1, [r2, #36]	; 0x24
2000367c:	4299      	cmp	r1, r3
2000367e:	d102      	bne.n	20003686 <busy_wait_us+0x3e>
20003680:	6a91      	ldr	r1, [r2, #40]	; 0x28
20003682:	42a1      	cmp	r1, r4
20003684:	d3f9      	bcc.n	2000367a <busy_wait_us+0x32>
20003686:	bd70      	pop	{r4, r5, r6, pc}
20003688:	42a6      	cmp	r6, r4
2000368a:	d9ee      	bls.n	2000366a <busy_wait_us+0x22>
2000368c:	2301      	movs	r3, #1
2000368e:	2401      	movs	r4, #1
20003690:	4264      	negs	r4, r4
20003692:	17e5      	asrs	r5, r4, #31
20003694:	425b      	negs	r3, r3
20003696:	e7e9      	b.n	2000366c <busy_wait_us+0x24>
20003698:	40054000 	.word	0x40054000

2000369c <busy_wait_until>:
2000369c:	4a06      	ldr	r2, [pc, #24]	; (200036b8 <busy_wait_until+0x1c>)
2000369e:	6a53      	ldr	r3, [r2, #36]	; 0x24
200036a0:	4299      	cmp	r1, r3
200036a2:	d8fc      	bhi.n	2000369e <busy_wait_until+0x2>
200036a4:	d107      	bne.n	200036b6 <busy_wait_until+0x1a>
200036a6:	4b04      	ldr	r3, [pc, #16]	; (200036b8 <busy_wait_until+0x1c>)
200036a8:	e002      	b.n	200036b0 <busy_wait_until+0x14>
200036aa:	6a5a      	ldr	r2, [r3, #36]	; 0x24
200036ac:	4291      	cmp	r1, r2
200036ae:	d102      	bne.n	200036b6 <busy_wait_until+0x1a>
200036b0:	6a9a      	ldr	r2, [r3, #40]	; 0x28
200036b2:	4282      	cmp	r2, r0
200036b4:	d3f9      	bcc.n	200036aa <busy_wait_until+0xe>
200036b6:	4770      	bx	lr
200036b8:	40054000 	.word	0x40054000

200036bc <hardware_alarm_set_callback>:
200036bc:	b570      	push	{r4, r5, r6, lr}
200036be:	0004      	movs	r4, r0
200036c0:	000d      	movs	r5, r1
200036c2:	f3ef 8610 	mrs	r6, PRIMASK
200036c6:	b672      	cpsid	i
200036c8:	4a1a      	ldr	r2, [pc, #104]	; (20003734 <hardware_alarm_set_callback+0x78>)
200036ca:	6813      	ldr	r3, [r2, #0]
200036cc:	2b00      	cmp	r3, #0
200036ce:	d0fc      	beq.n	200036ca <hardware_alarm_set_callback+0xe>
200036d0:	f3bf 8f5f 	dmb	sy
200036d4:	2d00      	cmp	r5, #0
200036d6:	d01b      	beq.n	20003710 <hardware_alarm_set_callback+0x54>
200036d8:	0020      	movs	r0, r4
200036da:	f7ff f8b3 	bl	20002844 <irq_get_vtable_handler>
200036de:	4916      	ldr	r1, [pc, #88]	; (20003738 <hardware_alarm_set_callback+0x7c>)
200036e0:	4281      	cmp	r1, r0
200036e2:	d00a      	beq.n	200036fa <hardware_alarm_set_callback+0x3e>
200036e4:	0020      	movs	r0, r4
200036e6:	f7ff f8b5 	bl	20002854 <irq_set_exclusive_handler>
200036ea:	2101      	movs	r1, #1
200036ec:	0020      	movs	r0, r4
200036ee:	f7ff f85d 	bl	200027ac <irq_set_enabled>
200036f2:	2301      	movs	r3, #1
200036f4:	40a3      	lsls	r3, r4
200036f6:	4a11      	ldr	r2, [pc, #68]	; (2000373c <hardware_alarm_set_callback+0x80>)
200036f8:	6013      	str	r3, [r2, #0]
200036fa:	4b11      	ldr	r3, [pc, #68]	; (20003740 <hardware_alarm_set_callback+0x84>)
200036fc:	00a4      	lsls	r4, r4, #2
200036fe:	50e5      	str	r5, [r4, r3]
20003700:	f3bf 8f5f 	dmb	sy
20003704:	2200      	movs	r2, #0
20003706:	4b0b      	ldr	r3, [pc, #44]	; (20003734 <hardware_alarm_set_callback+0x78>)
20003708:	601a      	str	r2, [r3, #0]
2000370a:	f386 8810 	msr	PRIMASK, r6
2000370e:	bd70      	pop	{r4, r5, r6, pc}
20003710:	4b0b      	ldr	r3, [pc, #44]	; (20003740 <hardware_alarm_set_callback+0x84>)
20003712:	00a2      	lsls	r2, r4, #2
20003714:	50d5      	str	r5, [r2, r3]
20003716:	2201      	movs	r2, #1
20003718:	40a2      	lsls	r2, r4
2000371a:	490a      	ldr	r1, [pc, #40]	; (20003744 <hardware_alarm_set_callback+0x88>)
2000371c:	0020      	movs	r0, r4
2000371e:	780b      	ldrb	r3, [r1, #0]
20003720:	4393      	bics	r3, r2
20003722:	700b      	strb	r3, [r1, #0]
20003724:	4904      	ldr	r1, [pc, #16]	; (20003738 <hardware_alarm_set_callback+0x7c>)
20003726:	f7ff f99f 	bl	20002a68 <irq_remove_handler>
2000372a:	2100      	movs	r1, #0
2000372c:	0020      	movs	r0, r4
2000372e:	f7ff f83d 	bl	200027ac <irq_set_enabled>
20003732:	e7e5      	b.n	20003700 <hardware_alarm_set_callback+0x44>
20003734:	d0000128 	.word	0xd0000128
20003738:	20003565 	.word	0x20003565
2000373c:	40056038 	.word	0x40056038
20003740:	2000cd5c 	.word	0x2000cd5c
20003744:	2000d3c9 	.word	0x2000d3c9

20003748 <hardware_alarm_set_target>:
20003748:	b5f0      	push	{r4, r5, r6, r7, lr}
2000374a:	464f      	mov	r7, r9
2000374c:	46d6      	mov	lr, sl
2000374e:	4646      	mov	r6, r8
20003750:	b5c0      	push	{r6, r7, lr}
20003752:	0007      	movs	r7, r0
20003754:	4c30      	ldr	r4, [pc, #192]	; (20003818 <hardware_alarm_set_target+0xd0>)
20003756:	6a61      	ldr	r1, [r4, #36]	; 0x24
20003758:	000d      	movs	r5, r1
2000375a:	6aa6      	ldr	r6, [r4, #40]	; 0x28
2000375c:	6a61      	ldr	r1, [r4, #36]	; 0x24
2000375e:	42a9      	cmp	r1, r5
20003760:	d1fa      	bne.n	20003758 <hardware_alarm_set_target+0x10>
20003762:	428b      	cmp	r3, r1
20003764:	d808      	bhi.n	20003778 <hardware_alarm_set_target+0x30>
20003766:	d005      	beq.n	20003774 <hardware_alarm_set_target+0x2c>
20003768:	2001      	movs	r0, #1
2000376a:	bc1c      	pop	{r2, r3, r4}
2000376c:	4690      	mov	r8, r2
2000376e:	4699      	mov	r9, r3
20003770:	46a2      	mov	sl, r4
20003772:	bdf0      	pop	{r4, r5, r6, r7, pc}
20003774:	42b2      	cmp	r2, r6
20003776:	d9f7      	bls.n	20003768 <hardware_alarm_set_target+0x20>
20003778:	f3ef 8910 	mrs	r9, PRIMASK
2000377c:	b672      	cpsid	i
2000377e:	4827      	ldr	r0, [pc, #156]	; (2000381c <hardware_alarm_set_target+0xd4>)
20003780:	6801      	ldr	r1, [r0, #0]
20003782:	2900      	cmp	r1, #0
20003784:	d0fc      	beq.n	20003780 <hardware_alarm_set_target+0x38>
20003786:	f3bf 8f5f 	dmb	sy
2000378a:	2501      	movs	r5, #1
2000378c:	4924      	ldr	r1, [pc, #144]	; (20003820 <hardware_alarm_set_target+0xd8>)
2000378e:	40bd      	lsls	r5, r7
20003790:	468c      	mov	ip, r1
20003792:	7809      	ldrb	r1, [r1, #0]
20003794:	4c20      	ldr	r4, [pc, #128]	; (20003818 <hardware_alarm_set_target+0xd0>)
20003796:	000e      	movs	r6, r1
20003798:	432e      	orrs	r6, r5
2000379a:	4688      	mov	r8, r1
2000379c:	b2f1      	uxtb	r1, r6
2000379e:	468a      	mov	sl, r1
200037a0:	4661      	mov	r1, ip
200037a2:	4650      	mov	r0, sl
200037a4:	7008      	strb	r0, [r1, #0]
200037a6:	1d39      	adds	r1, r7, #4
200037a8:	481e      	ldr	r0, [pc, #120]	; (20003824 <hardware_alarm_set_target+0xdc>)
200037aa:	0089      	lsls	r1, r1, #2
200037ac:	6365      	str	r5, [r4, #52]	; 0x34
200037ae:	510a      	str	r2, [r1, r4]
200037b0:	00b9      	lsls	r1, r7, #2
200037b2:	500b      	str	r3, [r1, r0]
200037b4:	6a21      	ldr	r1, [r4, #32]
200037b6:	2000      	movs	r0, #0
200037b8:	4229      	tst	r1, r5
200037ba:	d019      	beq.n	200037f0 <hardware_alarm_set_target+0xa8>
200037bc:	6a61      	ldr	r1, [r4, #36]	; 0x24
200037be:	0008      	movs	r0, r1
200037c0:	6aa6      	ldr	r6, [r4, #40]	; 0x28
200037c2:	6a61      	ldr	r1, [r4, #36]	; 0x24
200037c4:	4281      	cmp	r1, r0
200037c6:	d1fa      	bne.n	200037be <hardware_alarm_set_target+0x76>
200037c8:	428b      	cmp	r3, r1
200037ca:	d819      	bhi.n	20003800 <hardware_alarm_set_target+0xb8>
200037cc:	d101      	bne.n	200037d2 <hardware_alarm_set_target+0x8a>
200037ce:	42b2      	cmp	r2, r6
200037d0:	d816      	bhi.n	20003800 <hardware_alarm_set_target+0xb8>
200037d2:	45c2      	cmp	sl, r8
200037d4:	d01d      	beq.n	20003812 <hardware_alarm_set_target+0xca>
200037d6:	4b10      	ldr	r3, [pc, #64]	; (20003818 <hardware_alarm_set_target+0xd0>)
200037d8:	201f      	movs	r0, #31
200037da:	621d      	str	r5, [r3, #32]
200037dc:	635d      	str	r5, [r3, #52]	; 0x34
200037de:	2301      	movs	r3, #1
200037e0:	4007      	ands	r7, r0
200037e2:	40bb      	lsls	r3, r7
200037e4:	4a10      	ldr	r2, [pc, #64]	; (20003828 <hardware_alarm_set_target+0xe0>)
200037e6:	381e      	subs	r0, #30
200037e8:	6013      	str	r3, [r2, #0]
200037ea:	4663      	mov	r3, ip
200037ec:	4642      	mov	r2, r8
200037ee:	701a      	strb	r2, [r3, #0]
200037f0:	f3bf 8f5f 	dmb	sy
200037f4:	2200      	movs	r2, #0
200037f6:	4b09      	ldr	r3, [pc, #36]	; (2000381c <hardware_alarm_set_target+0xd4>)
200037f8:	601a      	str	r2, [r3, #0]
200037fa:	f389 8810 	msr	PRIMASK, r9
200037fe:	e7b4      	b.n	2000376a <hardware_alarm_set_target+0x22>
20003800:	2000      	movs	r0, #0
20003802:	f3bf 8f5f 	dmb	sy
20003806:	2200      	movs	r2, #0
20003808:	4b04      	ldr	r3, [pc, #16]	; (2000381c <hardware_alarm_set_target+0xd4>)
2000380a:	601a      	str	r2, [r3, #0]
2000380c:	f389 8810 	msr	PRIMASK, r9
20003810:	e7ab      	b.n	2000376a <hardware_alarm_set_target+0x22>
20003812:	2001      	movs	r0, #1
20003814:	e7ec      	b.n	200037f0 <hardware_alarm_set_target+0xa8>
20003816:	46c0      	nop			; (mov r8, r8)
20003818:	40054000 	.word	0x40054000
2000381c:	d0000128 	.word	0xd0000128
20003820:	2000d3c9 	.word	0x2000d3c9
20003824:	2000d36c 	.word	0x2000d36c
20003828:	e000e280 	.word	0xe000e280

2000382c <hardware_alarm_cancel>:
2000382c:	b510      	push	{r4, lr}
2000382e:	f3ef 8410 	mrs	r4, PRIMASK
20003832:	b672      	cpsid	i
20003834:	490a      	ldr	r1, [pc, #40]	; (20003860 <hardware_alarm_cancel+0x34>)
20003836:	680b      	ldr	r3, [r1, #0]
20003838:	2b00      	cmp	r3, #0
2000383a:	d0fc      	beq.n	20003836 <hardware_alarm_cancel+0xa>
2000383c:	f3bf 8f5f 	dmb	sy
20003840:	2301      	movs	r3, #1
20003842:	4083      	lsls	r3, r0
20003844:	4a07      	ldr	r2, [pc, #28]	; (20003864 <hardware_alarm_cancel+0x38>)
20003846:	4808      	ldr	r0, [pc, #32]	; (20003868 <hardware_alarm_cancel+0x3c>)
20003848:	6213      	str	r3, [r2, #32]
2000384a:	7802      	ldrb	r2, [r0, #0]
2000384c:	439a      	bics	r2, r3
2000384e:	7002      	strb	r2, [r0, #0]
20003850:	f3bf 8f5f 	dmb	sy
20003854:	2300      	movs	r3, #0
20003856:	600b      	str	r3, [r1, #0]
20003858:	f384 8810 	msr	PRIMASK, r4
2000385c:	bd10      	pop	{r4, pc}
2000385e:	46c0      	nop			; (mov r8, r8)
20003860:	d0000128 	.word	0xd0000128
20003864:	40054000 	.word	0x40054000
20003868:	2000d3c9 	.word	0x2000d3c9

2000386c <ph_merge_nodes>:
2000386c:	b570      	push	{r4, r5, r6, lr}
2000386e:	0005      	movs	r5, r0
20003870:	000e      	movs	r6, r1
20003872:	0014      	movs	r4, r2
20003874:	2900      	cmp	r1, #0
20003876:	d024      	beq.n	200038c2 <ph_merge_nodes+0x56>
20003878:	2a00      	cmp	r2, #0
2000387a:	d024      	beq.n	200038c6 <ph_merge_nodes+0x5a>
2000387c:	6880      	ldr	r0, [r0, #8]
2000387e:	686b      	ldr	r3, [r5, #4]
20003880:	4798      	blx	r3
20003882:	6829      	ldr	r1, [r5, #0]
20003884:	2800      	cmp	r0, #0
20003886:	d00e      	beq.n	200038a6 <ph_merge_nodes+0x3a>
20003888:	0063      	lsls	r3, r4, #1
2000388a:	191b      	adds	r3, r3, r4
2000388c:	0072      	lsls	r2, r6, #1
2000388e:	3b03      	subs	r3, #3
20003890:	1992      	adds	r2, r2, r6
20003892:	18cb      	adds	r3, r1, r3
20003894:	3a03      	subs	r2, #3
20003896:	709e      	strb	r6, [r3, #2]
20003898:	1888      	adds	r0, r1, r2
2000389a:	5c8a      	ldrb	r2, [r1, r2]
2000389c:	2a00      	cmp	r2, #0
2000389e:	d114      	bne.n	200038ca <ph_merge_nodes+0x5e>
200038a0:	7004      	strb	r4, [r0, #0]
200038a2:	0030      	movs	r0, r6
200038a4:	e00e      	b.n	200038c4 <ph_merge_nodes+0x58>
200038a6:	0073      	lsls	r3, r6, #1
200038a8:	199b      	adds	r3, r3, r6
200038aa:	0062      	lsls	r2, r4, #1
200038ac:	3b03      	subs	r3, #3
200038ae:	1912      	adds	r2, r2, r4
200038b0:	18cb      	adds	r3, r1, r3
200038b2:	3a03      	subs	r2, #3
200038b4:	709c      	strb	r4, [r3, #2]
200038b6:	1888      	adds	r0, r1, r2
200038b8:	5c8a      	ldrb	r2, [r1, r2]
200038ba:	2a00      	cmp	r2, #0
200038bc:	d000      	beq.n	200038c0 <ph_merge_nodes+0x54>
200038be:	705a      	strb	r2, [r3, #1]
200038c0:	7006      	strb	r6, [r0, #0]
200038c2:	0020      	movs	r0, r4
200038c4:	bd70      	pop	{r4, r5, r6, pc}
200038c6:	0008      	movs	r0, r1
200038c8:	e7fc      	b.n	200038c4 <ph_merge_nodes+0x58>
200038ca:	705a      	strb	r2, [r3, #1]
200038cc:	7004      	strb	r4, [r0, #0]
200038ce:	0030      	movs	r0, r6
200038d0:	e7f8      	b.n	200038c4 <ph_merge_nodes+0x58>
200038d2:	46c0      	nop			; (mov r8, r8)

200038d4 <ph_post_alloc_init>:
200038d4:	b530      	push	{r4, r5, lr}
200038d6:	6083      	str	r3, [r0, #8]
200038d8:	2300      	movs	r3, #0
200038da:	b2cc      	uxtb	r4, r1
200038dc:	7343      	strb	r3, [r0, #13]
200038de:	3301      	adds	r3, #1
200038e0:	7304      	strb	r4, [r0, #12]
200038e2:	6042      	str	r2, [r0, #4]
200038e4:	7383      	strb	r3, [r0, #14]
200038e6:	73c4      	strb	r4, [r0, #15]
200038e8:	000d      	movs	r5, r1
200038ea:	6800      	ldr	r0, [r0, #0]
200038ec:	2c01      	cmp	r4, #1
200038ee:	d906      	bls.n	200038fe <ph_post_alloc_init+0x2a>
200038f0:	1c42      	adds	r2, r0, #1
200038f2:	3301      	adds	r3, #1
200038f4:	b2db      	uxtb	r3, r3
200038f6:	7013      	strb	r3, [r2, #0]
200038f8:	3203      	adds	r2, #3
200038fa:	429c      	cmp	r4, r3
200038fc:	d1f9      	bne.n	200038f2 <ph_post_alloc_init+0x1e>
200038fe:	21ff      	movs	r1, #255	; 0xff
20003900:	4029      	ands	r1, r5
20003902:	004b      	lsls	r3, r1, #1
20003904:	1859      	adds	r1, r3, r1
20003906:	2300      	movs	r3, #0
20003908:	1840      	adds	r0, r0, r1
2000390a:	3803      	subs	r0, #3
2000390c:	7043      	strb	r3, [r0, #1]
2000390e:	bd30      	pop	{r4, r5, pc}

20003910 <ph_merge_two_pass>:
20003910:	b5f8      	push	{r3, r4, r5, r6, r7, lr}
20003912:	46ce      	mov	lr, r9
20003914:	4647      	mov	r7, r8
20003916:	0006      	movs	r6, r0
20003918:	000c      	movs	r4, r1
2000391a:	b580      	push	{r7, lr}
2000391c:	2900      	cmp	r1, #0
2000391e:	d007      	beq.n	20003930 <ph_merge_two_pass+0x20>
20003920:	004d      	lsls	r5, r1, #1
20003922:	6803      	ldr	r3, [r0, #0]
20003924:	186d      	adds	r5, r5, r1
20003926:	3d03      	subs	r5, #3
20003928:	195a      	adds	r2, r3, r5
2000392a:	7857      	ldrb	r7, [r2, #1]
2000392c:	2f00      	cmp	r7, #0
2000392e:	d104      	bne.n	2000393a <ph_merge_two_pass+0x2a>
20003930:	0020      	movs	r0, r4
20003932:	bc0c      	pop	{r2, r3}
20003934:	4690      	mov	r8, r2
20003936:	4699      	mov	r9, r3
20003938:	bdf8      	pop	{r3, r4, r5, r6, r7, pc}
2000393a:	0079      	lsls	r1, r7, #1
2000393c:	19c9      	adds	r1, r1, r7
2000393e:	3903      	subs	r1, #3
20003940:	4688      	mov	r8, r1
20003942:	4443      	add	r3, r8
20003944:	7859      	ldrb	r1, [r3, #1]
20003946:	4689      	mov	r9, r1
20003948:	2100      	movs	r1, #0
2000394a:	7059      	strb	r1, [r3, #1]
2000394c:	7051      	strb	r1, [r2, #1]
2000394e:	6873      	ldr	r3, [r6, #4]
20003950:	003a      	movs	r2, r7
20003952:	0021      	movs	r1, r4
20003954:	6880      	ldr	r0, [r0, #8]
20003956:	4798      	blx	r3
20003958:	6833      	ldr	r3, [r6, #0]
2000395a:	2800      	cmp	r0, #0
2000395c:	d014      	beq.n	20003988 <ph_merge_two_pass+0x78>
2000395e:	4642      	mov	r2, r8
20003960:	189a      	adds	r2, r3, r2
20003962:	7094      	strb	r4, [r2, #2]
20003964:	1959      	adds	r1, r3, r5
20003966:	5d5b      	ldrb	r3, [r3, r5]
20003968:	2b00      	cmp	r3, #0
2000396a:	d000      	beq.n	2000396e <ph_merge_two_pass+0x5e>
2000396c:	7053      	strb	r3, [r2, #1]
2000396e:	700f      	strb	r7, [r1, #0]
20003970:	0027      	movs	r7, r4
20003972:	4649      	mov	r1, r9
20003974:	0030      	movs	r0, r6
20003976:	f7ff ffcb 	bl	20003910 <ph_merge_two_pass>
2000397a:	0039      	movs	r1, r7
2000397c:	0002      	movs	r2, r0
2000397e:	0030      	movs	r0, r6
20003980:	f7ff ff74 	bl	2000386c <ph_merge_nodes>
20003984:	0004      	movs	r4, r0
20003986:	e7d3      	b.n	20003930 <ph_merge_two_pass+0x20>
20003988:	4642      	mov	r2, r8
2000398a:	4641      	mov	r1, r8
2000398c:	195d      	adds	r5, r3, r5
2000398e:	70af      	strb	r7, [r5, #2]
20003990:	189a      	adds	r2, r3, r2
20003992:	5c5b      	ldrb	r3, [r3, r1]
20003994:	2b00      	cmp	r3, #0
20003996:	d000      	beq.n	2000399a <ph_merge_two_pass+0x8a>
20003998:	706b      	strb	r3, [r5, #1]
2000399a:	7014      	strb	r4, [r2, #0]
2000399c:	e7e9      	b.n	20003972 <ph_merge_two_pass+0x62>
2000399e:	46c0      	nop			; (mov r8, r8)

200039a0 <ph_remove_any_head>:
200039a0:	b5f0      	push	{r4, r5, r6, r7, lr}
200039a2:	4657      	mov	r7, sl
200039a4:	4645      	mov	r5, r8
200039a6:	46de      	mov	lr, fp
200039a8:	464e      	mov	r6, r9
200039aa:	b5e0      	push	{r5, r6, r7, lr}
200039ac:	000d      	movs	r5, r1
200039ae:	006b      	lsls	r3, r5, #1
200039b0:	6801      	ldr	r1, [r0, #0]
200039b2:	195b      	adds	r3, r3, r5
200039b4:	1edf      	subs	r7, r3, #3
200039b6:	0004      	movs	r4, r0
200039b8:	5dc8      	ldrb	r0, [r1, r7]
200039ba:	b083      	sub	sp, #12
200039bc:	9201      	str	r2, [sp, #4]
200039be:	19ca      	adds	r2, r1, r7
200039c0:	2800      	cmp	r0, #0
200039c2:	d04c      	beq.n	20003a5e <ph_remove_any_head+0xbe>
200039c4:	0043      	lsls	r3, r0, #1
200039c6:	181b      	adds	r3, r3, r0
200039c8:	3b03      	subs	r3, #3
200039ca:	18cb      	adds	r3, r1, r3
200039cc:	785e      	ldrb	r6, [r3, #1]
200039ce:	46b4      	mov	ip, r6
200039d0:	2e00      	cmp	r6, #0
200039d2:	d116      	bne.n	20003a02 <ph_remove_any_head+0x62>
200039d4:	9e01      	ldr	r6, [sp, #4]
200039d6:	2e00      	cmp	r6, #0
200039d8:	d03e      	beq.n	20003a58 <ph_remove_any_head+0xb8>
200039da:	7be6      	ldrb	r6, [r4, #15]
200039dc:	2e00      	cmp	r6, #0
200039de:	d004      	beq.n	200039ea <ph_remove_any_head+0x4a>
200039e0:	0073      	lsls	r3, r6, #1
200039e2:	199b      	adds	r3, r3, r6
200039e4:	18cb      	adds	r3, r1, r3
200039e6:	3b03      	subs	r3, #3
200039e8:	705d      	strb	r5, [r3, #1]
200039ea:	73e5      	strb	r5, [r4, #15]
200039ec:	2800      	cmp	r0, #0
200039ee:	d12f      	bne.n	20003a50 <ph_remove_any_head+0xb0>
200039f0:	2300      	movs	r3, #0
200039f2:	7053      	strb	r3, [r2, #1]
200039f4:	b003      	add	sp, #12
200039f6:	bc3c      	pop	{r2, r3, r4, r5}
200039f8:	4690      	mov	r8, r2
200039fa:	4699      	mov	r9, r3
200039fc:	46a2      	mov	sl, r4
200039fe:	46ab      	mov	fp, r5
20003a00:	bdf0      	pop	{r4, r5, r6, r7, pc}
20003a02:	0072      	lsls	r2, r6, #1
20003a04:	4462      	add	r2, ip
20003a06:	3a03      	subs	r2, #3
20003a08:	1889      	adds	r1, r1, r2
20003a0a:	784a      	ldrb	r2, [r1, #1]
20003a0c:	4690      	mov	r8, r2
20003a0e:	2200      	movs	r2, #0
20003a10:	704a      	strb	r2, [r1, #1]
20003a12:	4691      	mov	r9, r2
20003a14:	705a      	strb	r2, [r3, #1]
20003a16:	0001      	movs	r1, r0
20003a18:	0032      	movs	r2, r6
20003a1a:	0020      	movs	r0, r4
20003a1c:	f7ff ff26 	bl	2000386c <ph_merge_nodes>
20003a20:	4643      	mov	r3, r8
20003a22:	4682      	mov	sl, r0
20003a24:	2b00      	cmp	r3, #0
20003a26:	d007      	beq.n	20003a38 <ph_remove_any_head+0x98>
20003a28:	005b      	lsls	r3, r3, #1
20003a2a:	6821      	ldr	r1, [r4, #0]
20003a2c:	4443      	add	r3, r8
20003a2e:	3b03      	subs	r3, #3
20003a30:	18cb      	adds	r3, r1, r3
20003a32:	785a      	ldrb	r2, [r3, #1]
20003a34:	2a00      	cmp	r2, #0
20003a36:	d116      	bne.n	20003a66 <ph_remove_any_head+0xc6>
20003a38:	4642      	mov	r2, r8
20003a3a:	4651      	mov	r1, sl
20003a3c:	0020      	movs	r0, r4
20003a3e:	f7ff ff15 	bl	2000386c <ph_merge_nodes>
20003a42:	6821      	ldr	r1, [r4, #0]
20003a44:	9b01      	ldr	r3, [sp, #4]
20003a46:	19ca      	adds	r2, r1, r7
20003a48:	2b00      	cmp	r3, #0
20003a4a:	d1c6      	bne.n	200039da <ph_remove_any_head+0x3a>
20003a4c:	2800      	cmp	r0, #0
20003a4e:	d0cf      	beq.n	200039f0 <ph_remove_any_head+0x50>
20003a50:	0043      	lsls	r3, r0, #1
20003a52:	181b      	adds	r3, r3, r0
20003a54:	3b03      	subs	r3, #3
20003a56:	18cb      	adds	r3, r1, r3
20003a58:	2100      	movs	r1, #0
20003a5a:	7099      	strb	r1, [r3, #2]
20003a5c:	e7c8      	b.n	200039f0 <ph_remove_any_head+0x50>
20003a5e:	9b01      	ldr	r3, [sp, #4]
20003a60:	2b00      	cmp	r3, #0
20003a62:	d1ba      	bne.n	200039da <ph_remove_any_head+0x3a>
20003a64:	e7c4      	b.n	200039f0 <ph_remove_any_head+0x50>
20003a66:	0050      	lsls	r0, r2, #1
20003a68:	1880      	adds	r0, r0, r2
20003a6a:	3803      	subs	r0, #3
20003a6c:	1809      	adds	r1, r1, r0
20003a6e:	7848      	ldrb	r0, [r1, #1]
20003a70:	4683      	mov	fp, r0
20003a72:	4648      	mov	r0, r9
20003a74:	7048      	strb	r0, [r1, #1]
20003a76:	7058      	strb	r0, [r3, #1]
20003a78:	4641      	mov	r1, r8
20003a7a:	0020      	movs	r0, r4
20003a7c:	f7ff fef6 	bl	2000386c <ph_merge_nodes>
20003a80:	4659      	mov	r1, fp
20003a82:	4680      	mov	r8, r0
20003a84:	0020      	movs	r0, r4
20003a86:	f7ff ff43 	bl	20003910 <ph_merge_two_pass>
20003a8a:	4641      	mov	r1, r8
20003a8c:	0002      	movs	r2, r0
20003a8e:	0020      	movs	r0, r4
20003a90:	f7ff feec 	bl	2000386c <ph_merge_nodes>
20003a94:	4680      	mov	r8, r0
20003a96:	e7cf      	b.n	20003a38 <ph_remove_any_head+0x98>

20003a98 <ph_remove_head>:
20003a98:	b5f0      	push	{r4, r5, r6, r7, lr}
20003a9a:	464e      	mov	r6, r9
20003a9c:	4645      	mov	r5, r8
20003a9e:	46de      	mov	lr, fp
20003aa0:	4657      	mov	r7, sl
20003aa2:	b5e0      	push	{r5, r6, r7, lr}
20003aa4:	7b46      	ldrb	r6, [r0, #13]
20003aa6:	0004      	movs	r4, r0
20003aa8:	0075      	lsls	r5, r6, #1
20003aaa:	6800      	ldr	r0, [r0, #0]
20003aac:	19ad      	adds	r5, r5, r6
20003aae:	3d03      	subs	r5, #3
20003ab0:	b083      	sub	sp, #12
20003ab2:	9101      	str	r1, [sp, #4]
20003ab4:	5d41      	ldrb	r1, [r0, r5]
20003ab6:	1942      	adds	r2, r0, r5
20003ab8:	2900      	cmp	r1, #0
20003aba:	d04e      	beq.n	20003b5a <ph_remove_head+0xc2>
20003abc:	004b      	lsls	r3, r1, #1
20003abe:	185b      	adds	r3, r3, r1
20003ac0:	3b03      	subs	r3, #3
20003ac2:	18c3      	adds	r3, r0, r3
20003ac4:	785f      	ldrb	r7, [r3, #1]
20003ac6:	46bc      	mov	ip, r7
20003ac8:	2f00      	cmp	r7, #0
20003aca:	d118      	bne.n	20003afe <ph_remove_head+0x66>
20003acc:	9d01      	ldr	r5, [sp, #4]
20003ace:	2d00      	cmp	r5, #0
20003ad0:	d040      	beq.n	20003b54 <ph_remove_head+0xbc>
20003ad2:	7be5      	ldrb	r5, [r4, #15]
20003ad4:	2d00      	cmp	r5, #0
20003ad6:	d004      	beq.n	20003ae2 <ph_remove_head+0x4a>
20003ad8:	006b      	lsls	r3, r5, #1
20003ada:	195b      	adds	r3, r3, r5
20003adc:	18c3      	adds	r3, r0, r3
20003ade:	3b03      	subs	r3, #3
20003ae0:	705e      	strb	r6, [r3, #1]
20003ae2:	73e6      	strb	r6, [r4, #15]
20003ae4:	2900      	cmp	r1, #0
20003ae6:	d131      	bne.n	20003b4c <ph_remove_head+0xb4>
20003ae8:	2300      	movs	r3, #0
20003aea:	0030      	movs	r0, r6
20003aec:	7053      	strb	r3, [r2, #1]
20003aee:	7361      	strb	r1, [r4, #13]
20003af0:	b003      	add	sp, #12
20003af2:	bc3c      	pop	{r2, r3, r4, r5}
20003af4:	4690      	mov	r8, r2
20003af6:	4699      	mov	r9, r3
20003af8:	46a2      	mov	sl, r4
20003afa:	46ab      	mov	fp, r5
20003afc:	bdf0      	pop	{r4, r5, r6, r7, pc}
20003afe:	007a      	lsls	r2, r7, #1
20003b00:	4462      	add	r2, ip
20003b02:	3a03      	subs	r2, #3
20003b04:	1880      	adds	r0, r0, r2
20003b06:	7842      	ldrb	r2, [r0, #1]
20003b08:	4693      	mov	fp, r2
20003b0a:	2200      	movs	r2, #0
20003b0c:	7042      	strb	r2, [r0, #1]
20003b0e:	4691      	mov	r9, r2
20003b10:	705a      	strb	r2, [r3, #1]
20003b12:	0020      	movs	r0, r4
20003b14:	003a      	movs	r2, r7
20003b16:	f7ff fea9 	bl	2000386c <ph_merge_nodes>
20003b1a:	465b      	mov	r3, fp
20003b1c:	4680      	mov	r8, r0
20003b1e:	2b00      	cmp	r3, #0
20003b20:	d007      	beq.n	20003b32 <ph_remove_head+0x9a>
20003b22:	005b      	lsls	r3, r3, #1
20003b24:	6821      	ldr	r1, [r4, #0]
20003b26:	445b      	add	r3, fp
20003b28:	3b03      	subs	r3, #3
20003b2a:	18cb      	adds	r3, r1, r3
20003b2c:	785a      	ldrb	r2, [r3, #1]
20003b2e:	2a00      	cmp	r2, #0
20003b30:	d117      	bne.n	20003b62 <ph_remove_head+0xca>
20003b32:	465a      	mov	r2, fp
20003b34:	4641      	mov	r1, r8
20003b36:	0020      	movs	r0, r4
20003b38:	f7ff fe98 	bl	2000386c <ph_merge_nodes>
20003b3c:	9b01      	ldr	r3, [sp, #4]
20003b3e:	0001      	movs	r1, r0
20003b40:	6820      	ldr	r0, [r4, #0]
20003b42:	1942      	adds	r2, r0, r5
20003b44:	2b00      	cmp	r3, #0
20003b46:	d1c4      	bne.n	20003ad2 <ph_remove_head+0x3a>
20003b48:	2900      	cmp	r1, #0
20003b4a:	d0cd      	beq.n	20003ae8 <ph_remove_head+0x50>
20003b4c:	004b      	lsls	r3, r1, #1
20003b4e:	185b      	adds	r3, r3, r1
20003b50:	3b03      	subs	r3, #3
20003b52:	18c3      	adds	r3, r0, r3
20003b54:	2000      	movs	r0, #0
20003b56:	7098      	strb	r0, [r3, #2]
20003b58:	e7c6      	b.n	20003ae8 <ph_remove_head+0x50>
20003b5a:	9b01      	ldr	r3, [sp, #4]
20003b5c:	2b00      	cmp	r3, #0
20003b5e:	d1b8      	bne.n	20003ad2 <ph_remove_head+0x3a>
20003b60:	e7c2      	b.n	20003ae8 <ph_remove_head+0x50>
20003b62:	0050      	lsls	r0, r2, #1
20003b64:	1880      	adds	r0, r0, r2
20003b66:	3803      	subs	r0, #3
20003b68:	1809      	adds	r1, r1, r0
20003b6a:	7848      	ldrb	r0, [r1, #1]
20003b6c:	4682      	mov	sl, r0
20003b6e:	4648      	mov	r0, r9
20003b70:	7048      	strb	r0, [r1, #1]
20003b72:	7058      	strb	r0, [r3, #1]
20003b74:	4659      	mov	r1, fp
20003b76:	0020      	movs	r0, r4
20003b78:	f7ff fe78 	bl	2000386c <ph_merge_nodes>
20003b7c:	4653      	mov	r3, sl
20003b7e:	4683      	mov	fp, r0
20003b80:	2b00      	cmp	r3, #0
20003b82:	d007      	beq.n	20003b94 <ph_remove_head+0xfc>
20003b84:	005b      	lsls	r3, r3, #1
20003b86:	6821      	ldr	r1, [r4, #0]
20003b88:	4453      	add	r3, sl
20003b8a:	3b03      	subs	r3, #3
20003b8c:	18cb      	adds	r3, r1, r3
20003b8e:	785a      	ldrb	r2, [r3, #1]
20003b90:	2a00      	cmp	r2, #0
20003b92:	d106      	bne.n	20003ba2 <ph_remove_head+0x10a>
20003b94:	4659      	mov	r1, fp
20003b96:	4652      	mov	r2, sl
20003b98:	0020      	movs	r0, r4
20003b9a:	f7ff fe67 	bl	2000386c <ph_merge_nodes>
20003b9e:	4683      	mov	fp, r0
20003ba0:	e7c7      	b.n	20003b32 <ph_remove_head+0x9a>
20003ba2:	0050      	lsls	r0, r2, #1
20003ba4:	1880      	adds	r0, r0, r2
20003ba6:	3803      	subs	r0, #3
20003ba8:	1809      	adds	r1, r1, r0
20003baa:	4648      	mov	r0, r9
20003bac:	784f      	ldrb	r7, [r1, #1]
20003bae:	7048      	strb	r0, [r1, #1]
20003bb0:	7058      	strb	r0, [r3, #1]
20003bb2:	4651      	mov	r1, sl
20003bb4:	0020      	movs	r0, r4
20003bb6:	f7ff fe59 	bl	2000386c <ph_merge_nodes>
20003bba:	0039      	movs	r1, r7
20003bbc:	4681      	mov	r9, r0
20003bbe:	0020      	movs	r0, r4
20003bc0:	f7ff fea6 	bl	20003910 <ph_merge_two_pass>
20003bc4:	4649      	mov	r1, r9
20003bc6:	0002      	movs	r2, r0
20003bc8:	0020      	movs	r0, r4
20003bca:	f7ff fe4f 	bl	2000386c <ph_merge_nodes>
20003bce:	4682      	mov	sl, r0
20003bd0:	e7e0      	b.n	20003b94 <ph_remove_head+0xfc>
20003bd2:	46c0      	nop			; (mov r8, r8)

20003bd4 <ph_remove_and_free_node>:
20003bd4:	b570      	push	{r4, r5, r6, lr}
20003bd6:	0004      	movs	r4, r0
20003bd8:	2900      	cmp	r1, #0
20003bda:	d02c      	beq.n	20003c36 <ph_remove_and_free_node+0x62>
20003bdc:	7b43      	ldrb	r3, [r0, #13]
20003bde:	428b      	cmp	r3, r1
20003be0:	d02e      	beq.n	20003c40 <ph_remove_and_free_node+0x6c>
20003be2:	6805      	ldr	r5, [r0, #0]
20003be4:	0048      	lsls	r0, r1, #1
20003be6:	1840      	adds	r0, r0, r1
20003be8:	3803      	subs	r0, #3
20003bea:	1828      	adds	r0, r5, r0
20003bec:	7882      	ldrb	r2, [r0, #2]
20003bee:	2a00      	cmp	r2, #0
20003bf0:	d021      	beq.n	20003c36 <ph_remove_and_free_node+0x62>
20003bf2:	0053      	lsls	r3, r2, #1
20003bf4:	189b      	adds	r3, r3, r2
20003bf6:	3b03      	subs	r3, #3
20003bf8:	5cea      	ldrb	r2, [r5, r3]
20003bfa:	18ee      	adds	r6, r5, r3
20003bfc:	428a      	cmp	r2, r1
20003bfe:	d102      	bne.n	20003c06 <ph_remove_and_free_node+0x32>
20003c00:	e01b      	b.n	20003c3a <ph_remove_and_free_node+0x66>
20003c02:	2a00      	cmp	r2, #0
20003c04:	d008      	beq.n	20003c18 <ph_remove_and_free_node+0x44>
20003c06:	0053      	lsls	r3, r2, #1
20003c08:	189b      	adds	r3, r3, r2
20003c0a:	3b03      	subs	r3, #3
20003c0c:	18eb      	adds	r3, r5, r3
20003c0e:	785a      	ldrb	r2, [r3, #1]
20003c10:	428a      	cmp	r2, r1
20003c12:	d1f6      	bne.n	20003c02 <ph_remove_and_free_node+0x2e>
20003c14:	7842      	ldrb	r2, [r0, #1]
20003c16:	705a      	strb	r2, [r3, #1]
20003c18:	2300      	movs	r3, #0
20003c1a:	2201      	movs	r2, #1
20003c1c:	7083      	strb	r3, [r0, #2]
20003c1e:	7043      	strb	r3, [r0, #1]
20003c20:	0020      	movs	r0, r4
20003c22:	f7ff febd 	bl	200039a0 <ph_remove_any_head>
20003c26:	7b61      	ldrb	r1, [r4, #13]
20003c28:	0002      	movs	r2, r0
20003c2a:	0020      	movs	r0, r4
20003c2c:	f7ff fe1e 	bl	2000386c <ph_merge_nodes>
20003c30:	7360      	strb	r0, [r4, #13]
20003c32:	2001      	movs	r0, #1
20003c34:	e000      	b.n	20003c38 <ph_remove_and_free_node+0x64>
20003c36:	2000      	movs	r0, #0
20003c38:	bd70      	pop	{r4, r5, r6, pc}
20003c3a:	7843      	ldrb	r3, [r0, #1]
20003c3c:	7033      	strb	r3, [r6, #0]
20003c3e:	e7eb      	b.n	20003c18 <ph_remove_and_free_node+0x44>
20003c40:	2201      	movs	r2, #1
20003c42:	0019      	movs	r1, r3
20003c44:	f7ff feac 	bl	200039a0 <ph_remove_any_head>
20003c48:	7360      	strb	r0, [r4, #13]
20003c4a:	2001      	movs	r0, #1
20003c4c:	e7f4      	b.n	20003c38 <ph_remove_and_free_node+0x64>
20003c4e:	46c0      	nop			; (mov r8, r8)

20003c50 <mutex_init>:
20003c50:	b510      	push	{r4, lr}
20003c52:	0004      	movs	r4, r0
20003c54:	f7fe fd8e 	bl	20002774 <next_striped_spin_lock_num>
20003c58:	0001      	movs	r1, r0
20003c5a:	0020      	movs	r0, r4
20003c5c:	f7ff f864 	bl	20002d28 <lock_init>
20003c60:	23ff      	movs	r3, #255	; 0xff
20003c62:	7123      	strb	r3, [r4, #4]
20003c64:	f3bf 8f5f 	dmb	sy
20003c68:	bd10      	pop	{r4, pc}
20003c6a:	46c0      	nop			; (mov r8, r8)

20003c6c <recursive_mutex_init>:
20003c6c:	b510      	push	{r4, lr}
20003c6e:	0004      	movs	r4, r0
20003c70:	f7fe fd80 	bl	20002774 <next_striped_spin_lock_num>
20003c74:	0001      	movs	r1, r0
20003c76:	0020      	movs	r0, r4
20003c78:	f7ff f856 	bl	20002d28 <lock_init>
20003c7c:	23ff      	movs	r3, #255	; 0xff
20003c7e:	80a3      	strh	r3, [r4, #4]
20003c80:	f3bf 8f5f 	dmb	sy
20003c84:	bd10      	pop	{r4, pc}
20003c86:	46c0      	nop			; (mov r8, r8)

20003c88 <critical_section_init>:
20003c88:	b510      	push	{r4, lr}
20003c8a:	0004      	movs	r4, r0
20003c8c:	2001      	movs	r0, #1
20003c8e:	f7fe fd7d 	bl	2000278c <spin_lock_claim_unused>
20003c92:	4b03      	ldr	r3, [pc, #12]	; (20003ca0 <critical_section_init+0x18>)
20003c94:	18c3      	adds	r3, r0, r3
20003c96:	009b      	lsls	r3, r3, #2
20003c98:	6023      	str	r3, [r4, #0]
20003c9a:	f3bf 8f5f 	dmb	sy
20003c9e:	bd10      	pop	{r4, pc}
20003ca0:	34000040 	.word	0x34000040

20003ca4 <uart_init>:
20003ca4:	b5f8      	push	{r3, r4, r5, r6, r7, lr}
20003ca6:	0004      	movs	r4, r0
20003ca8:	2006      	movs	r0, #6
20003caa:	000d      	movs	r5, r1
20003cac:	f000 faec 	bl	20004288 <clock_get_hz>
20003cb0:	2800      	cmp	r0, #0
20003cb2:	d045      	beq.n	20003d40 <uart_init+0x9c>
20003cb4:	4b2b      	ldr	r3, [pc, #172]	; (20003d64 <uart_init+0xc0>)
20003cb6:	492c      	ldr	r1, [pc, #176]	; (20003d68 <uart_init+0xc4>)
20003cb8:	18e3      	adds	r3, r4, r3
20003cba:	425a      	negs	r2, r3
20003cbc:	4153      	adcs	r3, r2
20003cbe:	2280      	movs	r2, #128	; 0x80
20003cc0:	03d2      	lsls	r2, r2, #15
20003cc2:	4694      	mov	ip, r2
20003cc4:	425b      	negs	r3, r3
20003cc6:	4013      	ands	r3, r2
20003cc8:	4a28      	ldr	r2, [pc, #160]	; (20003d6c <uart_init+0xc8>)
20003cca:	4463      	add	r3, ip
20003ccc:	6013      	str	r3, [r2, #0]
20003cce:	4a28      	ldr	r2, [pc, #160]	; (20003d70 <uart_init+0xcc>)
20003cd0:	6013      	str	r3, [r2, #0]
20003cd2:	0018      	movs	r0, r3
20003cd4:	688a      	ldr	r2, [r1, #8]
20003cd6:	4390      	bics	r0, r2
20003cd8:	d1fb      	bne.n	20003cd2 <uart_init+0x2e>
20003cda:	4b22      	ldr	r3, [pc, #136]	; (20003d64 <uart_init+0xc0>)
20003cdc:	2180      	movs	r1, #128	; 0x80
20003cde:	18e3      	adds	r3, r4, r3
20003ce0:	425a      	negs	r2, r3
20003ce2:	4153      	adcs	r3, r2
20003ce4:	4a23      	ldr	r2, [pc, #140]	; (20003d74 <uart_init+0xd0>)
20003ce6:	005b      	lsls	r3, r3, #1
20003ce8:	0049      	lsls	r1, r1, #1
20003cea:	2006      	movs	r0, #6
20003cec:	5299      	strh	r1, [r3, r2]
20003cee:	f000 facb 	bl	20004288 <clock_get_hz>
20003cf2:	0029      	movs	r1, r5
20003cf4:	00c0      	lsls	r0, r0, #3
20003cf6:	f001 ff39 	bl	20005b6c <__wrap___aeabi_uidiv>
20003cfa:	09c3      	lsrs	r3, r0, #7
20003cfc:	d121      	bne.n	20003d42 <uart_init+0x9e>
20003cfe:	2740      	movs	r7, #64	; 0x40
20003d00:	2201      	movs	r2, #1
20003d02:	0026      	movs	r6, r4
20003d04:	2580      	movs	r5, #128	; 0x80
20003d06:	6262      	str	r2, [r4, #36]	; 0x24
20003d08:	62a3      	str	r3, [r4, #40]	; 0x28
20003d0a:	2300      	movs	r3, #0
20003d0c:	362c      	adds	r6, #44	; 0x2c
20003d0e:	01ad      	lsls	r5, r5, #6
20003d10:	4335      	orrs	r5, r6
20003d12:	602b      	str	r3, [r5, #0]
20003d14:	2006      	movs	r0, #6
20003d16:	f000 fab7 	bl	20004288 <clock_get_hz>
20003d1a:	0039      	movs	r1, r7
20003d1c:	0080      	lsls	r0, r0, #2
20003d1e:	f001 ff25 	bl	20005b6c <__wrap___aeabi_uidiv>
20003d22:	2360      	movs	r3, #96	; 0x60
20003d24:	6ae2      	ldr	r2, [r4, #44]	; 0x2c
20003d26:	4053      	eors	r3, r2
20003d28:	226e      	movs	r2, #110	; 0x6e
20003d2a:	401a      	ands	r2, r3
20003d2c:	2380      	movs	r3, #128	; 0x80
20003d2e:	015b      	lsls	r3, r3, #5
20003d30:	4333      	orrs	r3, r6
20003d32:	601a      	str	r2, [r3, #0]
20003d34:	4b10      	ldr	r3, [pc, #64]	; (20003d78 <uart_init+0xd4>)
20003d36:	6323      	str	r3, [r4, #48]	; 0x30
20003d38:	2310      	movs	r3, #16
20003d3a:	602b      	str	r3, [r5, #0]
20003d3c:	3b0d      	subs	r3, #13
20003d3e:	64a3      	str	r3, [r4, #72]	; 0x48
20003d40:	bdf8      	pop	{r3, r4, r5, r6, r7, pc}
20003d42:	4a0e      	ldr	r2, [pc, #56]	; (20003d7c <uart_init+0xd8>)
20003d44:	4293      	cmp	r3, r2
20003d46:	d903      	bls.n	20003d50 <uart_init+0xac>
20003d48:	2300      	movs	r3, #0
20003d4a:	4f0d      	ldr	r7, [pc, #52]	; (20003d80 <uart_init+0xdc>)
20003d4c:	4a0d      	ldr	r2, [pc, #52]	; (20003d84 <uart_init+0xe0>)
20003d4e:	e7d8      	b.n	20003d02 <uart_init+0x5e>
20003d50:	227f      	movs	r2, #127	; 0x7f
20003d52:	4010      	ands	r0, r2
20003d54:	3001      	adds	r0, #1
20003d56:	0840      	lsrs	r0, r0, #1
20003d58:	019f      	lsls	r7, r3, #6
20003d5a:	001a      	movs	r2, r3
20003d5c:	183f      	adds	r7, r7, r0
20003d5e:	0003      	movs	r3, r0
20003d60:	e7cf      	b.n	20003d02 <uart_init+0x5e>
20003d62:	46c0      	nop			; (mov r8, r8)
20003d64:	bffc8000 	.word	0xbffc8000
20003d68:	4000c000 	.word	0x4000c000
20003d6c:	4000e000 	.word	0x4000e000
20003d70:	4000f000 	.word	0x4000f000
20003d74:	20014858 	.word	0x20014858
20003d78:	00000301 	.word	0x00000301
20003d7c:	0000fffe 	.word	0x0000fffe
20003d80:	003fffc0 	.word	0x003fffc0
20003d84:	0000ffff 	.word	0x0000ffff

20003d88 <runtime_init>:
20003d88:	4b2c      	ldr	r3, [pc, #176]	; (20003e3c <runtime_init+0xb4>)
20003d8a:	4a2d      	ldr	r2, [pc, #180]	; (20003e40 <runtime_init+0xb8>)
20003d8c:	b570      	push	{r4, r5, r6, lr}
20003d8e:	601a      	str	r2, [r3, #0]
20003d90:	4a2c      	ldr	r2, [pc, #176]	; (20003e44 <runtime_init+0xbc>)
20003d92:	4b2d      	ldr	r3, [pc, #180]	; (20003e48 <runtime_init+0xc0>)
20003d94:	492d      	ldr	r1, [pc, #180]	; (20003e4c <runtime_init+0xc4>)
20003d96:	601a      	str	r2, [r3, #0]
20003d98:	0010      	movs	r0, r2
20003d9a:	688b      	ldr	r3, [r1, #8]
20003d9c:	4398      	bics	r0, r3
20003d9e:	d1fb      	bne.n	20003d98 <runtime_init+0x10>
20003da0:	4c2b      	ldr	r4, [pc, #172]	; (20003e50 <runtime_init+0xc8>)
20003da2:	4b2c      	ldr	r3, [pc, #176]	; (20003e54 <runtime_init+0xcc>)
20003da4:	429c      	cmp	r4, r3
20003da6:	d209      	bcs.n	20003dbc <runtime_init+0x34>
20003da8:	3b01      	subs	r3, #1
20003daa:	1b1d      	subs	r5, r3, r4
20003dac:	08ad      	lsrs	r5, r5, #2
20003dae:	3501      	adds	r5, #1
20003db0:	00ad      	lsls	r5, r5, #2
20003db2:	192d      	adds	r5, r5, r4
20003db4:	cc08      	ldmia	r4!, {r3}
20003db6:	4798      	blx	r3
20003db8:	42ac      	cmp	r4, r5
20003dba:	d1fb      	bne.n	20003db4 <runtime_init+0x2c>
20003dbc:	f000 f906 	bl	20003fcc <clocks_init>
20003dc0:	4a25      	ldr	r2, [pc, #148]	; (20003e58 <runtime_init+0xd0>)
20003dc2:	4b21      	ldr	r3, [pc, #132]	; (20003e48 <runtime_init+0xc0>)
20003dc4:	601a      	str	r2, [r3, #0]
20003dc6:	4a21      	ldr	r2, [pc, #132]	; (20003e4c <runtime_init+0xc4>)
20003dc8:	6893      	ldr	r3, [r2, #8]
20003dca:	01db      	lsls	r3, r3, #7
20003dcc:	3380      	adds	r3, #128	; 0x80
20003dce:	d1fb      	bne.n	20003dc8 <runtime_init+0x40>
20003dd0:	2240      	movs	r2, #64	; 0x40
20003dd2:	4b22      	ldr	r3, [pc, #136]	; (20003e5c <runtime_init+0xd4>)
20003dd4:	4c22      	ldr	r4, [pc, #136]	; (20003e60 <runtime_init+0xd8>)
20003dd6:	4d23      	ldr	r5, [pc, #140]	; (20003e64 <runtime_init+0xdc>)
20003dd8:	679a      	str	r2, [r3, #120]	; 0x78
20003dda:	675a      	str	r2, [r3, #116]	; 0x74
20003ddc:	671a      	str	r2, [r3, #112]	; 0x70
20003dde:	66da      	str	r2, [r3, #108]	; 0x6c
20003de0:	42ac      	cmp	r4, r5
20003de2:	d208      	bcs.n	20003df6 <runtime_init+0x6e>
20003de4:	6823      	ldr	r3, [r4, #0]
20003de6:	0020      	movs	r0, r4
20003de8:	2b00      	cmp	r3, #0
20003dea:	d021      	beq.n	20003e30 <runtime_init+0xa8>
20003dec:	3408      	adds	r4, #8
20003dee:	f7ff ff3d 	bl	20003c6c <recursive_mutex_init>
20003df2:	42ac      	cmp	r4, r5
20003df4:	d3f6      	bcc.n	20003de4 <runtime_init+0x5c>
20003df6:	4c1c      	ldr	r4, [pc, #112]	; (20003e68 <runtime_init+0xe0>)
20003df8:	4d1c      	ldr	r5, [pc, #112]	; (20003e6c <runtime_init+0xe4>)
20003dfa:	68a1      	ldr	r1, [r4, #8]
20003dfc:	22c0      	movs	r2, #192	; 0xc0
20003dfe:	0028      	movs	r0, r5
20003e00:	f003 fc7e 	bl	20007700 <__wrap___aeabi_memcpy>
20003e04:	60a5      	str	r5, [r4, #8]
20003e06:	f7fe fca7 	bl	20002758 <spin_locks_reset>
20003e0a:	f7fe ff63 	bl	20002cd4 <irq_init_priorities>
20003e0e:	f7ff f9c1 	bl	20003194 <alarm_pool_init_default>
20003e12:	4c17      	ldr	r4, [pc, #92]	; (20003e70 <runtime_init+0xe8>)
20003e14:	4b17      	ldr	r3, [pc, #92]	; (20003e74 <runtime_init+0xec>)
20003e16:	429c      	cmp	r4, r3
20003e18:	d209      	bcs.n	20003e2e <runtime_init+0xa6>
20003e1a:	3b01      	subs	r3, #1
20003e1c:	1b1d      	subs	r5, r3, r4
20003e1e:	08ad      	lsrs	r5, r5, #2
20003e20:	3501      	adds	r5, #1
20003e22:	00ad      	lsls	r5, r5, #2
20003e24:	192d      	adds	r5, r5, r4
20003e26:	cc08      	ldmia	r4!, {r3}
20003e28:	4798      	blx	r3
20003e2a:	42a5      	cmp	r5, r4
20003e2c:	d1fb      	bne.n	20003e26 <runtime_init+0x9e>
20003e2e:	bd70      	pop	{r4, r5, r6, pc}
20003e30:	3408      	adds	r4, #8
20003e32:	f7ff ff0d 	bl	20003c50 <mutex_init>
20003e36:	42ac      	cmp	r4, r5
20003e38:	d3d4      	bcc.n	20003de4 <runtime_init+0x5c>
20003e3a:	e7dc      	b.n	20003df6 <runtime_init+0x6e>
20003e3c:	4000e000 	.word	0x4000e000
20003e40:	fefbcdbf 	.word	0xfefbcdbf
20003e44:	003c7ffe 	.word	0x003c7ffe
20003e48:	4000f000 	.word	0x4000f000
20003e4c:	4000c000 	.word	0x4000c000
20003e50:	2000c874 	.word	0x2000c874
20003e54:	2000c884 	.word	0x2000c884
20003e58:	01ffffff 	.word	0x01ffffff
20003e5c:	4001f000 	.word	0x4001f000
20003e60:	2000c864 	.word	0x2000c864
20003e64:	2000c874 	.word	0x2000c874
20003e68:	e000ed00 	.word	0xe000ed00
20003e6c:	20000000 	.word	0x20000000
20003e70:	2000c884 	.word	0x2000c884
20003e74:	2000c88c 	.word	0x2000c88c

20003e78 <exit>:
20003e78:	be00      	bkpt	0x0000
20003e7a:	e7fd      	b.n	20003e78 <exit>

20003e7c <panic>:
20003e7c:	b40f      	push	{r0, r1, r2, r3}
20003e7e:	b500      	push	{lr}
20003e80:	4808      	ldr	r0, [pc, #32]	; (20003ea4 <panic+0x28>)
20003e82:	b083      	sub	sp, #12
20003e84:	f003 fd98 	bl	200079b8 <__wrap_puts>
20003e88:	9b04      	ldr	r3, [sp, #16]
20003e8a:	2b00      	cmp	r3, #0
20003e8c:	d007      	beq.n	20003e9e <panic+0x22>
20003e8e:	a905      	add	r1, sp, #20
20003e90:	0018      	movs	r0, r3
20003e92:	9101      	str	r1, [sp, #4]
20003e94:	f001 fdf4 	bl	20005a80 <weak_raw_vprintf>
20003e98:	4803      	ldr	r0, [pc, #12]	; (20003ea8 <panic+0x2c>)
20003e9a:	f003 fd8d 	bl	200079b8 <__wrap_puts>
20003e9e:	be00      	bkpt	0x0000
20003ea0:	e7fd      	b.n	20003e9e <panic+0x22>
20003ea2:	46c0      	nop			; (mov r8, r8)
20003ea4:	2000bfc0 	.word	0x2000bfc0
20003ea8:	2000b7b0 	.word	0x2000b7b0

20003eac <hard_assertion_failure>:
20003eac:	b510      	push	{r4, lr}
20003eae:	4801      	ldr	r0, [pc, #4]	; (20003eb4 <hard_assertion_failure+0x8>)
20003eb0:	f7ff ffe4 	bl	20003e7c <panic>
20003eb4:	2000bfd0 	.word	0x2000bfd0

20003eb8 <clock_configure>:
20003eb8:	b5f0      	push	{r4, r5, r6, r7, lr}
20003eba:	4645      	mov	r5, r8
20003ebc:	46de      	mov	lr, fp
20003ebe:	4657      	mov	r7, sl
20003ec0:	464e      	mov	r6, r9
20003ec2:	b5e0      	push	{r5, r6, r7, lr}
20003ec4:	b083      	sub	sp, #12
20003ec6:	9201      	str	r2, [sp, #4]
20003ec8:	9a0c      	ldr	r2, [sp, #48]	; 0x30
20003eca:	0005      	movs	r5, r0
20003ecc:	4688      	mov	r8, r1
20003ece:	429a      	cmp	r2, r3
20003ed0:	d900      	bls.n	20003ed4 <clock_configure+0x1c>
20003ed2:	e074      	b.n	20003fbe <clock_configure+0x106>
20003ed4:	0e1a      	lsrs	r2, r3, #24
20003ed6:	4693      	mov	fp, r2
20003ed8:	021e      	lsls	r6, r3, #8
20003eda:	0030      	movs	r0, r6
20003edc:	2300      	movs	r3, #0
20003ede:	4659      	mov	r1, fp
20003ee0:	9a0c      	ldr	r2, [sp, #48]	; 0x30
20003ee2:	f001 fe85 	bl	20005bf0 <__wrap___aeabi_uldivmod>
20003ee6:	4b37      	ldr	r3, [pc, #220]	; (20003fc4 <clock_configure+0x10c>)
20003ee8:	006c      	lsls	r4, r5, #1
20003eea:	469c      	mov	ip, r3
20003eec:	1964      	adds	r4, r4, r5
20003eee:	00a4      	lsls	r4, r4, #2
20003ef0:	4464      	add	r4, ip
20003ef2:	6863      	ldr	r3, [r4, #4]
20003ef4:	0007      	movs	r7, r0
20003ef6:	4283      	cmp	r3, r0
20003ef8:	d200      	bcs.n	20003efc <clock_configure+0x44>
20003efa:	6060      	str	r0, [r4, #4]
20003efc:	1f2b      	subs	r3, r5, #4
20003efe:	b2db      	uxtb	r3, r3
20003f00:	4699      	mov	r9, r3
20003f02:	2b01      	cmp	r3, #1
20003f04:	d935      	bls.n	20003f72 <clock_configure+0xba>
20003f06:	23c0      	movs	r3, #192	; 0xc0
20003f08:	2280      	movs	r2, #128	; 0x80
20003f0a:	019b      	lsls	r3, r3, #6
20003f0c:	4323      	orrs	r3, r4
20003f0e:	0112      	lsls	r2, r2, #4
20003f10:	601a      	str	r2, [r3, #0]
20003f12:	4b2d      	ldr	r3, [pc, #180]	; (20003fc8 <clock_configure+0x110>)
20003f14:	00ad      	lsls	r5, r5, #2
20003f16:	5959      	ldr	r1, [r3, r5]
20003f18:	469a      	mov	sl, r3
20003f1a:	2900      	cmp	r1, #0
20003f1c:	d005      	beq.n	20003f2a <clock_configure+0x72>
20003f1e:	6958      	ldr	r0, [r3, #20]
20003f20:	f001 fe24 	bl	20005b6c <__wrap___aeabi_uidiv>
20003f24:	3001      	adds	r0, #1
20003f26:	3801      	subs	r0, #1
20003f28:	d1fd      	bne.n	20003f26 <clock_configure+0x6e>
20003f2a:	9a01      	ldr	r2, [sp, #4]
20003f2c:	6823      	ldr	r3, [r4, #0]
20003f2e:	0152      	lsls	r2, r2, #5
20003f30:	4053      	eors	r3, r2
20003f32:	22e0      	movs	r2, #224	; 0xe0
20003f34:	401a      	ands	r2, r3
20003f36:	2380      	movs	r3, #128	; 0x80
20003f38:	015b      	lsls	r3, r3, #5
20003f3a:	4323      	orrs	r3, r4
20003f3c:	601a      	str	r2, [r3, #0]
20003f3e:	464a      	mov	r2, r9
20003f40:	2a01      	cmp	r2, #1
20003f42:	d92f      	bls.n	20003fa4 <clock_configure+0xec>
20003f44:	2380      	movs	r3, #128	; 0x80
20003f46:	2280      	movs	r2, #128	; 0x80
20003f48:	019b      	lsls	r3, r3, #6
20003f4a:	4323      	orrs	r3, r4
20003f4c:	0112      	lsls	r2, r2, #4
20003f4e:	601a      	str	r2, [r3, #0]
20003f50:	0030      	movs	r0, r6
20003f52:	2300      	movs	r3, #0
20003f54:	003a      	movs	r2, r7
20003f56:	4659      	mov	r1, fp
20003f58:	6067      	str	r7, [r4, #4]
20003f5a:	f001 fe49 	bl	20005bf0 <__wrap___aeabi_uldivmod>
20003f5e:	4653      	mov	r3, sl
20003f60:	5158      	str	r0, [r3, r5]
20003f62:	2001      	movs	r0, #1
20003f64:	b003      	add	sp, #12
20003f66:	bc3c      	pop	{r2, r3, r4, r5}
20003f68:	4690      	mov	r8, r2
20003f6a:	4699      	mov	r9, r3
20003f6c:	46a2      	mov	sl, r4
20003f6e:	46ab      	mov	fp, r5
20003f70:	bdf0      	pop	{r4, r5, r6, r7, pc}
20003f72:	4643      	mov	r3, r8
20003f74:	2b01      	cmp	r3, #1
20003f76:	d1c6      	bne.n	20003f06 <clock_configure+0x4e>
20003f78:	23c0      	movs	r3, #192	; 0xc0
20003f7a:	2203      	movs	r2, #3
20003f7c:	019b      	lsls	r3, r3, #6
20003f7e:	4323      	orrs	r3, r4
20003f80:	601a      	str	r2, [r3, #0]
20003f82:	3a02      	subs	r2, #2
20003f84:	68a3      	ldr	r3, [r4, #8]
20003f86:	421a      	tst	r2, r3
20003f88:	d0fc      	beq.n	20003f84 <clock_configure+0xcc>
20003f8a:	9a01      	ldr	r2, [sp, #4]
20003f8c:	6823      	ldr	r3, [r4, #0]
20003f8e:	0152      	lsls	r2, r2, #5
20003f90:	405a      	eors	r2, r3
20003f92:	23e0      	movs	r3, #224	; 0xe0
20003f94:	401a      	ands	r2, r3
20003f96:	2380      	movs	r3, #128	; 0x80
20003f98:	015b      	lsls	r3, r3, #5
20003f9a:	4323      	orrs	r3, r4
20003f9c:	601a      	str	r2, [r3, #0]
20003f9e:	4a0a      	ldr	r2, [pc, #40]	; (20003fc8 <clock_configure+0x110>)
20003fa0:	00ad      	lsls	r5, r5, #2
20003fa2:	4692      	mov	sl, r2
20003fa4:	4642      	mov	r2, r8
20003fa6:	6821      	ldr	r1, [r4, #0]
20003fa8:	4051      	eors	r1, r2
20003faa:	2203      	movs	r2, #3
20003fac:	400a      	ands	r2, r1
20003fae:	601a      	str	r2, [r3, #0]
20003fb0:	2201      	movs	r2, #1
20003fb2:	4643      	mov	r3, r8
20003fb4:	409a      	lsls	r2, r3
20003fb6:	68a3      	ldr	r3, [r4, #8]
20003fb8:	421a      	tst	r2, r3
20003fba:	d0fc      	beq.n	20003fb6 <clock_configure+0xfe>
20003fbc:	e7c2      	b.n	20003f44 <clock_configure+0x8c>
20003fbe:	2000      	movs	r0, #0
20003fc0:	e7d0      	b.n	20003f64 <clock_configure+0xac>
20003fc2:	46c0      	nop			; (mov r8, r8)
20003fc4:	40008000 	.word	0x40008000
20003fc8:	2000ce7c 	.word	0x2000ce7c

20003fcc <clocks_init>:
20003fcc:	b530      	push	{r4, r5, lr}
20003fce:	200c      	movs	r0, #12
20003fd0:	b083      	sub	sp, #12
20003fd2:	f000 f9b3 	bl	2000433c <watchdog_start_tick>
20003fd6:	f7fe fbb7 	bl	20002748 <running_on_fpga>
20003fda:	2800      	cmp	r0, #0
20003fdc:	d00e      	beq.n	20003ffc <clocks_init+0x30>
20003fde:	4b94      	ldr	r3, [pc, #592]	; (20004230 <clocks_init+0x264>)
20003fe0:	4a94      	ldr	r2, [pc, #592]	; (20004234 <clocks_init+0x268>)
20003fe2:	601a      	str	r2, [r3, #0]
20003fe4:	605a      	str	r2, [r3, #4]
20003fe6:	609a      	str	r2, [r3, #8]
20003fe8:	60da      	str	r2, [r3, #12]
20003fea:	611a      	str	r2, [r3, #16]
20003fec:	615a      	str	r2, [r3, #20]
20003fee:	619a      	str	r2, [r3, #24]
20003ff0:	61da      	str	r2, [r3, #28]
20003ff2:	621a      	str	r2, [r3, #32]
20003ff4:	4a90      	ldr	r2, [pc, #576]	; (20004238 <clocks_init+0x26c>)
20003ff6:	625a      	str	r2, [r3, #36]	; 0x24
20003ff8:	b003      	add	sp, #12
20003ffa:	bd30      	pop	{r4, r5, pc}
20003ffc:	4c8f      	ldr	r4, [pc, #572]	; (2000423c <clocks_init+0x270>)
20003ffe:	67a0      	str	r0, [r4, #120]	; 0x78
20004000:	f000 f9f0 	bl	200043e4 <xosc_init>
20004004:	2201      	movs	r2, #1
20004006:	4b8e      	ldr	r3, [pc, #568]	; (20004240 <clocks_init+0x274>)
20004008:	601a      	str	r2, [r3, #0]
2000400a:	6c63      	ldr	r3, [r4, #68]	; 0x44
2000400c:	2b01      	cmp	r3, #1
2000400e:	d1fc      	bne.n	2000400a <clocks_init+0x3e>
20004010:	2203      	movs	r2, #3
20004012:	4b8c      	ldr	r3, [pc, #560]	; (20004244 <clocks_init+0x278>)
20004014:	601a      	str	r2, [r3, #0]
20004016:	4a89      	ldr	r2, [pc, #548]	; (2000423c <clocks_init+0x270>)
20004018:	6b93      	ldr	r3, [r2, #56]	; 0x38
2000401a:	2b01      	cmp	r3, #1
2000401c:	d1fc      	bne.n	20004018 <clocks_init+0x4c>
2000401e:	3301      	adds	r3, #1
20004020:	2101      	movs	r1, #1
20004022:	4a89      	ldr	r2, [pc, #548]	; (20004248 <clocks_init+0x27c>)
20004024:	4889      	ldr	r0, [pc, #548]	; (2000424c <clocks_init+0x280>)
20004026:	9300      	str	r3, [sp, #0]
20004028:	3304      	adds	r3, #4
2000402a:	f000 f933 	bl	20004294 <pll_init>
2000402e:	2305      	movs	r3, #5
20004030:	4a87      	ldr	r2, [pc, #540]	; (20004250 <clocks_init+0x284>)
20004032:	9300      	str	r3, [sp, #0]
20004034:	2101      	movs	r1, #1
20004036:	4887      	ldr	r0, [pc, #540]	; (20004254 <clocks_init+0x288>)
20004038:	f000 f92c 	bl	20004294 <pll_init>
2000403c:	4b86      	ldr	r3, [pc, #536]	; (20004258 <clocks_init+0x28c>)
2000403e:	685a      	ldr	r2, [r3, #4]
20004040:	2aff      	cmp	r2, #255	; 0xff
20004042:	d802      	bhi.n	2000404a <clocks_init+0x7e>
20004044:	2280      	movs	r2, #128	; 0x80
20004046:	0052      	lsls	r2, r2, #1
20004048:	605a      	str	r2, [r3, #4]
2000404a:	2280      	movs	r2, #128	; 0x80
2000404c:	4c78      	ldr	r4, [pc, #480]	; (20004230 <clocks_init+0x264>)
2000404e:	4b7d      	ldr	r3, [pc, #500]	; (20004244 <clocks_init+0x278>)
20004050:	6921      	ldr	r1, [r4, #16]
20004052:	0112      	lsls	r2, r2, #4
20004054:	4d80      	ldr	r5, [pc, #512]	; (20004258 <clocks_init+0x28c>)
20004056:	601a      	str	r2, [r3, #0]
20004058:	2900      	cmp	r1, #0
2000405a:	d005      	beq.n	20004068 <clocks_init+0x9c>
2000405c:	6960      	ldr	r0, [r4, #20]
2000405e:	f001 fd85 	bl	20005b6c <__wrap___aeabi_uidiv>
20004062:	3001      	adds	r0, #1
20004064:	3801      	subs	r0, #1
20004066:	d1fd      	bne.n	20004064 <clocks_init+0x98>
20004068:	21e0      	movs	r1, #224	; 0xe0
2000406a:	4b7b      	ldr	r3, [pc, #492]	; (20004258 <clocks_init+0x28c>)
2000406c:	2002      	movs	r0, #2
2000406e:	681a      	ldr	r2, [r3, #0]
20004070:	4011      	ands	r1, r2
20004072:	2280      	movs	r2, #128	; 0x80
20004074:	0152      	lsls	r2, r2, #5
20004076:	432a      	orrs	r2, r5
20004078:	6011      	str	r1, [r2, #0]
2000407a:	6819      	ldr	r1, [r3, #0]
2000407c:	4048      	eors	r0, r1
2000407e:	2103      	movs	r1, #3
20004080:	4001      	ands	r1, r0
20004082:	6011      	str	r1, [r2, #0]
20004084:	2104      	movs	r1, #4
20004086:	689a      	ldr	r2, [r3, #8]
20004088:	4211      	tst	r1, r2
2000408a:	d0fc      	beq.n	20004086 <clocks_init+0xba>
2000408c:	2280      	movs	r2, #128	; 0x80
2000408e:	2180      	movs	r1, #128	; 0x80
20004090:	0192      	lsls	r2, r2, #6
20004092:	432a      	orrs	r2, r5
20004094:	0109      	lsls	r1, r1, #4
20004096:	6011      	str	r1, [r2, #0]
20004098:	2280      	movs	r2, #128	; 0x80
2000409a:	0052      	lsls	r2, r2, #1
2000409c:	605a      	str	r2, [r3, #4]
2000409e:	4b6f      	ldr	r3, [pc, #444]	; (2000425c <clocks_init+0x290>)
200040a0:	6123      	str	r3, [r4, #16]
200040a2:	4b6f      	ldr	r3, [pc, #444]	; (20004260 <clocks_init+0x294>)
200040a4:	6859      	ldr	r1, [r3, #4]
200040a6:	29ff      	cmp	r1, #255	; 0xff
200040a8:	d800      	bhi.n	200040ac <clocks_init+0xe0>
200040aa:	605a      	str	r2, [r3, #4]
200040ac:	2203      	movs	r2, #3
200040ae:	486c      	ldr	r0, [pc, #432]	; (20004260 <clocks_init+0x294>)
200040b0:	4b63      	ldr	r3, [pc, #396]	; (20004240 <clocks_init+0x274>)
200040b2:	2101      	movs	r1, #1
200040b4:	601a      	str	r2, [r3, #0]
200040b6:	0002      	movs	r2, r0
200040b8:	6893      	ldr	r3, [r2, #8]
200040ba:	4219      	tst	r1, r3
200040bc:	d0fc      	beq.n	200040b8 <clocks_init+0xec>
200040be:	25e0      	movs	r5, #224	; 0xe0
200040c0:	6813      	ldr	r3, [r2, #0]
200040c2:	401d      	ands	r5, r3
200040c4:	2380      	movs	r3, #128	; 0x80
200040c6:	015b      	lsls	r3, r3, #5
200040c8:	4303      	orrs	r3, r0
200040ca:	601d      	str	r5, [r3, #0]
200040cc:	6812      	ldr	r2, [r2, #0]
200040ce:	404a      	eors	r2, r1
200040d0:	2103      	movs	r1, #3
200040d2:	4011      	ands	r1, r2
200040d4:	6019      	str	r1, [r3, #0]
200040d6:	2102      	movs	r1, #2
200040d8:	4a61      	ldr	r2, [pc, #388]	; (20004260 <clocks_init+0x294>)
200040da:	6893      	ldr	r3, [r2, #8]
200040dc:	4219      	tst	r1, r3
200040de:	d0fc      	beq.n	200040da <clocks_init+0x10e>
200040e0:	2380      	movs	r3, #128	; 0x80
200040e2:	2180      	movs	r1, #128	; 0x80
200040e4:	019b      	lsls	r3, r3, #6
200040e6:	4303      	orrs	r3, r0
200040e8:	0109      	lsls	r1, r1, #4
200040ea:	6019      	str	r1, [r3, #0]
200040ec:	2180      	movs	r1, #128	; 0x80
200040ee:	4b5d      	ldr	r3, [pc, #372]	; (20004264 <clocks_init+0x298>)
200040f0:	0049      	lsls	r1, r1, #1
200040f2:	6051      	str	r1, [r2, #4]
200040f4:	6163      	str	r3, [r4, #20]
200040f6:	4b5c      	ldr	r3, [pc, #368]	; (20004268 <clocks_init+0x29c>)
200040f8:	685a      	ldr	r2, [r3, #4]
200040fa:	2aff      	cmp	r2, #255	; 0xff
200040fc:	d800      	bhi.n	20004100 <clocks_init+0x134>
200040fe:	6059      	str	r1, [r3, #4]
20004100:	2280      	movs	r2, #128	; 0x80
20004102:	4b5a      	ldr	r3, [pc, #360]	; (2000426c <clocks_init+0x2a0>)
20004104:	69e1      	ldr	r1, [r4, #28]
20004106:	0112      	lsls	r2, r2, #4
20004108:	4d57      	ldr	r5, [pc, #348]	; (20004268 <clocks_init+0x29c>)
2000410a:	601a      	str	r2, [r3, #0]
2000410c:	2900      	cmp	r1, #0
2000410e:	d005      	beq.n	2000411c <clocks_init+0x150>
20004110:	6960      	ldr	r0, [r4, #20]
20004112:	f001 fd2b 	bl	20005b6c <__wrap___aeabi_uidiv>
20004116:	3001      	adds	r0, #1
20004118:	3801      	subs	r0, #1
2000411a:	d1fd      	bne.n	20004118 <clocks_init+0x14c>
2000411c:	22e0      	movs	r2, #224	; 0xe0
2000411e:	4952      	ldr	r1, [pc, #328]	; (20004268 <clocks_init+0x29c>)
20004120:	680b      	ldr	r3, [r1, #0]
20004122:	401a      	ands	r2, r3
20004124:	2380      	movs	r3, #128	; 0x80
20004126:	015b      	lsls	r3, r3, #5
20004128:	432b      	orrs	r3, r5
2000412a:	601a      	str	r2, [r3, #0]
2000412c:	2380      	movs	r3, #128	; 0x80
2000412e:	2280      	movs	r2, #128	; 0x80
20004130:	019b      	lsls	r3, r3, #6
20004132:	432b      	orrs	r3, r5
20004134:	0112      	lsls	r2, r2, #4
20004136:	601a      	str	r2, [r3, #0]
20004138:	2280      	movs	r2, #128	; 0x80
2000413a:	4b3e      	ldr	r3, [pc, #248]	; (20004234 <clocks_init+0x268>)
2000413c:	0052      	lsls	r2, r2, #1
2000413e:	604a      	str	r2, [r1, #4]
20004140:	61e3      	str	r3, [r4, #28]
20004142:	4b4b      	ldr	r3, [pc, #300]	; (20004270 <clocks_init+0x2a4>)
20004144:	6859      	ldr	r1, [r3, #4]
20004146:	29ff      	cmp	r1, #255	; 0xff
20004148:	d800      	bhi.n	2000414c <clocks_init+0x180>
2000414a:	605a      	str	r2, [r3, #4]
2000414c:	2280      	movs	r2, #128	; 0x80
2000414e:	4b49      	ldr	r3, [pc, #292]	; (20004274 <clocks_init+0x2a8>)
20004150:	6a21      	ldr	r1, [r4, #32]
20004152:	0112      	lsls	r2, r2, #4
20004154:	4d46      	ldr	r5, [pc, #280]	; (20004270 <clocks_init+0x2a4>)
20004156:	601a      	str	r2, [r3, #0]
20004158:	2900      	cmp	r1, #0
2000415a:	d005      	beq.n	20004168 <clocks_init+0x19c>
2000415c:	6960      	ldr	r0, [r4, #20]
2000415e:	f001 fd05 	bl	20005b6c <__wrap___aeabi_uidiv>
20004162:	3001      	adds	r0, #1
20004164:	3801      	subs	r0, #1
20004166:	d1fd      	bne.n	20004164 <clocks_init+0x198>
20004168:	22e0      	movs	r2, #224	; 0xe0
2000416a:	4941      	ldr	r1, [pc, #260]	; (20004270 <clocks_init+0x2a4>)
2000416c:	680b      	ldr	r3, [r1, #0]
2000416e:	401a      	ands	r2, r3
20004170:	2380      	movs	r3, #128	; 0x80
20004172:	015b      	lsls	r3, r3, #5
20004174:	432b      	orrs	r3, r5
20004176:	601a      	str	r2, [r3, #0]
20004178:	2380      	movs	r3, #128	; 0x80
2000417a:	2280      	movs	r2, #128	; 0x80
2000417c:	019b      	lsls	r3, r3, #6
2000417e:	432b      	orrs	r3, r5
20004180:	0112      	lsls	r2, r2, #4
20004182:	601a      	str	r2, [r3, #0]
20004184:	2380      	movs	r3, #128	; 0x80
20004186:	2280      	movs	r2, #128	; 0x80
20004188:	005b      	lsls	r3, r3, #1
2000418a:	604b      	str	r3, [r1, #4]
2000418c:	4b29      	ldr	r3, [pc, #164]	; (20004234 <clocks_init+0x268>)
2000418e:	02d2      	lsls	r2, r2, #11
20004190:	6223      	str	r3, [r4, #32]
20004192:	4b39      	ldr	r3, [pc, #228]	; (20004278 <clocks_init+0x2ac>)
20004194:	6859      	ldr	r1, [r3, #4]
20004196:	4291      	cmp	r1, r2
20004198:	d200      	bcs.n	2000419c <clocks_init+0x1d0>
2000419a:	605a      	str	r2, [r3, #4]
2000419c:	2280      	movs	r2, #128	; 0x80
2000419e:	4b37      	ldr	r3, [pc, #220]	; (2000427c <clocks_init+0x2b0>)
200041a0:	6a61      	ldr	r1, [r4, #36]	; 0x24
200041a2:	0112      	lsls	r2, r2, #4
200041a4:	4d34      	ldr	r5, [pc, #208]	; (20004278 <clocks_init+0x2ac>)
200041a6:	601a      	str	r2, [r3, #0]
200041a8:	2900      	cmp	r1, #0
200041aa:	d005      	beq.n	200041b8 <clocks_init+0x1ec>
200041ac:	6960      	ldr	r0, [r4, #20]
200041ae:	f001 fcdd 	bl	20005b6c <__wrap___aeabi_uidiv>
200041b2:	3001      	adds	r0, #1
200041b4:	3801      	subs	r0, #1
200041b6:	d1fd      	bne.n	200041b4 <clocks_init+0x1e8>
200041b8:	22e0      	movs	r2, #224	; 0xe0
200041ba:	492f      	ldr	r1, [pc, #188]	; (20004278 <clocks_init+0x2ac>)
200041bc:	680b      	ldr	r3, [r1, #0]
200041be:	401a      	ands	r2, r3
200041c0:	2380      	movs	r3, #128	; 0x80
200041c2:	015b      	lsls	r3, r3, #5
200041c4:	432b      	orrs	r3, r5
200041c6:	601a      	str	r2, [r3, #0]
200041c8:	2380      	movs	r3, #128	; 0x80
200041ca:	2280      	movs	r2, #128	; 0x80
200041cc:	019b      	lsls	r3, r3, #6
200041ce:	432b      	orrs	r3, r5
200041d0:	0112      	lsls	r2, r2, #4
200041d2:	601a      	str	r2, [r3, #0]
200041d4:	2380      	movs	r3, #128	; 0x80
200041d6:	02db      	lsls	r3, r3, #11
200041d8:	604b      	str	r3, [r1, #4]
200041da:	4b17      	ldr	r3, [pc, #92]	; (20004238 <clocks_init+0x26c>)
200041dc:	6263      	str	r3, [r4, #36]	; 0x24
200041de:	4b28      	ldr	r3, [pc, #160]	; (20004280 <clocks_init+0x2b4>)
200041e0:	685a      	ldr	r2, [r3, #4]
200041e2:	2aff      	cmp	r2, #255	; 0xff
200041e4:	d802      	bhi.n	200041ec <clocks_init+0x220>
200041e6:	2280      	movs	r2, #128	; 0x80
200041e8:	0052      	lsls	r2, r2, #1
200041ea:	605a      	str	r2, [r3, #4]
200041ec:	2280      	movs	r2, #128	; 0x80
200041ee:	4b25      	ldr	r3, [pc, #148]	; (20004284 <clocks_init+0x2b8>)
200041f0:	69a1      	ldr	r1, [r4, #24]
200041f2:	0112      	lsls	r2, r2, #4
200041f4:	4d22      	ldr	r5, [pc, #136]	; (20004280 <clocks_init+0x2b4>)
200041f6:	601a      	str	r2, [r3, #0]
200041f8:	2900      	cmp	r1, #0
200041fa:	d005      	beq.n	20004208 <clocks_init+0x23c>
200041fc:	6960      	ldr	r0, [r4, #20]
200041fe:	f001 fcb5 	bl	20005b6c <__wrap___aeabi_uidiv>
20004202:	3001      	adds	r0, #1
20004204:	3801      	subs	r0, #1
20004206:	d1fd      	bne.n	20004204 <clocks_init+0x238>
20004208:	22e0      	movs	r2, #224	; 0xe0
2000420a:	491d      	ldr	r1, [pc, #116]	; (20004280 <clocks_init+0x2b4>)
2000420c:	680b      	ldr	r3, [r1, #0]
2000420e:	401a      	ands	r2, r3
20004210:	2380      	movs	r3, #128	; 0x80
20004212:	015b      	lsls	r3, r3, #5
20004214:	432b      	orrs	r3, r5
20004216:	601a      	str	r2, [r3, #0]
20004218:	2380      	movs	r3, #128	; 0x80
2000421a:	2280      	movs	r2, #128	; 0x80
2000421c:	019b      	lsls	r3, r3, #6
2000421e:	432b      	orrs	r3, r5
20004220:	0112      	lsls	r2, r2, #4
20004222:	601a      	str	r2, [r3, #0]
20004224:	2380      	movs	r3, #128	; 0x80
20004226:	005b      	lsls	r3, r3, #1
20004228:	604b      	str	r3, [r1, #4]
2000422a:	4b0e      	ldr	r3, [pc, #56]	; (20004264 <clocks_init+0x298>)
2000422c:	61a3      	str	r3, [r4, #24]
2000422e:	e6e3      	b.n	20003ff8 <clocks_init+0x2c>
20004230:	2000ce7c 	.word	0x2000ce7c
20004234:	02dc6c00 	.word	0x02dc6c00
20004238:	0000b71b 	.word	0x0000b71b
2000423c:	40008000 	.word	0x40008000
20004240:	4000b03c 	.word	0x4000b03c
20004244:	4000b030 	.word	0x4000b030
20004248:	59682f00 	.word	0x59682f00
2000424c:	40028000 	.word	0x40028000
20004250:	47868c00 	.word	0x47868c00
20004254:	4002c000 	.word	0x4002c000
20004258:	40008030 	.word	0x40008030
2000425c:	00b71b00 	.word	0x00b71b00
20004260:	4000803c 	.word	0x4000803c
20004264:	07735940 	.word	0x07735940
20004268:	40008054 	.word	0x40008054
2000426c:	4000b054 	.word	0x4000b054
20004270:	40008060 	.word	0x40008060
20004274:	4000b060 	.word	0x4000b060
20004278:	4000806c 	.word	0x4000806c
2000427c:	4000b06c 	.word	0x4000b06c
20004280:	40008048 	.word	0x40008048
20004284:	4000b048 	.word	0x4000b048

20004288 <clock_get_hz>:
20004288:	4b01      	ldr	r3, [pc, #4]	; (20004290 <clock_get_hz+0x8>)
2000428a:	0080      	lsls	r0, r0, #2
2000428c:	58c0      	ldr	r0, [r0, r3]
2000428e:	4770      	bx	lr
20004290:	2000ce7c 	.word	0x2000ce7c

20004294 <pll_init>:
20004294:	b5f8      	push	{r3, r4, r5, r6, r7, lr}
20004296:	0004      	movs	r4, r0
20004298:	200c      	movs	r0, #12
2000429a:	0017      	movs	r7, r2
2000429c:	001d      	movs	r5, r3
2000429e:	000e      	movs	r6, r1
200042a0:	f001 fc64 	bl	20005b6c <__wrap___aeabi_uidiv>
200042a4:	0141      	lsls	r1, r0, #5
200042a6:	1a09      	subs	r1, r1, r0
200042a8:	018b      	lsls	r3, r1, #6
200042aa:	1a59      	subs	r1, r3, r1
200042ac:	00c9      	lsls	r1, r1, #3
200042ae:	1809      	adds	r1, r1, r0
200042b0:	0189      	lsls	r1, r1, #6
200042b2:	0038      	movs	r0, r7
200042b4:	f001 fc5a 	bl	20005b6c <__wrap___aeabi_uidiv>
200042b8:	9a06      	ldr	r2, [sp, #24]
200042ba:	042b      	lsls	r3, r5, #16
200042bc:	0312      	lsls	r2, r2, #12
200042be:	4313      	orrs	r3, r2
200042c0:	6822      	ldr	r2, [r4, #0]
200042c2:	2a00      	cmp	r2, #0
200042c4:	db21      	blt.n	2000430a <pll_init+0x76>
200042c6:	4a19      	ldr	r2, [pc, #100]	; (2000432c <pll_init+0x98>)
200042c8:	18a2      	adds	r2, r4, r2
200042ca:	4251      	negs	r1, r2
200042cc:	414a      	adcs	r2, r1
200042ce:	2180      	movs	r1, #128	; 0x80
200042d0:	0149      	lsls	r1, r1, #5
200042d2:	468c      	mov	ip, r1
200042d4:	4252      	negs	r2, r2
200042d6:	400a      	ands	r2, r1
200042d8:	4915      	ldr	r1, [pc, #84]	; (20004330 <pll_init+0x9c>)
200042da:	4462      	add	r2, ip
200042dc:	600a      	str	r2, [r1, #0]
200042de:	4915      	ldr	r1, [pc, #84]	; (20004334 <pll_init+0xa0>)
200042e0:	600a      	str	r2, [r1, #0]
200042e2:	4915      	ldr	r1, [pc, #84]	; (20004338 <pll_init+0xa4>)
200042e4:	0017      	movs	r7, r2
200042e6:	688d      	ldr	r5, [r1, #8]
200042e8:	43af      	bics	r7, r5
200042ea:	d1fb      	bne.n	200042e4 <pll_init+0x50>
200042ec:	21c0      	movs	r1, #192	; 0xc0
200042ee:	1d22      	adds	r2, r4, #4
200042f0:	0189      	lsls	r1, r1, #6
200042f2:	4311      	orrs	r1, r2
200042f4:	2221      	movs	r2, #33	; 0x21
200042f6:	6026      	str	r6, [r4, #0]
200042f8:	60a0      	str	r0, [r4, #8]
200042fa:	600a      	str	r2, [r1, #0]
200042fc:	6822      	ldr	r2, [r4, #0]
200042fe:	2a00      	cmp	r2, #0
20004300:	dafc      	bge.n	200042fc <pll_init+0x68>
20004302:	60e3      	str	r3, [r4, #12]
20004304:	2308      	movs	r3, #8
20004306:	600b      	str	r3, [r1, #0]
20004308:	bdf8      	pop	{r3, r4, r5, r6, r7, pc}
2000430a:	223f      	movs	r2, #63	; 0x3f
2000430c:	6821      	ldr	r1, [r4, #0]
2000430e:	400a      	ands	r2, r1
20004310:	42b2      	cmp	r2, r6
20004312:	d1d8      	bne.n	200042c6 <pll_init+0x32>
20004314:	68a2      	ldr	r2, [r4, #8]
20004316:	0512      	lsls	r2, r2, #20
20004318:	0d12      	lsrs	r2, r2, #20
2000431a:	4282      	cmp	r2, r0
2000431c:	d1d3      	bne.n	200042c6 <pll_init+0x32>
2000431e:	21ee      	movs	r1, #238	; 0xee
20004320:	68e2      	ldr	r2, [r4, #12]
20004322:	02c9      	lsls	r1, r1, #11
20004324:	400a      	ands	r2, r1
20004326:	429a      	cmp	r2, r3
20004328:	d1cd      	bne.n	200042c6 <pll_init+0x32>
2000432a:	e7ed      	b.n	20004308 <pll_init+0x74>
2000432c:	bffd4000 	.word	0xbffd4000
20004330:	4000e000 	.word	0x4000e000
20004334:	4000f000 	.word	0x4000f000
20004338:	4000c000 	.word	0x4000c000

2000433c <watchdog_start_tick>:
2000433c:	2380      	movs	r3, #128	; 0x80
2000433e:	4a02      	ldr	r2, [pc, #8]	; (20004348 <watchdog_start_tick+0xc>)
20004340:	009b      	lsls	r3, r3, #2
20004342:	4303      	orrs	r3, r0
20004344:	62d3      	str	r3, [r2, #44]	; 0x2c
20004346:	4770      	bx	lr
20004348:	40058000 	.word	0x40058000

2000434c <watchdog_reboot>:
2000434c:	b510      	push	{r4, lr}
2000434e:	0014      	movs	r4, r2
20004350:	2280      	movs	r2, #128	; 0x80
20004352:	4b1b      	ldr	r3, [pc, #108]	; (200043c0 <watchdog_reboot+0x74>)
20004354:	05d2      	lsls	r2, r2, #23
20004356:	601a      	str	r2, [r3, #0]
20004358:	2800      	cmp	r0, #0
2000435a:	d01a      	beq.n	20004392 <watchdog_reboot+0x46>
2000435c:	2301      	movs	r3, #1
2000435e:	4a19      	ldr	r2, [pc, #100]	; (200043c4 <watchdog_reboot+0x78>)
20004360:	4318      	orrs	r0, r3
20004362:	4b19      	ldr	r3, [pc, #100]	; (200043c8 <watchdog_reboot+0x7c>)
20004364:	61da      	str	r2, [r3, #28]
20004366:	4a19      	ldr	r2, [pc, #100]	; (200043cc <watchdog_reboot+0x80>)
20004368:	4042      	eors	r2, r0
2000436a:	621a      	str	r2, [r3, #32]
2000436c:	6259      	str	r1, [r3, #36]	; 0x24
2000436e:	6298      	str	r0, [r3, #40]	; 0x28
20004370:	2280      	movs	r2, #128	; 0x80
20004372:	4b13      	ldr	r3, [pc, #76]	; (200043c0 <watchdog_reboot+0x74>)
20004374:	05d2      	lsls	r2, r2, #23
20004376:	601a      	str	r2, [r3, #0]
20004378:	4915      	ldr	r1, [pc, #84]	; (200043d0 <watchdog_reboot+0x84>)
2000437a:	4a16      	ldr	r2, [pc, #88]	; (200043d4 <watchdog_reboot+0x88>)
2000437c:	6011      	str	r1, [r2, #0]
2000437e:	22e0      	movs	r2, #224	; 0xe0
20004380:	04d2      	lsls	r2, r2, #19
20004382:	601a      	str	r2, [r3, #0]
20004384:	2c00      	cmp	r4, #0
20004386:	d107      	bne.n	20004398 <watchdog_reboot+0x4c>
20004388:	2280      	movs	r2, #128	; 0x80
2000438a:	4b13      	ldr	r3, [pc, #76]	; (200043d8 <watchdog_reboot+0x8c>)
2000438c:	0612      	lsls	r2, r2, #24
2000438e:	601a      	str	r2, [r3, #0]
20004390:	bd10      	pop	{r4, pc}
20004392:	4b0d      	ldr	r3, [pc, #52]	; (200043c8 <watchdog_reboot+0x7c>)
20004394:	61d8      	str	r0, [r3, #28]
20004396:	e7eb      	b.n	20004370 <watchdog_reboot+0x24>
20004398:	2380      	movs	r3, #128	; 0x80
2000439a:	0162      	lsls	r2, r4, #5
2000439c:	1b12      	subs	r2, r2, r4
2000439e:	0092      	lsls	r2, r2, #2
200043a0:	1912      	adds	r2, r2, r4
200043a2:	0112      	lsls	r2, r2, #4
200043a4:	045b      	lsls	r3, r3, #17
200043a6:	429a      	cmp	r2, r3
200043a8:	d300      	bcc.n	200043ac <watchdog_reboot+0x60>
200043aa:	4a0c      	ldr	r2, [pc, #48]	; (200043dc <watchdog_reboot+0x90>)
200043ac:	4b0c      	ldr	r3, [pc, #48]	; (200043e0 <watchdog_reboot+0x94>)
200043ae:	601a      	str	r2, [r3, #0]
200043b0:	4b05      	ldr	r3, [pc, #20]	; (200043c8 <watchdog_reboot+0x7c>)
200043b2:	605a      	str	r2, [r3, #4]
200043b4:	2280      	movs	r2, #128	; 0x80
200043b6:	4b08      	ldr	r3, [pc, #32]	; (200043d8 <watchdog_reboot+0x8c>)
200043b8:	05d2      	lsls	r2, r2, #23
200043ba:	601a      	str	r2, [r3, #0]
200043bc:	e7e8      	b.n	20004390 <watchdog_reboot+0x44>
200043be:	46c0      	nop			; (mov r8, r8)
200043c0:	4005b000 	.word	0x4005b000
200043c4:	b007c0d3 	.word	0xb007c0d3
200043c8:	40058000 	.word	0x40058000
200043cc:	4ff83f2d 	.word	0x4ff83f2d
200043d0:	0001fffc 	.word	0x0001fffc
200043d4:	40012008 	.word	0x40012008
200043d8:	4005a000 	.word	0x4005a000
200043dc:	00ffffff 	.word	0x00ffffff
200043e0:	2000d330 	.word	0x2000d330

200043e4 <xosc_init>:
200043e4:	23aa      	movs	r3, #170	; 0xaa
200043e6:	4a06      	ldr	r2, [pc, #24]	; (20004400 <xosc_init+0x1c>)
200043e8:	011b      	lsls	r3, r3, #4
200043ea:	6013      	str	r3, [r2, #0]
200043ec:	232f      	movs	r3, #47	; 0x2f
200043ee:	4905      	ldr	r1, [pc, #20]	; (20004404 <xosc_init+0x20>)
200043f0:	60d3      	str	r3, [r2, #12]
200043f2:	4b05      	ldr	r3, [pc, #20]	; (20004408 <xosc_init+0x24>)
200043f4:	6019      	str	r1, [r3, #0]
200043f6:	6853      	ldr	r3, [r2, #4]
200043f8:	2b00      	cmp	r3, #0
200043fa:	dafc      	bge.n	200043f6 <xosc_init+0x12>
200043fc:	4770      	bx	lr
200043fe:	46c0      	nop			; (mov r8, r8)
20004400:	40024000 	.word	0x40024000
20004404:	00fab000 	.word	0x00fab000
20004408:	40026000 	.word	0x40026000

2000440c <_out_buffer>:
2000440c:	429a      	cmp	r2, r3
2000440e:	d200      	bcs.n	20004412 <_out_buffer+0x6>
20004410:	5488      	strb	r0, [r1, r2]
20004412:	4770      	bx	lr

20004414 <_out_null>:
20004414:	4770      	bx	lr
20004416:	46c0      	nop			; (mov r8, r8)

20004418 <_out_rev>:
20004418:	b5f8      	push	{r3, r4, r5, r6, r7, lr}
2000441a:	4657      	mov	r7, sl
2000441c:	464e      	mov	r6, r9
2000441e:	46de      	mov	lr, fp
20004420:	4645      	mov	r5, r8
20004422:	b5e0      	push	{r5, r6, r7, lr}
20004424:	001f      	movs	r7, r3
20004426:	9b0a      	ldr	r3, [sp, #40]	; 0x28
20004428:	0005      	movs	r5, r0
2000442a:	469b      	mov	fp, r3
2000442c:	9b0d      	ldr	r3, [sp, #52]	; 0x34
2000442e:	000e      	movs	r6, r1
20004430:	4691      	mov	r9, r2
20004432:	4692      	mov	sl, r2
20004434:	079b      	lsls	r3, r3, #30
20004436:	d118      	bne.n	2000446a <_out_rev+0x52>
20004438:	9b0b      	ldr	r3, [sp, #44]	; 0x2c
2000443a:	9a0c      	ldr	r2, [sp, #48]	; 0x30
2000443c:	4293      	cmp	r3, r2
2000443e:	d214      	bcs.n	2000446a <_out_rev+0x52>
20004440:	0013      	movs	r3, r2
20004442:	9a0b      	ldr	r2, [sp, #44]	; 0x2c
20004444:	46b8      	mov	r8, r7
20004446:	1a9b      	subs	r3, r3, r2
20004448:	444b      	add	r3, r9
2000444a:	464c      	mov	r4, r9
2000444c:	000f      	movs	r7, r1
2000444e:	0006      	movs	r6, r0
20004450:	001d      	movs	r5, r3
20004452:	0022      	movs	r2, r4
20004454:	4643      	mov	r3, r8
20004456:	3401      	adds	r4, #1
20004458:	0039      	movs	r1, r7
2000445a:	2020      	movs	r0, #32
2000445c:	47b0      	blx	r6
2000445e:	42ac      	cmp	r4, r5
20004460:	d1f7      	bne.n	20004452 <_out_rev+0x3a>
20004462:	46aa      	mov	sl, r5
20004464:	0035      	movs	r5, r6
20004466:	003e      	movs	r6, r7
20004468:	4647      	mov	r7, r8
2000446a:	9b0b      	ldr	r3, [sp, #44]	; 0x2c
2000446c:	2b00      	cmp	r3, #0
2000446e:	d038      	beq.n	200044e2 <_out_rev+0xca>
20004470:	449a      	add	sl, r3
20004472:	001c      	movs	r4, r3
20004474:	46d0      	mov	r8, sl
20004476:	4653      	mov	r3, sl
20004478:	1b1a      	subs	r2, r3, r4
2000447a:	465b      	mov	r3, fp
2000447c:	3c01      	subs	r4, #1
2000447e:	5d18      	ldrb	r0, [r3, r4]
20004480:	0031      	movs	r1, r6
20004482:	003b      	movs	r3, r7
20004484:	47a8      	blx	r5
20004486:	2c00      	cmp	r4, #0
20004488:	d1f5      	bne.n	20004476 <_out_rev+0x5e>
2000448a:	9b0d      	ldr	r3, [sp, #52]	; 0x34
2000448c:	079b      	lsls	r3, r3, #30
2000448e:	d521      	bpl.n	200044d4 <_out_rev+0xbc>
20004490:	4643      	mov	r3, r8
20004492:	464a      	mov	r2, r9
20004494:	1a9c      	subs	r4, r3, r2
20004496:	9b0c      	ldr	r3, [sp, #48]	; 0x30
20004498:	42a3      	cmp	r3, r4
2000449a:	d91b      	bls.n	200044d4 <_out_rev+0xbc>
2000449c:	003a      	movs	r2, r7
2000449e:	469a      	mov	sl, r3
200044a0:	464f      	mov	r7, r9
200044a2:	4691      	mov	r9, r2
200044a4:	19e2      	adds	r2, r4, r7
200044a6:	464b      	mov	r3, r9
200044a8:	0031      	movs	r1, r6
200044aa:	2020      	movs	r0, #32
200044ac:	3401      	adds	r4, #1
200044ae:	47a8      	blx	r5
200044b0:	4554      	cmp	r4, sl
200044b2:	d3f7      	bcc.n	200044a4 <_out_rev+0x8c>
200044b4:	4643      	mov	r3, r8
200044b6:	990c      	ldr	r1, [sp, #48]	; 0x30
200044b8:	1bdb      	subs	r3, r3, r7
200044ba:	3301      	adds	r3, #1
200044bc:	46b9      	mov	r9, r7
200044be:	2200      	movs	r2, #0
200044c0:	4299      	cmp	r1, r3
200044c2:	d303      	bcc.n	200044cc <_out_rev+0xb4>
200044c4:	4643      	mov	r3, r8
200044c6:	1e4a      	subs	r2, r1, #1
200044c8:	444a      	add	r2, r9
200044ca:	1ad2      	subs	r2, r2, r3
200044cc:	4643      	mov	r3, r8
200044ce:	4690      	mov	r8, r2
200044d0:	3301      	adds	r3, #1
200044d2:	4498      	add	r8, r3
200044d4:	4640      	mov	r0, r8
200044d6:	bc3c      	pop	{r2, r3, r4, r5}
200044d8:	4690      	mov	r8, r2
200044da:	4699      	mov	r9, r3
200044dc:	46a2      	mov	sl, r4
200044de:	46ab      	mov	fp, r5
200044e0:	bdf8      	pop	{r3, r4, r5, r6, r7, pc}
200044e2:	46d0      	mov	r8, sl
200044e4:	e7d1      	b.n	2000448a <_out_rev+0x72>
200044e6:	46c0      	nop			; (mov r8, r8)

200044e8 <_ntoa_format>:
200044e8:	b5f0      	push	{r4, r5, r6, r7, lr}
200044ea:	464f      	mov	r7, r9
200044ec:	4646      	mov	r6, r8
200044ee:	46d6      	mov	lr, sl
200044f0:	b5c0      	push	{r6, r7, lr}
200044f2:	b084      	sub	sp, #16
200044f4:	4698      	mov	r8, r3
200044f6:	ab0e      	add	r3, sp, #56	; 0x38
200044f8:	781b      	ldrb	r3, [r3, #0]
200044fa:	9f12      	ldr	r7, [sp, #72]	; 0x48
200044fc:	4699      	mov	r9, r3
200044fe:	4694      	mov	ip, r2
20004500:	9c0d      	ldr	r4, [sp, #52]	; 0x34
20004502:	9b10      	ldr	r3, [sp, #64]	; 0x40
20004504:	9e11      	ldr	r6, [sp, #68]	; 0x44
20004506:	07ba      	lsls	r2, r7, #30
20004508:	d425      	bmi.n	20004556 <_ntoa_format+0x6e>
2000450a:	2e00      	cmp	r6, #0
2000450c:	d169      	bne.n	200045e2 <_ntoa_format+0xfa>
2000450e:	429c      	cmp	r4, r3
20004510:	d300      	bcc.n	20004514 <_ntoa_format+0x2c>
20004512:	e0c2      	b.n	2000469a <_ntoa_format+0x1b2>
20004514:	2201      	movs	r2, #1
20004516:	403a      	ands	r2, r7
20004518:	4692      	mov	sl, r2
2000451a:	2c1f      	cmp	r4, #31
2000451c:	d900      	bls.n	20004520 <_ntoa_format+0x38>
2000451e:	e0bb      	b.n	20004698 <_ntoa_format+0x1b0>
20004520:	9a0c      	ldr	r2, [sp, #48]	; 0x30
20004522:	1e55      	subs	r5, r2, #1
20004524:	2230      	movs	r2, #48	; 0x30
20004526:	e001      	b.n	2000452c <_ntoa_format+0x44>
20004528:	2c20      	cmp	r4, #32
2000452a:	d003      	beq.n	20004534 <_ntoa_format+0x4c>
2000452c:	3401      	adds	r4, #1
2000452e:	552a      	strb	r2, [r5, r4]
20004530:	42a3      	cmp	r3, r4
20004532:	d8f9      	bhi.n	20004528 <_ntoa_format+0x40>
20004534:	4652      	mov	r2, sl
20004536:	2a00      	cmp	r2, #0
20004538:	d00d      	beq.n	20004556 <_ntoa_format+0x6e>
2000453a:	42b4      	cmp	r4, r6
2000453c:	d20b      	bcs.n	20004556 <_ntoa_format+0x6e>
2000453e:	2c1f      	cmp	r4, #31
20004540:	d862      	bhi.n	20004608 <_ntoa_format+0x120>
20004542:	9a0c      	ldr	r2, [sp, #48]	; 0x30
20004544:	1e55      	subs	r5, r2, #1
20004546:	2230      	movs	r2, #48	; 0x30
20004548:	e001      	b.n	2000454e <_ntoa_format+0x66>
2000454a:	2c20      	cmp	r4, #32
2000454c:	d05c      	beq.n	20004608 <_ntoa_format+0x120>
2000454e:	3401      	adds	r4, #1
20004550:	552a      	strb	r2, [r5, r4]
20004552:	42b4      	cmp	r4, r6
20004554:	d1f9      	bne.n	2000454a <_ntoa_format+0x62>
20004556:	06fa      	lsls	r2, r7, #27
20004558:	d535      	bpl.n	200045c6 <_ntoa_format+0xde>
2000455a:	057a      	lsls	r2, r7, #21
2000455c:	d45d      	bmi.n	2000461a <_ntoa_format+0x132>
2000455e:	2c00      	cmp	r4, #0
20004560:	d157      	bne.n	20004612 <_ntoa_format+0x12a>
20004562:	9b0f      	ldr	r3, [sp, #60]	; 0x3c
20004564:	2b10      	cmp	r3, #16
20004566:	d100      	bne.n	2000456a <_ntoa_format+0x82>
20004568:	e07c      	b.n	20004664 <_ntoa_format+0x17c>
2000456a:	9b0f      	ldr	r3, [sp, #60]	; 0x3c
2000456c:	2b02      	cmp	r3, #2
2000456e:	d100      	bne.n	20004572 <_ntoa_format+0x8a>
20004570:	e08d      	b.n	2000468e <_ntoa_format+0x1a6>
20004572:	2330      	movs	r3, #48	; 0x30
20004574:	9a0c      	ldr	r2, [sp, #48]	; 0x30
20004576:	2401      	movs	r4, #1
20004578:	7013      	strb	r3, [r2, #0]
2000457a:	464b      	mov	r3, r9
2000457c:	2b00      	cmp	r3, #0
2000457e:	d027      	beq.n	200045d0 <_ntoa_format+0xe8>
20004580:	232d      	movs	r3, #45	; 0x2d
20004582:	9a0c      	ldr	r2, [sp, #48]	; 0x30
20004584:	5513      	strb	r3, [r2, r4]
20004586:	3401      	adds	r4, #1
20004588:	9b0c      	ldr	r3, [sp, #48]	; 0x30
2000458a:	4662      	mov	r2, ip
2000458c:	9300      	str	r3, [sp, #0]
2000458e:	9703      	str	r7, [sp, #12]
20004590:	4643      	mov	r3, r8
20004592:	9602      	str	r6, [sp, #8]
20004594:	9401      	str	r4, [sp, #4]
20004596:	f7ff ff3f 	bl	20004418 <_out_rev>
2000459a:	b004      	add	sp, #16
2000459c:	bc1c      	pop	{r2, r3, r4}
2000459e:	4690      	mov	r8, r2
200045a0:	4699      	mov	r9, r3
200045a2:	46a2      	mov	sl, r4
200045a4:	bdf0      	pop	{r4, r5, r6, r7, pc}
200045a6:	06bb      	lsls	r3, r7, #26
200045a8:	d463      	bmi.n	20004672 <_ntoa_format+0x18a>
200045aa:	2c20      	cmp	r4, #32
200045ac:	d0ec      	beq.n	20004588 <_ntoa_format+0xa0>
200045ae:	9b0c      	ldr	r3, [sp, #48]	; 0x30
200045b0:	191a      	adds	r2, r3, r4
200045b2:	3401      	adds	r4, #1
200045b4:	2378      	movs	r3, #120	; 0x78
200045b6:	7013      	strb	r3, [r2, #0]
200045b8:	2c20      	cmp	r4, #32
200045ba:	d0e5      	beq.n	20004588 <_ntoa_format+0xa0>
200045bc:	2230      	movs	r2, #48	; 0x30
200045be:	9b0c      	ldr	r3, [sp, #48]	; 0x30
200045c0:	191b      	adds	r3, r3, r4
200045c2:	701a      	strb	r2, [r3, #0]
200045c4:	3401      	adds	r4, #1
200045c6:	2c20      	cmp	r4, #32
200045c8:	d0de      	beq.n	20004588 <_ntoa_format+0xa0>
200045ca:	464b      	mov	r3, r9
200045cc:	2b00      	cmp	r3, #0
200045ce:	d1d7      	bne.n	20004580 <_ntoa_format+0x98>
200045d0:	077b      	lsls	r3, r7, #29
200045d2:	d435      	bmi.n	20004640 <_ntoa_format+0x158>
200045d4:	073b      	lsls	r3, r7, #28
200045d6:	d5d7      	bpl.n	20004588 <_ntoa_format+0xa0>
200045d8:	2320      	movs	r3, #32
200045da:	9a0c      	ldr	r2, [sp, #48]	; 0x30
200045dc:	5513      	strb	r3, [r2, r4]
200045de:	3401      	adds	r4, #1
200045e0:	e7d2      	b.n	20004588 <_ntoa_format+0xa0>
200045e2:	2201      	movs	r2, #1
200045e4:	0015      	movs	r5, r2
200045e6:	403d      	ands	r5, r7
200045e8:	46aa      	mov	sl, r5
200045ea:	423a      	tst	r2, r7
200045ec:	d020      	beq.n	20004630 <_ntoa_format+0x148>
200045ee:	464a      	mov	r2, r9
200045f0:	2a00      	cmp	r2, #0
200045f2:	d12a      	bne.n	2000464a <_ntoa_format+0x162>
200045f4:	320c      	adds	r2, #12
200045f6:	423a      	tst	r2, r7
200045f8:	d127      	bne.n	2000464a <_ntoa_format+0x162>
200045fa:	429c      	cmp	r4, r3
200045fc:	d29d      	bcs.n	2000453a <_ntoa_format+0x52>
200045fe:	2c1f      	cmp	r4, #31
20004600:	d800      	bhi.n	20004604 <_ntoa_format+0x11c>
20004602:	e78d      	b.n	20004520 <_ntoa_format+0x38>
20004604:	2e20      	cmp	r6, #32
20004606:	d919      	bls.n	2000463c <_ntoa_format+0x154>
20004608:	2420      	movs	r4, #32
2000460a:	06fa      	lsls	r2, r7, #27
2000460c:	d5bc      	bpl.n	20004588 <_ntoa_format+0xa0>
2000460e:	057a      	lsls	r2, r7, #21
20004610:	d403      	bmi.n	2000461a <_ntoa_format+0x132>
20004612:	42a3      	cmp	r3, r4
20004614:	d01b      	beq.n	2000464e <_ntoa_format+0x166>
20004616:	42a6      	cmp	r6, r4
20004618:	d019      	beq.n	2000464e <_ntoa_format+0x166>
2000461a:	9b0f      	ldr	r3, [sp, #60]	; 0x3c
2000461c:	2b10      	cmp	r3, #16
2000461e:	d0c2      	beq.n	200045a6 <_ntoa_format+0xbe>
20004620:	2b02      	cmp	r3, #2
20004622:	d1c9      	bne.n	200045b8 <_ntoa_format+0xd0>
20004624:	2c20      	cmp	r4, #32
20004626:	d0af      	beq.n	20004588 <_ntoa_format+0xa0>
20004628:	9b0c      	ldr	r3, [sp, #48]	; 0x30
2000462a:	191b      	adds	r3, r3, r4
2000462c:	3401      	adds	r4, #1
2000462e:	e040      	b.n	200046b2 <_ntoa_format+0x1ca>
20004630:	429c      	cmp	r4, r3
20004632:	d300      	bcc.n	20004636 <_ntoa_format+0x14e>
20004634:	e78f      	b.n	20004556 <_ntoa_format+0x6e>
20004636:	2c1f      	cmp	r4, #31
20004638:	d800      	bhi.n	2000463c <_ntoa_format+0x154>
2000463a:	e771      	b.n	20004520 <_ntoa_format+0x38>
2000463c:	2420      	movs	r4, #32
2000463e:	e78a      	b.n	20004556 <_ntoa_format+0x6e>
20004640:	232b      	movs	r3, #43	; 0x2b
20004642:	9a0c      	ldr	r2, [sp, #48]	; 0x30
20004644:	5513      	strb	r3, [r2, r4]
20004646:	3401      	adds	r4, #1
20004648:	e79e      	b.n	20004588 <_ntoa_format+0xa0>
2000464a:	3e01      	subs	r6, #1
2000464c:	e7d5      	b.n	200045fa <_ntoa_format+0x112>
2000464e:	1e63      	subs	r3, r4, #1
20004650:	2c01      	cmp	r4, #1
20004652:	d100      	bne.n	20004656 <_ntoa_format+0x16e>
20004654:	e785      	b.n	20004562 <_ntoa_format+0x7a>
20004656:	9a0f      	ldr	r2, [sp, #60]	; 0x3c
20004658:	2a10      	cmp	r2, #16
2000465a:	d020      	beq.n	2000469e <_ntoa_format+0x1b6>
2000465c:	2a02      	cmp	r2, #2
2000465e:	d025      	beq.n	200046ac <_ntoa_format+0x1c4>
20004660:	001c      	movs	r4, r3
20004662:	e7ab      	b.n	200045bc <_ntoa_format+0xd4>
20004664:	06bb      	lsls	r3, r7, #26
20004666:	d40d      	bmi.n	20004684 <_ntoa_format+0x19c>
20004668:	2378      	movs	r3, #120	; 0x78
2000466a:	9a0c      	ldr	r2, [sp, #48]	; 0x30
2000466c:	2401      	movs	r4, #1
2000466e:	7013      	strb	r3, [r2, #0]
20004670:	e7a4      	b.n	200045bc <_ntoa_format+0xd4>
20004672:	2c20      	cmp	r4, #32
20004674:	d100      	bne.n	20004678 <_ntoa_format+0x190>
20004676:	e787      	b.n	20004588 <_ntoa_format+0xa0>
20004678:	2258      	movs	r2, #88	; 0x58
2000467a:	9b0c      	ldr	r3, [sp, #48]	; 0x30
2000467c:	191b      	adds	r3, r3, r4
2000467e:	701a      	strb	r2, [r3, #0]
20004680:	3401      	adds	r4, #1
20004682:	e799      	b.n	200045b8 <_ntoa_format+0xd0>
20004684:	2358      	movs	r3, #88	; 0x58
20004686:	9a0c      	ldr	r2, [sp, #48]	; 0x30
20004688:	2401      	movs	r4, #1
2000468a:	7013      	strb	r3, [r2, #0]
2000468c:	e796      	b.n	200045bc <_ntoa_format+0xd4>
2000468e:	9a0c      	ldr	r2, [sp, #48]	; 0x30
20004690:	3360      	adds	r3, #96	; 0x60
20004692:	2401      	movs	r4, #1
20004694:	7013      	strb	r3, [r2, #0]
20004696:	e791      	b.n	200045bc <_ntoa_format+0xd4>
20004698:	2420      	movs	r4, #32
2000469a:	2600      	movs	r6, #0
2000469c:	e75b      	b.n	20004556 <_ntoa_format+0x6e>
2000469e:	3c02      	subs	r4, #2
200046a0:	06ba      	lsls	r2, r7, #26
200046a2:	d4e9      	bmi.n	20004678 <_ntoa_format+0x190>
200046a4:	9a0c      	ldr	r2, [sp, #48]	; 0x30
200046a6:	1912      	adds	r2, r2, r4
200046a8:	001c      	movs	r4, r3
200046aa:	e783      	b.n	200045b4 <_ntoa_format+0xcc>
200046ac:	9a0c      	ldr	r2, [sp, #48]	; 0x30
200046ae:	4692      	mov	sl, r2
200046b0:	4453      	add	r3, sl
200046b2:	2262      	movs	r2, #98	; 0x62
200046b4:	701a      	strb	r2, [r3, #0]
200046b6:	e77f      	b.n	200045b8 <_ntoa_format+0xd0>

200046b8 <_out_char>:
200046b8:	b510      	push	{r4, lr}
200046ba:	2800      	cmp	r0, #0
200046bc:	d100      	bne.n	200046c0 <_out_char+0x8>
200046be:	bd10      	pop	{r4, pc}
200046c0:	f003 f928 	bl	20007914 <__wrap_putchar>
200046c4:	e7fb      	b.n	200046be <_out_char+0x6>
200046c6:	46c0      	nop			; (mov r8, r8)

200046c8 <_out_fct>:
200046c8:	000b      	movs	r3, r1
200046ca:	b510      	push	{r4, lr}
200046cc:	2800      	cmp	r0, #0
200046ce:	d002      	beq.n	200046d6 <_out_fct+0xe>
200046d0:	6849      	ldr	r1, [r1, #4]
200046d2:	681b      	ldr	r3, [r3, #0]
200046d4:	4798      	blx	r3
200046d6:	bd10      	pop	{r4, pc}

200046d8 <_etoa>:
200046d8:	b5f0      	push	{r4, r5, r6, r7, lr}
200046da:	46de      	mov	lr, fp
200046dc:	4657      	mov	r7, sl
200046de:	4645      	mov	r5, r8
200046e0:	464e      	mov	r6, r9
200046e2:	b5e0      	push	{r5, r6, r7, lr}
200046e4:	b09b      	sub	sp, #108	; 0x6c
200046e6:	469b      	mov	fp, r3
200046e8:	9b24      	ldr	r3, [sp, #144]	; 0x90
200046ea:	900a      	str	r0, [sp, #40]	; 0x28
200046ec:	4698      	mov	r8, r3
200046ee:	9b25      	ldr	r3, [sp, #148]	; 0x94
200046f0:	910b      	str	r1, [sp, #44]	; 0x2c
200046f2:	920c      	str	r2, [sp, #48]	; 0x30
200046f4:	4640      	mov	r0, r8
200046f6:	4642      	mov	r2, r8
200046f8:	0019      	movs	r1, r3
200046fa:	469a      	mov	sl, r3
200046fc:	f001 fd0f 	bl	2000611e <__wrap___aeabi_dcmpun>
20004700:	2800      	cmp	r0, #0
20004702:	d000      	beq.n	20004706 <_etoa+0x2e>
20004704:	e0e8      	b.n	200048d8 <_etoa+0x200>
20004706:	2201      	movs	r2, #1
20004708:	4640      	mov	r0, r8
2000470a:	4651      	mov	r1, sl
2000470c:	4b7f      	ldr	r3, [pc, #508]	; (2000490c <_etoa+0x234>)
2000470e:	4252      	negs	r2, r2
20004710:	f001 fd00 	bl	20006114 <__wrap___aeabi_dcmpgt>
20004714:	2800      	cmp	r0, #0
20004716:	d000      	beq.n	2000471a <_etoa+0x42>
20004718:	e0de      	b.n	200048d8 <_etoa+0x200>
2000471a:	2201      	movs	r2, #1
2000471c:	4640      	mov	r0, r8
2000471e:	4651      	mov	r1, sl
20004720:	4b7b      	ldr	r3, [pc, #492]	; (20004910 <_etoa+0x238>)
20004722:	4252      	negs	r2, r2
20004724:	f001 fce0 	bl	200060e8 <__wrap___aeabi_dcmplt>
20004728:	2800      	cmp	r0, #0
2000472a:	d000      	beq.n	2000472e <_etoa+0x56>
2000472c:	e0d4      	b.n	200048d8 <_etoa+0x200>
2000472e:	2200      	movs	r2, #0
20004730:	2300      	movs	r3, #0
20004732:	4640      	mov	r0, r8
20004734:	4651      	mov	r1, sl
20004736:	f001 fcd7 	bl	200060e8 <__wrap___aeabi_dcmplt>
2000473a:	2800      	cmp	r0, #0
2000473c:	d000      	beq.n	20004740 <_etoa+0x68>
2000473e:	e1ca      	b.n	20004ad6 <_etoa+0x3fe>
20004740:	4653      	mov	r3, sl
20004742:	46c1      	mov	r9, r8
20004744:	9309      	str	r3, [sp, #36]	; 0x24
20004746:	2380      	movs	r3, #128	; 0x80
20004748:	9a28      	ldr	r2, [sp, #160]	; 0xa0
2000474a:	00db      	lsls	r3, r3, #3
2000474c:	401a      	ands	r2, r3
2000474e:	920e      	str	r2, [sp, #56]	; 0x38
20004750:	9a28      	ldr	r2, [sp, #160]	; 0xa0
20004752:	421a      	tst	r2, r3
20004754:	d101      	bne.n	2000475a <_etoa+0x82>
20004756:	2306      	movs	r3, #6
20004758:	9326      	str	r3, [sp, #152]	; 0x98
2000475a:	464c      	mov	r4, r9
2000475c:	9b09      	ldr	r3, [sp, #36]	; 0x24
2000475e:	4323      	orrs	r3, r4
20004760:	d000      	beq.n	20004764 <_etoa+0x8c>
20004762:	e0d9      	b.n	20004918 <_etoa+0x240>
20004764:	9b28      	ldr	r3, [sp, #160]	; 0xa0
20004766:	2600      	movs	r6, #0
20004768:	2700      	movs	r7, #0
2000476a:	051b      	lsls	r3, r3, #20
2000476c:	d400      	bmi.n	20004770 <_etoa+0x98>
2000476e:	e1ae      	b.n	20004ace <_etoa+0x3f6>
20004770:	2300      	movs	r3, #0
20004772:	930d      	str	r3, [sp, #52]	; 0x34
20004774:	9b26      	ldr	r3, [sp, #152]	; 0x98
20004776:	0019      	movs	r1, r3
20004778:	9b0d      	ldr	r3, [sp, #52]	; 0x34
2000477a:	4299      	cmp	r1, r3
2000477c:	dc00      	bgt.n	20004780 <_etoa+0xa8>
2000477e:	e1b0      	b.n	20004ae2 <_etoa+0x40a>
20004780:	1ac8      	subs	r0, r1, r3
20004782:	1e43      	subs	r3, r0, #1
20004784:	9326      	str	r3, [sp, #152]	; 0x98
20004786:	2380      	movs	r3, #128	; 0x80
20004788:	9a28      	ldr	r2, [sp, #160]	; 0xa0
2000478a:	00db      	lsls	r3, r3, #3
2000478c:	431a      	orrs	r2, r3
2000478e:	2300      	movs	r3, #0
20004790:	2500      	movs	r5, #0
20004792:	9228      	str	r2, [sp, #160]	; 0xa0
20004794:	930d      	str	r3, [sp, #52]	; 0x34
20004796:	9b27      	ldr	r3, [sp, #156]	; 0x9c
20004798:	2400      	movs	r4, #0
2000479a:	42ab      	cmp	r3, r5
2000479c:	d900      	bls.n	200047a0 <_etoa+0xc8>
2000479e:	1b5c      	subs	r4, r3, r5
200047a0:	2302      	movs	r3, #2
200047a2:	9a28      	ldr	r2, [sp, #160]	; 0xa0
200047a4:	401a      	ands	r2, r3
200047a6:	920e      	str	r2, [sp, #56]	; 0x38
200047a8:	9a28      	ldr	r2, [sp, #160]	; 0xa0
200047aa:	4213      	tst	r3, r2
200047ac:	d003      	beq.n	200047b6 <_etoa+0xde>
200047ae:	426b      	negs	r3, r5
200047b0:	416b      	adcs	r3, r5
200047b2:	425b      	negs	r3, r3
200047b4:	401c      	ands	r4, r3
200047b6:	9b0d      	ldr	r3, [sp, #52]	; 0x34
200047b8:	2b00      	cmp	r3, #0
200047ba:	d007      	beq.n	200047cc <_etoa+0xf4>
200047bc:	4648      	mov	r0, r9
200047be:	9909      	ldr	r1, [sp, #36]	; 0x24
200047c0:	0032      	movs	r2, r6
200047c2:	003b      	movs	r3, r7
200047c4:	f001 fc27 	bl	20006016 <__wrap___aeabi_ddiv>
200047c8:	4681      	mov	r9, r0
200047ca:	9109      	str	r1, [sp, #36]	; 0x24
200047cc:	2200      	movs	r2, #0
200047ce:	2300      	movs	r3, #0
200047d0:	4640      	mov	r0, r8
200047d2:	4651      	mov	r1, sl
200047d4:	f001 fc88 	bl	200060e8 <__wrap___aeabi_dcmplt>
200047d8:	2800      	cmp	r0, #0
200047da:	d005      	beq.n	200047e8 <_etoa+0x110>
200047dc:	2080      	movs	r0, #128	; 0x80
200047de:	0600      	lsls	r0, r0, #24
200047e0:	4684      	mov	ip, r0
200047e2:	9909      	ldr	r1, [sp, #36]	; 0x24
200047e4:	4461      	add	r1, ip
200047e6:	9109      	str	r1, [sp, #36]	; 0x24
200047e8:	9a28      	ldr	r2, [sp, #160]	; 0xa0
200047ea:	4b4a      	ldr	r3, [pc, #296]	; (20004914 <_etoa+0x23c>)
200047ec:	9e0a      	ldr	r6, [sp, #40]	; 0x28
200047ee:	4013      	ands	r3, r2
200047f0:	464a      	mov	r2, r9
200047f2:	9304      	str	r3, [sp, #16]
200047f4:	9b26      	ldr	r3, [sp, #152]	; 0x98
200047f6:	990b      	ldr	r1, [sp, #44]	; 0x2c
200047f8:	9302      	str	r3, [sp, #8]
200047fa:	9b09      	ldr	r3, [sp, #36]	; 0x24
200047fc:	9403      	str	r4, [sp, #12]
200047fe:	9200      	str	r2, [sp, #0]
20004800:	9301      	str	r3, [sp, #4]
20004802:	0030      	movs	r0, r6
20004804:	465b      	mov	r3, fp
20004806:	9a0c      	ldr	r2, [sp, #48]	; 0x30
20004808:	4688      	mov	r8, r1
2000480a:	f000 f9a1 	bl	20004b50 <_ftoa>
2000480e:	0004      	movs	r4, r0
20004810:	2d00      	cmp	r5, #0
20004812:	d072      	beq.n	200048fa <_etoa+0x222>
20004814:	9b28      	ldr	r3, [sp, #160]	; 0xa0
20004816:	0022      	movs	r2, r4
20004818:	0698      	lsls	r0, r3, #26
2000481a:	231f      	movs	r3, #31
2000481c:	17c0      	asrs	r0, r0, #31
2000481e:	4398      	bics	r0, r3
20004820:	4641      	mov	r1, r8
20004822:	465b      	mov	r3, fp
20004824:	3065      	adds	r0, #101	; 0x65
20004826:	47b0      	blx	r6
20004828:	9b0d      	ldr	r3, [sp, #52]	; 0x34
2000482a:	1c67      	adds	r7, r4, #1
2000482c:	17da      	asrs	r2, r3, #31
2000482e:	189c      	adds	r4, r3, r2
20004830:	0fdb      	lsrs	r3, r3, #31
20004832:	4698      	mov	r8, r3
20004834:	1e6b      	subs	r3, r5, #1
20004836:	4699      	mov	r9, r3
20004838:	2500      	movs	r5, #0
2000483a:	4054      	eors	r4, r2
2000483c:	e001      	b.n	20004842 <_etoa+0x16a>
2000483e:	2d20      	cmp	r5, #32
20004840:	d013      	beq.n	2000486a <_etoa+0x192>
20004842:	aa0a      	add	r2, sp, #40	; 0x28
20004844:	4694      	mov	ip, r2
20004846:	231f      	movs	r3, #31
20004848:	0020      	movs	r0, r4
2000484a:	4463      	add	r3, ip
2000484c:	210a      	movs	r1, #10
2000484e:	3501      	adds	r5, #1
20004850:	195e      	adds	r6, r3, r5
20004852:	f001 f98b 	bl	20005b6c <__wrap___aeabi_uidiv>
20004856:	3130      	adds	r1, #48	; 0x30
20004858:	7031      	strb	r1, [r6, #0]
2000485a:	0020      	movs	r0, r4
2000485c:	210a      	movs	r1, #10
2000485e:	f001 f985 	bl	20005b6c <__wrap___aeabi_uidiv>
20004862:	0026      	movs	r6, r4
20004864:	0004      	movs	r4, r0
20004866:	2e09      	cmp	r6, #9
20004868:	d8e9      	bhi.n	2000483e <_etoa+0x166>
2000486a:	2305      	movs	r3, #5
2000486c:	9306      	str	r3, [sp, #24]
2000486e:	464b      	mov	r3, r9
20004870:	9305      	str	r3, [sp, #20]
20004872:	2300      	movs	r3, #0
20004874:	9304      	str	r3, [sp, #16]
20004876:	330a      	adds	r3, #10
20004878:	9303      	str	r3, [sp, #12]
2000487a:	4643      	mov	r3, r8
2000487c:	003a      	movs	r2, r7
2000487e:	9e0a      	ldr	r6, [sp, #40]	; 0x28
20004880:	9f0b      	ldr	r7, [sp, #44]	; 0x2c
20004882:	9302      	str	r3, [sp, #8]
20004884:	ab12      	add	r3, sp, #72	; 0x48
20004886:	9300      	str	r3, [sp, #0]
20004888:	0039      	movs	r1, r7
2000488a:	465b      	mov	r3, fp
2000488c:	0030      	movs	r0, r6
2000488e:	9501      	str	r5, [sp, #4]
20004890:	f7ff fe2a 	bl	200044e8 <_ntoa_format>
20004894:	9b0e      	ldr	r3, [sp, #56]	; 0x38
20004896:	0004      	movs	r4, r0
20004898:	2b00      	cmp	r3, #0
2000489a:	d02e      	beq.n	200048fa <_etoa+0x222>
2000489c:	9b0c      	ldr	r3, [sp, #48]	; 0x30
2000489e:	9a27      	ldr	r2, [sp, #156]	; 0x9c
200048a0:	1ac5      	subs	r5, r0, r3
200048a2:	42aa      	cmp	r2, r5
200048a4:	d929      	bls.n	200048fa <_etoa+0x222>
200048a6:	003c      	movs	r4, r7
200048a8:	4681      	mov	r9, r0
200048aa:	4698      	mov	r8, r3
200048ac:	0017      	movs	r7, r2
200048ae:	4643      	mov	r3, r8
200048b0:	0021      	movs	r1, r4
200048b2:	195a      	adds	r2, r3, r5
200048b4:	2020      	movs	r0, #32
200048b6:	465b      	mov	r3, fp
200048b8:	3501      	adds	r5, #1
200048ba:	47b0      	blx	r6
200048bc:	42af      	cmp	r7, r5
200048be:	d8f6      	bhi.n	200048ae <_etoa+0x1d6>
200048c0:	464c      	mov	r4, r9
200048c2:	990c      	ldr	r1, [sp, #48]	; 0x30
200048c4:	9827      	ldr	r0, [sp, #156]	; 0x9c
200048c6:	1a63      	subs	r3, r4, r1
200048c8:	3301      	adds	r3, #1
200048ca:	2200      	movs	r2, #0
200048cc:	4298      	cmp	r0, r3
200048ce:	d300      	bcc.n	200048d2 <_etoa+0x1fa>
200048d0:	e10a      	b.n	20004ae8 <_etoa+0x410>
200048d2:	3401      	adds	r4, #1
200048d4:	1914      	adds	r4, r2, r4
200048d6:	e010      	b.n	200048fa <_etoa+0x222>
200048d8:	9b28      	ldr	r3, [sp, #160]	; 0xa0
200048da:	4642      	mov	r2, r8
200048dc:	9304      	str	r3, [sp, #16]
200048de:	9b27      	ldr	r3, [sp, #156]	; 0x9c
200048e0:	990b      	ldr	r1, [sp, #44]	; 0x2c
200048e2:	9303      	str	r3, [sp, #12]
200048e4:	9b26      	ldr	r3, [sp, #152]	; 0x98
200048e6:	980a      	ldr	r0, [sp, #40]	; 0x28
200048e8:	9302      	str	r3, [sp, #8]
200048ea:	4653      	mov	r3, sl
200048ec:	9200      	str	r2, [sp, #0]
200048ee:	9301      	str	r3, [sp, #4]
200048f0:	465b      	mov	r3, fp
200048f2:	9a0c      	ldr	r2, [sp, #48]	; 0x30
200048f4:	f000 f92c 	bl	20004b50 <_ftoa>
200048f8:	0004      	movs	r4, r0
200048fa:	0020      	movs	r0, r4
200048fc:	b01b      	add	sp, #108	; 0x6c
200048fe:	bc3c      	pop	{r2, r3, r4, r5}
20004900:	4690      	mov	r8, r2
20004902:	4699      	mov	r9, r3
20004904:	46a2      	mov	sl, r4
20004906:	46ab      	mov	fp, r5
20004908:	bdf0      	pop	{r4, r5, r6, r7, pc}
2000490a:	46c0      	nop			; (mov r8, r8)
2000490c:	7fefffff 	.word	0x7fefffff
20004910:	ffefffff 	.word	0xffefffff
20004914:	fffff7ff 	.word	0xfffff7ff
20004918:	4b76      	ldr	r3, [pc, #472]	; (20004af4 <_etoa+0x41c>)
2000491a:	9d09      	ldr	r5, [sp, #36]	; 0x24
2000491c:	469c      	mov	ip, r3
2000491e:	0068      	lsls	r0, r5, #1
20004920:	0d40      	lsrs	r0, r0, #21
20004922:	4460      	add	r0, ip
20004924:	f001 fc0e 	bl	20006144 <__wrap___aeabi_i2d>
20004928:	4a73      	ldr	r2, [pc, #460]	; (20004af8 <_etoa+0x420>)
2000492a:	4b74      	ldr	r3, [pc, #464]	; (20004afc <_etoa+0x424>)
2000492c:	f001 fb91 	bl	20006052 <__wrap___aeabi_dmul>
20004930:	4a73      	ldr	r2, [pc, #460]	; (20004b00 <_etoa+0x428>)
20004932:	4b74      	ldr	r3, [pc, #464]	; (20004b04 <_etoa+0x42c>)
20004934:	f001 fb66 	bl	20006004 <__wrap___aeabi_dadd>
20004938:	032b      	lsls	r3, r5, #12
2000493a:	4a73      	ldr	r2, [pc, #460]	; (20004b08 <_etoa+0x430>)
2000493c:	0b1b      	lsrs	r3, r3, #12
2000493e:	431a      	orrs	r2, r3
20004940:	0006      	movs	r6, r0
20004942:	000f      	movs	r7, r1
20004944:	4b71      	ldr	r3, [pc, #452]	; (20004b0c <_etoa+0x434>)
20004946:	0011      	movs	r1, r2
20004948:	4648      	mov	r0, r9
2000494a:	2200      	movs	r2, #0
2000494c:	9509      	str	r5, [sp, #36]	; 0x24
2000494e:	f001 fb50 	bl	20005ff2 <__wrap___aeabi_dsub>
20004952:	4a6f      	ldr	r2, [pc, #444]	; (20004b10 <_etoa+0x438>)
20004954:	4b6f      	ldr	r3, [pc, #444]	; (20004b14 <_etoa+0x43c>)
20004956:	f001 fb7c 	bl	20006052 <__wrap___aeabi_dmul>
2000495a:	0002      	movs	r2, r0
2000495c:	000b      	movs	r3, r1
2000495e:	0030      	movs	r0, r6
20004960:	0039      	movs	r1, r7
20004962:	f001 fb4f 	bl	20006004 <__wrap___aeabi_dadd>
20004966:	f001 fc05 	bl	20006174 <__wrap___aeabi_d2iz>
2000496a:	900d      	str	r0, [sp, #52]	; 0x34
2000496c:	f001 fbea 	bl	20006144 <__wrap___aeabi_i2d>
20004970:	4a69      	ldr	r2, [pc, #420]	; (20004b18 <_etoa+0x440>)
20004972:	4b6a      	ldr	r3, [pc, #424]	; (20004b1c <_etoa+0x444>)
20004974:	0004      	movs	r4, r0
20004976:	000d      	movs	r5, r1
20004978:	f001 fb6b 	bl	20006052 <__wrap___aeabi_dmul>
2000497c:	2200      	movs	r2, #0
2000497e:	4b68      	ldr	r3, [pc, #416]	; (20004b20 <_etoa+0x448>)
20004980:	f001 fb40 	bl	20006004 <__wrap___aeabi_dadd>
20004984:	f001 fbf6 	bl	20006174 <__wrap___aeabi_d2iz>
20004988:	4a66      	ldr	r2, [pc, #408]	; (20004b24 <_etoa+0x44c>)
2000498a:	0006      	movs	r6, r0
2000498c:	4b66      	ldr	r3, [pc, #408]	; (20004b28 <_etoa+0x450>)
2000498e:	0020      	movs	r0, r4
20004990:	0029      	movs	r1, r5
20004992:	f001 fb5e 	bl	20006052 <__wrap___aeabi_dmul>
20004996:	0004      	movs	r4, r0
20004998:	0030      	movs	r0, r6
2000499a:	000d      	movs	r5, r1
2000499c:	960f      	str	r6, [sp, #60]	; 0x3c
2000499e:	f001 fbd1 	bl	20006144 <__wrap___aeabi_i2d>
200049a2:	4a62      	ldr	r2, [pc, #392]	; (20004b2c <_etoa+0x454>)
200049a4:	4b62      	ldr	r3, [pc, #392]	; (20004b30 <_etoa+0x458>)
200049a6:	f001 fb54 	bl	20006052 <__wrap___aeabi_dmul>
200049aa:	0002      	movs	r2, r0
200049ac:	000b      	movs	r3, r1
200049ae:	0020      	movs	r0, r4
200049b0:	0029      	movs	r1, r5
200049b2:	f001 fb1e 	bl	20005ff2 <__wrap___aeabi_dsub>
200049b6:	0002      	movs	r2, r0
200049b8:	000b      	movs	r3, r1
200049ba:	0006      	movs	r6, r0
200049bc:	000f      	movs	r7, r1
200049be:	f001 fb48 	bl	20006052 <__wrap___aeabi_dmul>
200049c2:	0032      	movs	r2, r6
200049c4:	0004      	movs	r4, r0
200049c6:	000d      	movs	r5, r1
200049c8:	003b      	movs	r3, r7
200049ca:	0030      	movs	r0, r6
200049cc:	0039      	movs	r1, r7
200049ce:	f001 fb19 	bl	20006004 <__wrap___aeabi_dadd>
200049d2:	2200      	movs	r2, #0
200049d4:	9010      	str	r0, [sp, #64]	; 0x40
200049d6:	9111      	str	r1, [sp, #68]	; 0x44
200049d8:	4b56      	ldr	r3, [pc, #344]	; (20004b34 <_etoa+0x45c>)
200049da:	0020      	movs	r0, r4
200049dc:	0029      	movs	r1, r5
200049de:	f001 fb1a 	bl	20006016 <__wrap___aeabi_ddiv>
200049e2:	2200      	movs	r2, #0
200049e4:	4b54      	ldr	r3, [pc, #336]	; (20004b38 <_etoa+0x460>)
200049e6:	f001 fb0d 	bl	20006004 <__wrap___aeabi_dadd>
200049ea:	0002      	movs	r2, r0
200049ec:	000b      	movs	r3, r1
200049ee:	0020      	movs	r0, r4
200049f0:	0029      	movs	r1, r5
200049f2:	f001 fb10 	bl	20006016 <__wrap___aeabi_ddiv>
200049f6:	2200      	movs	r2, #0
200049f8:	4b50      	ldr	r3, [pc, #320]	; (20004b3c <_etoa+0x464>)
200049fa:	f001 fb03 	bl	20006004 <__wrap___aeabi_dadd>
200049fe:	0002      	movs	r2, r0
20004a00:	000b      	movs	r3, r1
20004a02:	0020      	movs	r0, r4
20004a04:	0029      	movs	r1, r5
20004a06:	f001 fb06 	bl	20006016 <__wrap___aeabi_ddiv>
20004a0a:	000d      	movs	r5, r1
20004a0c:	2180      	movs	r1, #128	; 0x80
20004a0e:	0032      	movs	r2, r6
20004a10:	003b      	movs	r3, r7
20004a12:	0004      	movs	r4, r0
20004a14:	05c9      	lsls	r1, r1, #23
20004a16:	2000      	movs	r0, #0
20004a18:	f001 faeb 	bl	20005ff2 <__wrap___aeabi_dsub>
20004a1c:	0002      	movs	r2, r0
20004a1e:	000b      	movs	r3, r1
20004a20:	0020      	movs	r0, r4
20004a22:	0029      	movs	r1, r5
20004a24:	f001 faee 	bl	20006004 <__wrap___aeabi_dadd>
20004a28:	0002      	movs	r2, r0
20004a2a:	000b      	movs	r3, r1
20004a2c:	9810      	ldr	r0, [sp, #64]	; 0x40
20004a2e:	9911      	ldr	r1, [sp, #68]	; 0x44
20004a30:	f001 faf1 	bl	20006016 <__wrap___aeabi_ddiv>
20004a34:	2200      	movs	r2, #0
20004a36:	4b34      	ldr	r3, [pc, #208]	; (20004b08 <_etoa+0x430>)
20004a38:	f001 fae4 	bl	20006004 <__wrap___aeabi_dadd>
20004a3c:	4a40      	ldr	r2, [pc, #256]	; (20004b40 <_etoa+0x468>)
20004a3e:	9b0f      	ldr	r3, [sp, #60]	; 0x3c
20004a40:	4694      	mov	ip, r2
20004a42:	4463      	add	r3, ip
20004a44:	2200      	movs	r2, #0
20004a46:	051b      	lsls	r3, r3, #20
20004a48:	f001 fb03 	bl	20006052 <__wrap___aeabi_dmul>
20004a4c:	0006      	movs	r6, r0
20004a4e:	000f      	movs	r7, r1
20004a50:	0002      	movs	r2, r0
20004a52:	000b      	movs	r3, r1
20004a54:	4648      	mov	r0, r9
20004a56:	9909      	ldr	r1, [sp, #36]	; 0x24
20004a58:	f001 fb46 	bl	200060e8 <__wrap___aeabi_dcmplt>
20004a5c:	2800      	cmp	r0, #0
20004a5e:	d00a      	beq.n	20004a76 <_etoa+0x39e>
20004a60:	9b0d      	ldr	r3, [sp, #52]	; 0x34
20004a62:	0030      	movs	r0, r6
20004a64:	3b01      	subs	r3, #1
20004a66:	0039      	movs	r1, r7
20004a68:	930d      	str	r3, [sp, #52]	; 0x34
20004a6a:	2200      	movs	r2, #0
20004a6c:	4b32      	ldr	r3, [pc, #200]	; (20004b38 <_etoa+0x460>)
20004a6e:	f001 fad2 	bl	20006016 <__wrap___aeabi_ddiv>
20004a72:	0006      	movs	r6, r0
20004a74:	000f      	movs	r7, r1
20004a76:	25c6      	movs	r5, #198	; 0xc6
20004a78:	990d      	ldr	r1, [sp, #52]	; 0x34
20004a7a:	0033      	movs	r3, r6
20004a7c:	3163      	adds	r1, #99	; 0x63
20004a7e:	428d      	cmp	r5, r1
20004a80:	41ad      	sbcs	r5, r5
20004a82:	9928      	ldr	r1, [sp, #160]	; 0xa0
20004a84:	426d      	negs	r5, r5
20004a86:	3504      	adds	r5, #4
20004a88:	0509      	lsls	r1, r1, #20
20004a8a:	d400      	bmi.n	20004a8e <_etoa+0x3b6>
20004a8c:	e683      	b.n	20004796 <_etoa+0xbe>
20004a8e:	433b      	orrs	r3, r7
20004a90:	d100      	bne.n	20004a94 <_etoa+0x3bc>
20004a92:	e66f      	b.n	20004774 <_etoa+0x9c>
20004a94:	9c09      	ldr	r4, [sp, #36]	; 0x24
20004a96:	4648      	mov	r0, r9
20004a98:	0021      	movs	r1, r4
20004a9a:	4a2a      	ldr	r2, [pc, #168]	; (20004b44 <_etoa+0x46c>)
20004a9c:	4b2a      	ldr	r3, [pc, #168]	; (20004b48 <_etoa+0x470>)
20004a9e:	f001 fb31 	bl	20006104 <__wrap___aeabi_dcmpge>
20004aa2:	2800      	cmp	r0, #0
20004aa4:	d008      	beq.n	20004ab8 <_etoa+0x3e0>
20004aa6:	2200      	movs	r2, #0
20004aa8:	4648      	mov	r0, r9
20004aaa:	0021      	movs	r1, r4
20004aac:	4b27      	ldr	r3, [pc, #156]	; (20004b4c <_etoa+0x474>)
20004aae:	f001 fb1b 	bl	200060e8 <__wrap___aeabi_dcmplt>
20004ab2:	2800      	cmp	r0, #0
20004ab4:	d000      	beq.n	20004ab8 <_etoa+0x3e0>
20004ab6:	e65d      	b.n	20004774 <_etoa+0x9c>
20004ab8:	9b26      	ldr	r3, [sp, #152]	; 0x98
20004aba:	2b00      	cmp	r3, #0
20004abc:	d100      	bne.n	20004ac0 <_etoa+0x3e8>
20004abe:	e66a      	b.n	20004796 <_etoa+0xbe>
20004ac0:	9b0e      	ldr	r3, [sp, #56]	; 0x38
20004ac2:	1e5a      	subs	r2, r3, #1
20004ac4:	4193      	sbcs	r3, r2
20004ac6:	9a26      	ldr	r2, [sp, #152]	; 0x98
20004ac8:	1ad3      	subs	r3, r2, r3
20004aca:	9326      	str	r3, [sp, #152]	; 0x98
20004acc:	e663      	b.n	20004796 <_etoa+0xbe>
20004ace:	2300      	movs	r3, #0
20004ad0:	2504      	movs	r5, #4
20004ad2:	930d      	str	r3, [sp, #52]	; 0x34
20004ad4:	e65f      	b.n	20004796 <_etoa+0xbe>
20004ad6:	2380      	movs	r3, #128	; 0x80
20004ad8:	061b      	lsls	r3, r3, #24
20004ada:	4453      	add	r3, sl
20004adc:	46c1      	mov	r9, r8
20004ade:	9309      	str	r3, [sp, #36]	; 0x24
20004ae0:	e631      	b.n	20004746 <_etoa+0x6e>
20004ae2:	2300      	movs	r3, #0
20004ae4:	9326      	str	r3, [sp, #152]	; 0x98
20004ae6:	e64e      	b.n	20004786 <_etoa+0xae>
20004ae8:	000a      	movs	r2, r1
20004aea:	4684      	mov	ip, r0
20004aec:	3a01      	subs	r2, #1
20004aee:	4462      	add	r2, ip
20004af0:	1b12      	subs	r2, r2, r4
20004af2:	e6ee      	b.n	200048d2 <_etoa+0x1fa>
20004af4:	fffffc01 	.word	0xfffffc01
20004af8:	509f79fb 	.word	0x509f79fb
20004afc:	3fd34413 	.word	0x3fd34413
20004b00:	8b60c8b3 	.word	0x8b60c8b3
20004b04:	3fc68a28 	.word	0x3fc68a28
20004b08:	3ff00000 	.word	0x3ff00000
20004b0c:	3ff80000 	.word	0x3ff80000
20004b10:	636f4361 	.word	0x636f4361
20004b14:	3fd287a7 	.word	0x3fd287a7
20004b18:	0979a371 	.word	0x0979a371
20004b1c:	400a934f 	.word	0x400a934f
20004b20:	3fe00000 	.word	0x3fe00000
20004b24:	bbb55516 	.word	0xbbb55516
20004b28:	40026bb1 	.word	0x40026bb1
20004b2c:	fefa39ef 	.word	0xfefa39ef
20004b30:	3fe62e42 	.word	0x3fe62e42
20004b34:	402c0000 	.word	0x402c0000
20004b38:	40240000 	.word	0x40240000
20004b3c:	40180000 	.word	0x40180000
20004b40:	000003ff 	.word	0x000003ff
20004b44:	eb1c432d 	.word	0xeb1c432d
20004b48:	3f1a36e2 	.word	0x3f1a36e2
20004b4c:	412e8480 	.word	0x412e8480

20004b50 <_ftoa>:
20004b50:	b5f0      	push	{r4, r5, r6, r7, lr}
20004b52:	464e      	mov	r6, r9
20004b54:	46de      	mov	lr, fp
20004b56:	4657      	mov	r7, sl
20004b58:	4645      	mov	r5, r8
20004b5a:	b5e0      	push	{r5, r6, r7, lr}
20004b5c:	b097      	sub	sp, #92	; 0x5c
20004b5e:	4699      	mov	r9, r3
20004b60:	9e20      	ldr	r6, [sp, #128]	; 0x80
20004b62:	9f21      	ldr	r7, [sp, #132]	; 0x84
20004b64:	9b22      	ldr	r3, [sp, #136]	; 0x88
20004b66:	4683      	mov	fp, r0
20004b68:	4698      	mov	r8, r3
20004b6a:	9107      	str	r1, [sp, #28]
20004b6c:	920c      	str	r2, [sp, #48]	; 0x30
20004b6e:	003b      	movs	r3, r7
20004b70:	0032      	movs	r2, r6
20004b72:	0030      	movs	r0, r6
20004b74:	0039      	movs	r1, r7
20004b76:	f001 fad2 	bl	2000611e <__wrap___aeabi_dcmpun>
20004b7a:	2800      	cmp	r0, #0
20004b7c:	d000      	beq.n	20004b80 <_ftoa+0x30>
20004b7e:	e1c1      	b.n	20004f04 <_ftoa+0x3b4>
20004b80:	2201      	movs	r2, #1
20004b82:	0030      	movs	r0, r6
20004b84:	0039      	movs	r1, r7
20004b86:	4bca      	ldr	r3, [pc, #808]	; (20004eb0 <_ftoa+0x360>)
20004b88:	4252      	negs	r2, r2
20004b8a:	f001 faad 	bl	200060e8 <__wrap___aeabi_dcmplt>
20004b8e:	2800      	cmp	r0, #0
20004b90:	d000      	beq.n	20004b94 <_ftoa+0x44>
20004b92:	e0e0      	b.n	20004d56 <_ftoa+0x206>
20004b94:	2201      	movs	r2, #1
20004b96:	0030      	movs	r0, r6
20004b98:	0039      	movs	r1, r7
20004b9a:	4bc6      	ldr	r3, [pc, #792]	; (20004eb4 <_ftoa+0x364>)
20004b9c:	4252      	negs	r2, r2
20004b9e:	f001 fab9 	bl	20006114 <__wrap___aeabi_dcmpgt>
20004ba2:	2800      	cmp	r0, #0
20004ba4:	d000      	beq.n	20004ba8 <_ftoa+0x58>
20004ba6:	e0b6      	b.n	20004d16 <_ftoa+0x1c6>
20004ba8:	2200      	movs	r2, #0
20004baa:	0030      	movs	r0, r6
20004bac:	0039      	movs	r1, r7
20004bae:	4bc2      	ldr	r3, [pc, #776]	; (20004eb8 <_ftoa+0x368>)
20004bb0:	f001 fab0 	bl	20006114 <__wrap___aeabi_dcmpgt>
20004bb4:	2800      	cmp	r0, #0
20004bb6:	d000      	beq.n	20004bba <_ftoa+0x6a>
20004bb8:	e098      	b.n	20004cec <_ftoa+0x19c>
20004bba:	2200      	movs	r2, #0
20004bbc:	0030      	movs	r0, r6
20004bbe:	0039      	movs	r1, r7
20004bc0:	4bbe      	ldr	r3, [pc, #760]	; (20004ebc <_ftoa+0x36c>)
20004bc2:	f001 fa91 	bl	200060e8 <__wrap___aeabi_dcmplt>
20004bc6:	2800      	cmp	r0, #0
20004bc8:	d000      	beq.n	20004bcc <_ftoa+0x7c>
20004bca:	e08f      	b.n	20004cec <_ftoa+0x19c>
20004bcc:	2200      	movs	r2, #0
20004bce:	2300      	movs	r3, #0
20004bd0:	0030      	movs	r0, r6
20004bd2:	0039      	movs	r1, r7
20004bd4:	f001 fa88 	bl	200060e8 <__wrap___aeabi_dcmplt>
20004bd8:	2800      	cmp	r0, #0
20004bda:	d000      	beq.n	20004bde <_ftoa+0x8e>
20004bdc:	e0b0      	b.n	20004d40 <_ftoa+0x1f0>
20004bde:	2300      	movs	r3, #0
20004be0:	930d      	str	r3, [sp, #52]	; 0x34
20004be2:	9b24      	ldr	r3, [sp, #144]	; 0x90
20004be4:	055b      	lsls	r3, r3, #21
20004be6:	d401      	bmi.n	20004bec <_ftoa+0x9c>
20004be8:	2306      	movs	r3, #6
20004bea:	4698      	mov	r8, r3
20004bec:	ab08      	add	r3, sp, #32
20004bee:	469c      	mov	ip, r3
20004bf0:	2217      	movs	r2, #23
20004bf2:	2400      	movs	r4, #0
20004bf4:	2330      	movs	r3, #48	; 0x30
20004bf6:	4641      	mov	r1, r8
20004bf8:	4462      	add	r2, ip
20004bfa:	e004      	b.n	20004c06 <_ftoa+0xb6>
20004bfc:	3401      	adds	r4, #1
20004bfe:	5513      	strb	r3, [r2, r4]
20004c00:	3901      	subs	r1, #1
20004c02:	2c20      	cmp	r4, #32
20004c04:	d001      	beq.n	20004c0a <_ftoa+0xba>
20004c06:	2909      	cmp	r1, #9
20004c08:	d8f8      	bhi.n	20004bfc <_ftoa+0xac>
20004c0a:	4688      	mov	r8, r1
20004c0c:	0030      	movs	r0, r6
20004c0e:	0039      	movs	r1, r7
20004c10:	f001 fab0 	bl	20006174 <__wrap___aeabi_d2iz>
20004c14:	4643      	mov	r3, r8
20004c16:	00da      	lsls	r2, r3, #3
20004c18:	4ba9      	ldr	r3, [pc, #676]	; (20004ec0 <_ftoa+0x370>)
20004c1a:	0005      	movs	r5, r0
20004c1c:	189b      	adds	r3, r3, r2
20004c1e:	681a      	ldr	r2, [r3, #0]
20004c20:	685b      	ldr	r3, [r3, #4]
20004c22:	9208      	str	r2, [sp, #32]
20004c24:	9309      	str	r3, [sp, #36]	; 0x24
20004c26:	f001 fa8d 	bl	20006144 <__wrap___aeabi_i2d>
20004c2a:	0002      	movs	r2, r0
20004c2c:	000b      	movs	r3, r1
20004c2e:	0030      	movs	r0, r6
20004c30:	0039      	movs	r1, r7
20004c32:	f001 f9de 	bl	20005ff2 <__wrap___aeabi_dsub>
20004c36:	9a08      	ldr	r2, [sp, #32]
20004c38:	9b09      	ldr	r3, [sp, #36]	; 0x24
20004c3a:	f001 fa0a 	bl	20006052 <__wrap___aeabi_dmul>
20004c3e:	900a      	str	r0, [sp, #40]	; 0x28
20004c40:	910b      	str	r1, [sp, #44]	; 0x2c
20004c42:	f001 fabb 	bl	200061bc <__wrap___aeabi_d2uiz>
20004c46:	4682      	mov	sl, r0
20004c48:	f001 fa78 	bl	2000613c <__wrap___aeabi_ui2d>
20004c4c:	0002      	movs	r2, r0
20004c4e:	000b      	movs	r3, r1
20004c50:	980a      	ldr	r0, [sp, #40]	; 0x28
20004c52:	990b      	ldr	r1, [sp, #44]	; 0x2c
20004c54:	f001 f9cd 	bl	20005ff2 <__wrap___aeabi_dsub>
20004c58:	2200      	movs	r2, #0
20004c5a:	4b9a      	ldr	r3, [pc, #616]	; (20004ec4 <_ftoa+0x374>)
20004c5c:	900a      	str	r0, [sp, #40]	; 0x28
20004c5e:	910b      	str	r1, [sp, #44]	; 0x2c
20004c60:	f001 fa58 	bl	20006114 <__wrap___aeabi_dcmpgt>
20004c64:	2800      	cmp	r0, #0
20004c66:	d100      	bne.n	20004c6a <_ftoa+0x11a>
20004c68:	e0c0      	b.n	20004dec <_ftoa+0x29c>
20004c6a:	2301      	movs	r3, #1
20004c6c:	469c      	mov	ip, r3
20004c6e:	44e2      	add	sl, ip
20004c70:	4650      	mov	r0, sl
20004c72:	f001 fa63 	bl	2000613c <__wrap___aeabi_ui2d>
20004c76:	0002      	movs	r2, r0
20004c78:	000b      	movs	r3, r1
20004c7a:	9808      	ldr	r0, [sp, #32]
20004c7c:	9909      	ldr	r1, [sp, #36]	; 0x24
20004c7e:	f001 fa39 	bl	200060f4 <__wrap___aeabi_dcmple>
20004c82:	2800      	cmp	r0, #0
20004c84:	d002      	beq.n	20004c8c <_ftoa+0x13c>
20004c86:	2300      	movs	r3, #0
20004c88:	469a      	mov	sl, r3
20004c8a:	3501      	adds	r5, #1
20004c8c:	4643      	mov	r3, r8
20004c8e:	2b00      	cmp	r3, #0
20004c90:	d069      	beq.n	20004d66 <_ftoa+0x216>
20004c92:	ab08      	add	r3, sp, #32
20004c94:	2617      	movs	r6, #23
20004c96:	469c      	mov	ip, r3
20004c98:	9508      	str	r5, [sp, #32]
20004c9a:	4466      	add	r6, ip
20004c9c:	4655      	mov	r5, sl
20004c9e:	e014      	b.n	20004cca <_ftoa+0x17a>
20004ca0:	2301      	movs	r3, #1
20004ca2:	425b      	negs	r3, r3
20004ca4:	4443      	add	r3, r8
20004ca6:	210a      	movs	r1, #10
20004ca8:	0028      	movs	r0, r5
20004caa:	469a      	mov	sl, r3
20004cac:	f000 ff5e 	bl	20005b6c <__wrap___aeabi_uidiv>
20004cb0:	3401      	adds	r4, #1
20004cb2:	3130      	adds	r1, #48	; 0x30
20004cb4:	1937      	adds	r7, r6, r4
20004cb6:	7039      	strb	r1, [r7, #0]
20004cb8:	0028      	movs	r0, r5
20004cba:	210a      	movs	r1, #10
20004cbc:	f000 ff56 	bl	20005b6c <__wrap___aeabi_uidiv>
20004cc0:	2d09      	cmp	r5, #9
20004cc2:	d800      	bhi.n	20004cc6 <_ftoa+0x176>
20004cc4:	e0d5      	b.n	20004e72 <_ftoa+0x322>
20004cc6:	46d0      	mov	r8, sl
20004cc8:	0005      	movs	r5, r0
20004cca:	2c20      	cmp	r4, #32
20004ccc:	d1e8      	bne.n	20004ca0 <_ftoa+0x150>
20004cce:	2303      	movs	r3, #3
20004cd0:	9a24      	ldr	r2, [sp, #144]	; 0x90
20004cd2:	4013      	ands	r3, r2
20004cd4:	2b01      	cmp	r3, #1
20004cd6:	d100      	bne.n	20004cda <_ftoa+0x18a>
20004cd8:	e100      	b.n	20004edc <_ftoa+0x38c>
20004cda:	ab0e      	add	r3, sp, #56	; 0x38
20004cdc:	4698      	mov	r8, r3
20004cde:	9b24      	ldr	r3, [sp, #144]	; 0x90
20004ce0:	9401      	str	r4, [sp, #4]
20004ce2:	9303      	str	r3, [sp, #12]
20004ce4:	9b23      	ldr	r3, [sp, #140]	; 0x8c
20004ce6:	9302      	str	r3, [sp, #8]
20004ce8:	4643      	mov	r3, r8
20004cea:	e01e      	b.n	20004d2a <_ftoa+0x1da>
20004cec:	9b24      	ldr	r3, [sp, #144]	; 0x90
20004cee:	4658      	mov	r0, fp
20004cf0:	9304      	str	r3, [sp, #16]
20004cf2:	9b23      	ldr	r3, [sp, #140]	; 0x8c
20004cf4:	9600      	str	r6, [sp, #0]
20004cf6:	9701      	str	r7, [sp, #4]
20004cf8:	9303      	str	r3, [sp, #12]
20004cfa:	4643      	mov	r3, r8
20004cfc:	9a0c      	ldr	r2, [sp, #48]	; 0x30
20004cfe:	9302      	str	r3, [sp, #8]
20004d00:	9907      	ldr	r1, [sp, #28]
20004d02:	464b      	mov	r3, r9
20004d04:	f7ff fce8 	bl	200046d8 <_etoa>
20004d08:	b017      	add	sp, #92	; 0x5c
20004d0a:	bc3c      	pop	{r2, r3, r4, r5}
20004d0c:	4690      	mov	r8, r2
20004d0e:	4699      	mov	r9, r3
20004d10:	46a2      	mov	sl, r4
20004d12:	46ab      	mov	fp, r5
20004d14:	bdf0      	pop	{r4, r5, r6, r7, pc}
20004d16:	9b24      	ldr	r3, [sp, #144]	; 0x90
20004d18:	075b      	lsls	r3, r3, #29
20004d1a:	d40e      	bmi.n	20004d3a <_ftoa+0x1ea>
20004d1c:	2203      	movs	r2, #3
20004d1e:	4b6a      	ldr	r3, [pc, #424]	; (20004ec8 <_ftoa+0x378>)
20004d20:	9924      	ldr	r1, [sp, #144]	; 0x90
20004d22:	9201      	str	r2, [sp, #4]
20004d24:	9103      	str	r1, [sp, #12]
20004d26:	9923      	ldr	r1, [sp, #140]	; 0x8c
20004d28:	9102      	str	r1, [sp, #8]
20004d2a:	9300      	str	r3, [sp, #0]
20004d2c:	4658      	mov	r0, fp
20004d2e:	464b      	mov	r3, r9
20004d30:	9a0c      	ldr	r2, [sp, #48]	; 0x30
20004d32:	9907      	ldr	r1, [sp, #28]
20004d34:	f7ff fb70 	bl	20004418 <_out_rev>
20004d38:	e7e6      	b.n	20004d08 <_ftoa+0x1b8>
20004d3a:	2204      	movs	r2, #4
20004d3c:	4b63      	ldr	r3, [pc, #396]	; (20004ecc <_ftoa+0x37c>)
20004d3e:	e7ef      	b.n	20004d20 <_ftoa+0x1d0>
20004d40:	003b      	movs	r3, r7
20004d42:	0032      	movs	r2, r6
20004d44:	2000      	movs	r0, #0
20004d46:	2100      	movs	r1, #0
20004d48:	f001 f953 	bl	20005ff2 <__wrap___aeabi_dsub>
20004d4c:	2301      	movs	r3, #1
20004d4e:	0006      	movs	r6, r0
20004d50:	000f      	movs	r7, r1
20004d52:	930d      	str	r3, [sp, #52]	; 0x34
20004d54:	e745      	b.n	20004be2 <_ftoa+0x92>
20004d56:	9b24      	ldr	r3, [sp, #144]	; 0x90
20004d58:	9303      	str	r3, [sp, #12]
20004d5a:	9b23      	ldr	r3, [sp, #140]	; 0x8c
20004d5c:	9302      	str	r3, [sp, #8]
20004d5e:	2304      	movs	r3, #4
20004d60:	9301      	str	r3, [sp, #4]
20004d62:	4b5b      	ldr	r3, [pc, #364]	; (20004ed0 <_ftoa+0x380>)
20004d64:	e7e1      	b.n	20004d2a <_ftoa+0x1da>
20004d66:	0028      	movs	r0, r5
20004d68:	f001 f9ec 	bl	20006144 <__wrap___aeabi_i2d>
20004d6c:	0002      	movs	r2, r0
20004d6e:	000b      	movs	r3, r1
20004d70:	0030      	movs	r0, r6
20004d72:	0039      	movs	r1, r7
20004d74:	f001 f93d 	bl	20005ff2 <__wrap___aeabi_dsub>
20004d78:	4b52      	ldr	r3, [pc, #328]	; (20004ec4 <_ftoa+0x374>)
20004d7a:	2200      	movs	r2, #0
20004d7c:	0006      	movs	r6, r0
20004d7e:	000f      	movs	r7, r1
20004d80:	f001 f9b2 	bl	200060e8 <__wrap___aeabi_dcmplt>
20004d84:	ab0e      	add	r3, sp, #56	; 0x38
20004d86:	4698      	mov	r8, r3
20004d88:	2800      	cmp	r0, #0
20004d8a:	d10a      	bne.n	20004da2 <_ftoa+0x252>
20004d8c:	2200      	movs	r2, #0
20004d8e:	0030      	movs	r0, r6
20004d90:	0039      	movs	r1, r7
20004d92:	4b4c      	ldr	r3, [pc, #304]	; (20004ec4 <_ftoa+0x374>)
20004d94:	f001 f9be 	bl	20006114 <__wrap___aeabi_dcmpgt>
20004d98:	2800      	cmp	r0, #0
20004d9a:	d102      	bne.n	20004da2 <_ftoa+0x252>
20004d9c:	07eb      	lsls	r3, r5, #31
20004d9e:	d500      	bpl.n	20004da2 <_ftoa+0x252>
20004da0:	3501      	adds	r5, #1
20004da2:	2c20      	cmp	r4, #32
20004da4:	d032      	beq.n	20004e0c <_ftoa+0x2bc>
20004da6:	aa08      	add	r2, sp, #32
20004da8:	4694      	mov	ip, r2
20004daa:	2317      	movs	r3, #23
20004dac:	0028      	movs	r0, r5
20004dae:	4463      	add	r3, ip
20004db0:	210a      	movs	r1, #10
20004db2:	3401      	adds	r4, #1
20004db4:	191e      	adds	r6, r3, r4
20004db6:	f000 feb1 	bl	20005b1c <__wrap___aeabi_idiv>
20004dba:	3130      	adds	r1, #48	; 0x30
20004dbc:	0028      	movs	r0, r5
20004dbe:	7031      	strb	r1, [r6, #0]
20004dc0:	210a      	movs	r1, #10
20004dc2:	f000 feab 	bl	20005b1c <__wrap___aeabi_idiv>
20004dc6:	1e05      	subs	r5, r0, #0
20004dc8:	d1eb      	bne.n	20004da2 <_ftoa+0x252>
20004dca:	2303      	movs	r3, #3
20004dcc:	9a24      	ldr	r2, [sp, #144]	; 0x90
20004dce:	4013      	ands	r3, r2
20004dd0:	2b01      	cmp	r3, #1
20004dd2:	d100      	bne.n	20004dd6 <_ftoa+0x286>
20004dd4:	e091      	b.n	20004efa <_ftoa+0x3aa>
20004dd6:	2c1f      	cmp	r4, #31
20004dd8:	d900      	bls.n	20004ddc <_ftoa+0x28c>
20004dda:	e780      	b.n	20004cde <_ftoa+0x18e>
20004ddc:	9b0d      	ldr	r3, [sp, #52]	; 0x34
20004dde:	2b00      	cmp	r3, #0
20004de0:	d03b      	beq.n	20004e5a <_ftoa+0x30a>
20004de2:	232d      	movs	r3, #45	; 0x2d
20004de4:	4642      	mov	r2, r8
20004de6:	5513      	strb	r3, [r2, r4]
20004de8:	3401      	adds	r4, #1
20004dea:	e778      	b.n	20004cde <_ftoa+0x18e>
20004dec:	2200      	movs	r2, #0
20004dee:	980a      	ldr	r0, [sp, #40]	; 0x28
20004df0:	990b      	ldr	r1, [sp, #44]	; 0x2c
20004df2:	4b34      	ldr	r3, [pc, #208]	; (20004ec4 <_ftoa+0x374>)
20004df4:	f001 f978 	bl	200060e8 <__wrap___aeabi_dcmplt>
20004df8:	2800      	cmp	r0, #0
20004dfa:	d000      	beq.n	20004dfe <_ftoa+0x2ae>
20004dfc:	e746      	b.n	20004c8c <_ftoa+0x13c>
20004dfe:	4653      	mov	r3, sl
20004e00:	2b00      	cmp	r3, #0
20004e02:	d167      	bne.n	20004ed4 <_ftoa+0x384>
20004e04:	2301      	movs	r3, #1
20004e06:	469c      	mov	ip, r3
20004e08:	44e2      	add	sl, ip
20004e0a:	e73f      	b.n	20004c8c <_ftoa+0x13c>
20004e0c:	2303      	movs	r3, #3
20004e0e:	9a24      	ldr	r2, [sp, #144]	; 0x90
20004e10:	4013      	ands	r3, r2
20004e12:	2b01      	cmp	r3, #1
20004e14:	d000      	beq.n	20004e18 <_ftoa+0x2c8>
20004e16:	e762      	b.n	20004cde <_ftoa+0x18e>
20004e18:	9b23      	ldr	r3, [sp, #140]	; 0x8c
20004e1a:	2b00      	cmp	r3, #0
20004e1c:	d100      	bne.n	20004e20 <_ftoa+0x2d0>
20004e1e:	e75e      	b.n	20004cde <_ftoa+0x18e>
20004e20:	9b0d      	ldr	r3, [sp, #52]	; 0x34
20004e22:	2b00      	cmp	r3, #0
20004e24:	d103      	bne.n	20004e2e <_ftoa+0x2de>
20004e26:	9a24      	ldr	r2, [sp, #144]	; 0x90
20004e28:	330c      	adds	r3, #12
20004e2a:	4213      	tst	r3, r2
20004e2c:	d002      	beq.n	20004e34 <_ftoa+0x2e4>
20004e2e:	9b23      	ldr	r3, [sp, #140]	; 0x8c
20004e30:	3b01      	subs	r3, #1
20004e32:	9323      	str	r3, [sp, #140]	; 0x8c
20004e34:	9b23      	ldr	r3, [sp, #140]	; 0x8c
20004e36:	429c      	cmp	r4, r3
20004e38:	d2cd      	bcs.n	20004dd6 <_ftoa+0x286>
20004e3a:	ab08      	add	r3, sp, #32
20004e3c:	469c      	mov	ip, r3
20004e3e:	2217      	movs	r2, #23
20004e40:	2330      	movs	r3, #48	; 0x30
20004e42:	4462      	add	r2, ip
20004e44:	2c1f      	cmp	r4, #31
20004e46:	d806      	bhi.n	20004e56 <_ftoa+0x306>
20004e48:	9923      	ldr	r1, [sp, #140]	; 0x8c
20004e4a:	3401      	adds	r4, #1
20004e4c:	5513      	strb	r3, [r2, r4]
20004e4e:	428c      	cmp	r4, r1
20004e50:	d0c1      	beq.n	20004dd6 <_ftoa+0x286>
20004e52:	2c20      	cmp	r4, #32
20004e54:	d1f8      	bne.n	20004e48 <_ftoa+0x2f8>
20004e56:	2420      	movs	r4, #32
20004e58:	e741      	b.n	20004cde <_ftoa+0x18e>
20004e5a:	9b24      	ldr	r3, [sp, #144]	; 0x90
20004e5c:	075b      	lsls	r3, r3, #29
20004e5e:	d421      	bmi.n	20004ea4 <_ftoa+0x354>
20004e60:	9b24      	ldr	r3, [sp, #144]	; 0x90
20004e62:	071b      	lsls	r3, r3, #28
20004e64:	d400      	bmi.n	20004e68 <_ftoa+0x318>
20004e66:	e73a      	b.n	20004cde <_ftoa+0x18e>
20004e68:	2320      	movs	r3, #32
20004e6a:	4642      	mov	r2, r8
20004e6c:	5513      	strb	r3, [r2, r4]
20004e6e:	3401      	adds	r4, #1
20004e70:	e735      	b.n	20004cde <_ftoa+0x18e>
20004e72:	4657      	mov	r7, sl
20004e74:	9d08      	ldr	r5, [sp, #32]
20004e76:	2c20      	cmp	r4, #32
20004e78:	d037      	beq.n	20004eea <_ftoa+0x39a>
20004e7a:	0022      	movs	r2, r4
20004e7c:	2130      	movs	r1, #48	; 0x30
20004e7e:	4640      	mov	r0, r8
20004e80:	2f00      	cmp	r7, #0
20004e82:	d008      	beq.n	20004e96 <_ftoa+0x346>
20004e84:	3201      	adds	r2, #1
20004e86:	54b1      	strb	r1, [r6, r2]
20004e88:	2a20      	cmp	r2, #32
20004e8a:	d043      	beq.n	20004f14 <_ftoa+0x3c4>
20004e8c:	43d3      	mvns	r3, r2
20004e8e:	191b      	adds	r3, r3, r4
20004e90:	181b      	adds	r3, r3, r0
20004e92:	2b00      	cmp	r3, #0
20004e94:	d1f6      	bne.n	20004e84 <_ftoa+0x334>
20004e96:	ab0e      	add	r3, sp, #56	; 0x38
20004e98:	4698      	mov	r8, r3
20004e9a:	232e      	movs	r3, #46	; 0x2e
20004e9c:	4641      	mov	r1, r8
20004e9e:	1c54      	adds	r4, r2, #1
20004ea0:	548b      	strb	r3, [r1, r2]
20004ea2:	e77e      	b.n	20004da2 <_ftoa+0x252>
20004ea4:	232b      	movs	r3, #43	; 0x2b
20004ea6:	4642      	mov	r2, r8
20004ea8:	5513      	strb	r3, [r2, r4]
20004eaa:	3401      	adds	r4, #1
20004eac:	e717      	b.n	20004cde <_ftoa+0x18e>
20004eae:	46c0      	nop			; (mov r8, r8)
20004eb0:	ffefffff 	.word	0xffefffff
20004eb4:	7fefffff 	.word	0x7fefffff
20004eb8:	41cdcd65 	.word	0x41cdcd65
20004ebc:	c1cdcd65 	.word	0xc1cdcd65
20004ec0:	2000c1d8 	.word	0x2000c1d8
20004ec4:	3fe00000 	.word	0x3fe00000
20004ec8:	2000bfdc 	.word	0x2000bfdc
20004ecc:	2000bfe0 	.word	0x2000bfe0
20004ed0:	2000bfec 	.word	0x2000bfec
20004ed4:	07db      	lsls	r3, r3, #31
20004ed6:	d400      	bmi.n	20004eda <_ftoa+0x38a>
20004ed8:	e6d8      	b.n	20004c8c <_ftoa+0x13c>
20004eda:	e793      	b.n	20004e04 <_ftoa+0x2b4>
20004edc:	9b23      	ldr	r3, [sp, #140]	; 0x8c
20004ede:	2b00      	cmp	r3, #0
20004ee0:	d100      	bne.n	20004ee4 <_ftoa+0x394>
20004ee2:	e6fa      	b.n	20004cda <_ftoa+0x18a>
20004ee4:	ab0e      	add	r3, sp, #56	; 0x38
20004ee6:	4698      	mov	r8, r3
20004ee8:	e79a      	b.n	20004e20 <_ftoa+0x2d0>
20004eea:	2303      	movs	r3, #3
20004eec:	9a24      	ldr	r2, [sp, #144]	; 0x90
20004eee:	4013      	ands	r3, r2
20004ef0:	2b01      	cmp	r3, #1
20004ef2:	d000      	beq.n	20004ef6 <_ftoa+0x3a6>
20004ef4:	e6f1      	b.n	20004cda <_ftoa+0x18a>
20004ef6:	ab0e      	add	r3, sp, #56	; 0x38
20004ef8:	4698      	mov	r8, r3
20004efa:	9b23      	ldr	r3, [sp, #140]	; 0x8c
20004efc:	2b00      	cmp	r3, #0
20004efe:	d100      	bne.n	20004f02 <_ftoa+0x3b2>
20004f00:	e769      	b.n	20004dd6 <_ftoa+0x286>
20004f02:	e78d      	b.n	20004e20 <_ftoa+0x2d0>
20004f04:	9b24      	ldr	r3, [sp, #144]	; 0x90
20004f06:	9303      	str	r3, [sp, #12]
20004f08:	9b23      	ldr	r3, [sp, #140]	; 0x8c
20004f0a:	9302      	str	r3, [sp, #8]
20004f0c:	2303      	movs	r3, #3
20004f0e:	9301      	str	r3, [sp, #4]
20004f10:	4b06      	ldr	r3, [pc, #24]	; (20004f2c <_ftoa+0x3dc>)
20004f12:	e70a      	b.n	20004d2a <_ftoa+0x1da>
20004f14:	2303      	movs	r3, #3
20004f16:	9a24      	ldr	r2, [sp, #144]	; 0x90
20004f18:	2420      	movs	r4, #32
20004f1a:	4013      	ands	r3, r2
20004f1c:	2b01      	cmp	r3, #1
20004f1e:	d000      	beq.n	20004f22 <_ftoa+0x3d2>
20004f20:	e6db      	b.n	20004cda <_ftoa+0x18a>
20004f22:	9b23      	ldr	r3, [sp, #140]	; 0x8c
20004f24:	2420      	movs	r4, #32
20004f26:	2b00      	cmp	r3, #0
20004f28:	d1dc      	bne.n	20004ee4 <_ftoa+0x394>
20004f2a:	e6d6      	b.n	20004cda <_ftoa+0x18a>
20004f2c:	2000bfe8 	.word	0x2000bfe8

20004f30 <_vsnprintf>:
20004f30:	b5f0      	push	{r4, r5, r6, r7, lr}
20004f32:	46de      	mov	lr, fp
20004f34:	464e      	mov	r6, r9
20004f36:	4657      	mov	r7, sl
20004f38:	4645      	mov	r5, r8
20004f3a:	b5e0      	push	{r5, r6, r7, lr}
20004f3c:	b09f      	sub	sp, #124	; 0x7c
20004f3e:	001c      	movs	r4, r3
20004f40:	9b28      	ldr	r3, [sp, #160]	; 0xa0
20004f42:	4693      	mov	fp, r2
20004f44:	9309      	str	r3, [sp, #36]	; 0x24
20004f46:	4acf      	ldr	r2, [pc, #828]	; (20005284 <_vsnprintf+0x354>)
20004f48:	4bcf      	ldr	r3, [pc, #828]	; (20005288 <_vsnprintf+0x358>)
20004f4a:	4689      	mov	r9, r1
20004f4c:	9008      	str	r0, [sp, #32]
20004f4e:	601a      	str	r2, [r3, #0]
20004f50:	2900      	cmp	r1, #0
20004f52:	d100      	bne.n	20004f56 <_vsnprintf+0x26>
20004f54:	e216      	b.n	20005384 <_vsnprintf+0x454>
20004f56:	2300      	movs	r3, #0
20004f58:	7820      	ldrb	r0, [r4, #0]
20004f5a:	469a      	mov	sl, r3
20004f5c:	2800      	cmp	r0, #0
20004f5e:	d100      	bne.n	20004f62 <_vsnprintf+0x32>
20004f60:	e218      	b.n	20005394 <_vsnprintf+0x464>
20004f62:	0026      	movs	r6, r4
20004f64:	001d      	movs	r5, r3
20004f66:	464c      	mov	r4, r9
20004f68:	e00a      	b.n	20004f80 <_vsnprintf+0x50>
20004f6a:	002a      	movs	r2, r5
20004f6c:	1c6f      	adds	r7, r5, #1
20004f6e:	465b      	mov	r3, fp
20004f70:	9d08      	ldr	r5, [sp, #32]
20004f72:	0021      	movs	r1, r4
20004f74:	47a8      	blx	r5
20004f76:	003d      	movs	r5, r7
20004f78:	3601      	adds	r6, #1
20004f7a:	7830      	ldrb	r0, [r6, #0]
20004f7c:	2800      	cmp	r0, #0
20004f7e:	d07a      	beq.n	20005076 <_vsnprintf+0x146>
20004f80:	2825      	cmp	r0, #37	; 0x25
20004f82:	d1f2      	bne.n	20004f6a <_vsnprintf+0x3a>
20004f84:	2310      	movs	r3, #16
20004f86:	469a      	mov	sl, r3
20004f88:	3b08      	subs	r3, #8
20004f8a:	4699      	mov	r9, r3
20004f8c:	3b04      	subs	r3, #4
20004f8e:	4698      	mov	r8, r3
20004f90:	3b02      	subs	r3, #2
20004f92:	2100      	movs	r1, #0
20004f94:	469c      	mov	ip, r3
20004f96:	1c72      	adds	r2, r6, #1
20004f98:	7810      	ldrb	r0, [r2, #0]
20004f9a:	0016      	movs	r6, r2
20004f9c:	0003      	movs	r3, r0
20004f9e:	3b20      	subs	r3, #32
20004fa0:	b2db      	uxtb	r3, r3
20004fa2:	2b10      	cmp	r3, #16
20004fa4:	d803      	bhi.n	20004fae <_vsnprintf+0x7e>
20004fa6:	4fb9      	ldr	r7, [pc, #740]	; (2000528c <_vsnprintf+0x35c>)
20004fa8:	009b      	lsls	r3, r3, #2
20004faa:	58fb      	ldr	r3, [r7, r3]
20004fac:	469f      	mov	pc, r3
20004fae:	0003      	movs	r3, r0
20004fb0:	3b30      	subs	r3, #48	; 0x30
20004fb2:	2b09      	cmp	r3, #9
20004fb4:	d93c      	bls.n	20005030 <_vsnprintf+0x100>
20004fb6:	2300      	movs	r3, #0
20004fb8:	930a      	str	r3, [sp, #40]	; 0x28
20004fba:	282a      	cmp	r0, #42	; 0x2a
20004fbc:	d100      	bne.n	20004fc0 <_vsnprintf+0x90>
20004fbe:	e071      	b.n	200050a4 <_vsnprintf+0x174>
20004fc0:	2300      	movs	r3, #0
20004fc2:	4698      	mov	r8, r3
20004fc4:	282e      	cmp	r0, #46	; 0x2e
20004fc6:	d047      	beq.n	20005058 <_vsnprintf+0x128>
20004fc8:	0003      	movs	r3, r0
20004fca:	3b68      	subs	r3, #104	; 0x68
20004fcc:	b2db      	uxtb	r3, r3
20004fce:	2b12      	cmp	r3, #18
20004fd0:	d81f      	bhi.n	20005012 <_vsnprintf+0xe2>
20004fd2:	4aaf      	ldr	r2, [pc, #700]	; (20005290 <_vsnprintf+0x360>)
20004fd4:	009b      	lsls	r3, r3, #2
20004fd6:	58d3      	ldr	r3, [r2, r3]
20004fd8:	469f      	mov	pc, r3
20004fda:	2301      	movs	r3, #1
20004fdc:	3201      	adds	r2, #1
20004fde:	4319      	orrs	r1, r3
20004fe0:	e7da      	b.n	20004f98 <_vsnprintf+0x68>
20004fe2:	4663      	mov	r3, ip
20004fe4:	3201      	adds	r2, #1
20004fe6:	4319      	orrs	r1, r3
20004fe8:	e7d6      	b.n	20004f98 <_vsnprintf+0x68>
20004fea:	4643      	mov	r3, r8
20004fec:	3201      	adds	r2, #1
20004fee:	4319      	orrs	r1, r3
20004ff0:	e7d2      	b.n	20004f98 <_vsnprintf+0x68>
20004ff2:	4653      	mov	r3, sl
20004ff4:	3201      	adds	r2, #1
20004ff6:	4319      	orrs	r1, r3
20004ff8:	e7ce      	b.n	20004f98 <_vsnprintf+0x68>
20004ffa:	464b      	mov	r3, r9
20004ffc:	3201      	adds	r2, #1
20004ffe:	4319      	orrs	r1, r3
20005000:	e7ca      	b.n	20004f98 <_vsnprintf+0x68>
20005002:	7870      	ldrb	r0, [r6, #1]
20005004:	286c      	cmp	r0, #108	; 0x6c
20005006:	d100      	bne.n	2000500a <_vsnprintf+0xda>
20005008:	e2bf      	b.n	2000558a <_vsnprintf+0x65a>
2000500a:	2380      	movs	r3, #128	; 0x80
2000500c:	005b      	lsls	r3, r3, #1
2000500e:	4319      	orrs	r1, r3
20005010:	3601      	adds	r6, #1
20005012:	0003      	movs	r3, r0
20005014:	3b25      	subs	r3, #37	; 0x25
20005016:	b2db      	uxtb	r3, r3
20005018:	2b53      	cmp	r3, #83	; 0x53
2000501a:	d8a6      	bhi.n	20004f6a <_vsnprintf+0x3a>
2000501c:	4a9d      	ldr	r2, [pc, #628]	; (20005294 <_vsnprintf+0x364>)
2000501e:	009b      	lsls	r3, r3, #2
20005020:	58d3      	ldr	r3, [r2, r3]
20005022:	469f      	mov	pc, r3
20005024:	2380      	movs	r3, #128	; 0x80
20005026:	005b      	lsls	r3, r3, #1
20005028:	7870      	ldrb	r0, [r6, #1]
2000502a:	4319      	orrs	r1, r3
2000502c:	3601      	adds	r6, #1
2000502e:	e7f0      	b.n	20005012 <_vsnprintf+0xe2>
20005030:	2700      	movs	r7, #0
20005032:	0003      	movs	r3, r0
20005034:	00b8      	lsls	r0, r7, #2
20005036:	19c0      	adds	r0, r0, r7
20005038:	3601      	adds	r6, #1
2000503a:	0040      	lsls	r0, r0, #1
2000503c:	18c0      	adds	r0, r0, r3
2000503e:	7833      	ldrb	r3, [r6, #0]
20005040:	3830      	subs	r0, #48	; 0x30
20005042:	001a      	movs	r2, r3
20005044:	3a30      	subs	r2, #48	; 0x30
20005046:	0007      	movs	r7, r0
20005048:	2a09      	cmp	r2, #9
2000504a:	d9f3      	bls.n	20005034 <_vsnprintf+0x104>
2000504c:	900a      	str	r0, [sp, #40]	; 0x28
2000504e:	0018      	movs	r0, r3
20005050:	2300      	movs	r3, #0
20005052:	4698      	mov	r8, r3
20005054:	282e      	cmp	r0, #46	; 0x2e
20005056:	d1b7      	bne.n	20004fc8 <_vsnprintf+0x98>
20005058:	2380      	movs	r3, #128	; 0x80
2000505a:	7870      	ldrb	r0, [r6, #1]
2000505c:	00db      	lsls	r3, r3, #3
2000505e:	4319      	orrs	r1, r3
20005060:	0003      	movs	r3, r0
20005062:	3b30      	subs	r3, #48	; 0x30
20005064:	1c72      	adds	r2, r6, #1
20005066:	2b09      	cmp	r3, #9
20005068:	d800      	bhi.n	2000506c <_vsnprintf+0x13c>
2000506a:	e195      	b.n	20005398 <_vsnprintf+0x468>
2000506c:	282a      	cmp	r0, #42	; 0x2a
2000506e:	d100      	bne.n	20005072 <_vsnprintf+0x142>
20005070:	e1a6      	b.n	200053c0 <_vsnprintf+0x490>
20005072:	0016      	movs	r6, r2
20005074:	e7a8      	b.n	20004fc8 <_vsnprintf+0x98>
20005076:	46a1      	mov	r9, r4
20005078:	46aa      	mov	sl, r5
2000507a:	002c      	movs	r4, r5
2000507c:	45d3      	cmp	fp, sl
2000507e:	d803      	bhi.n	20005088 <_vsnprintf+0x158>
20005080:	2301      	movs	r3, #1
20005082:	425b      	negs	r3, r3
20005084:	445b      	add	r3, fp
20005086:	469a      	mov	sl, r3
20005088:	465b      	mov	r3, fp
2000508a:	4652      	mov	r2, sl
2000508c:	4649      	mov	r1, r9
2000508e:	2000      	movs	r0, #0
20005090:	9d08      	ldr	r5, [sp, #32]
20005092:	47a8      	blx	r5
20005094:	0020      	movs	r0, r4
20005096:	b01f      	add	sp, #124	; 0x7c
20005098:	bc3c      	pop	{r2, r3, r4, r5}
2000509a:	4690      	mov	r8, r2
2000509c:	4699      	mov	r9, r3
2000509e:	46a2      	mov	sl, r4
200050a0:	46ab      	mov	fp, r5
200050a2:	bdf0      	pop	{r4, r5, r6, r7, pc}
200050a4:	9b09      	ldr	r3, [sp, #36]	; 0x24
200050a6:	cb40      	ldmia	r3!, {r6}
200050a8:	960a      	str	r6, [sp, #40]	; 0x28
200050aa:	2e00      	cmp	r6, #0
200050ac:	db03      	blt.n	200050b6 <_vsnprintf+0x186>
200050ae:	7850      	ldrb	r0, [r2, #1]
200050b0:	9309      	str	r3, [sp, #36]	; 0x24
200050b2:	1c56      	adds	r6, r2, #1
200050b4:	e784      	b.n	20004fc0 <_vsnprintf+0x90>
200050b6:	3828      	subs	r0, #40	; 0x28
200050b8:	4301      	orrs	r1, r0
200050ba:	4270      	negs	r0, r6
200050bc:	900a      	str	r0, [sp, #40]	; 0x28
200050be:	9309      	str	r3, [sp, #36]	; 0x24
200050c0:	7850      	ldrb	r0, [r2, #1]
200050c2:	1c56      	adds	r6, r2, #1
200050c4:	e77c      	b.n	20004fc0 <_vsnprintf+0x90>
200050c6:	2878      	cmp	r0, #120	; 0x78
200050c8:	d100      	bne.n	200050cc <_vsnprintf+0x19c>
200050ca:	e1d4      	b.n	20005476 <_vsnprintf+0x546>
200050cc:	2858      	cmp	r0, #88	; 0x58
200050ce:	d100      	bne.n	200050d2 <_vsnprintf+0x1a2>
200050d0:	e268      	b.n	200055a4 <_vsnprintf+0x674>
200050d2:	286f      	cmp	r0, #111	; 0x6f
200050d4:	d100      	bne.n	200050d8 <_vsnprintf+0x1a8>
200050d6:	e352      	b.n	2000577e <_vsnprintf+0x84e>
200050d8:	2862      	cmp	r0, #98	; 0x62
200050da:	d100      	bne.n	200050de <_vsnprintf+0x1ae>
200050dc:	e1d8      	b.n	20005490 <_vsnprintf+0x560>
200050de:	2310      	movs	r3, #16
200050e0:	000a      	movs	r2, r1
200050e2:	439a      	bics	r2, r3
200050e4:	920b      	str	r2, [sp, #44]	; 0x2c
200050e6:	2869      	cmp	r0, #105	; 0x69
200050e8:	d001      	beq.n	200050ee <_vsnprintf+0x1be>
200050ea:	f000 fca2 	bl	20005a32 <_vsnprintf+0xb02>
200050ee:	230a      	movs	r3, #10
200050f0:	930c      	str	r3, [sp, #48]	; 0x30
200050f2:	054b      	lsls	r3, r1, #21
200050f4:	d400      	bmi.n	200050f8 <_vsnprintf+0x1c8>
200050f6:	e1d5      	b.n	200054a4 <_vsnprintf+0x574>
200050f8:	2301      	movs	r3, #1
200050fa:	9a0b      	ldr	r2, [sp, #44]	; 0x2c
200050fc:	439a      	bics	r2, r3
200050fe:	920b      	str	r2, [sp, #44]	; 0x2c
20005100:	2869      	cmp	r0, #105	; 0x69
20005102:	d100      	bne.n	20005106 <_vsnprintf+0x1d6>
20005104:	e1ce      	b.n	200054a4 <_vsnprintf+0x574>
20005106:	2864      	cmp	r0, #100	; 0x64
20005108:	d100      	bne.n	2000510c <_vsnprintf+0x1dc>
2000510a:	e1cb      	b.n	200054a4 <_vsnprintf+0x574>
2000510c:	9a0b      	ldr	r2, [sp, #44]	; 0x2c
2000510e:	2380      	movs	r3, #128	; 0x80
20005110:	0011      	movs	r1, r2
20005112:	009b      	lsls	r3, r3, #2
20005114:	4019      	ands	r1, r3
20005116:	468a      	mov	sl, r1
20005118:	421a      	tst	r2, r3
2000511a:	d000      	beq.n	2000511e <_vsnprintf+0x1ee>
2000511c:	e332      	b.n	20005784 <_vsnprintf+0x854>
2000511e:	2380      	movs	r3, #128	; 0x80
20005120:	0011      	movs	r1, r2
20005122:	005b      	lsls	r3, r3, #1
20005124:	4019      	ands	r1, r3
20005126:	4689      	mov	r9, r1
20005128:	421a      	tst	r2, r3
2000512a:	d001      	beq.n	20005130 <_vsnprintf+0x200>
2000512c:	f000 fc02 	bl	20005934 <_vsnprintf+0xa04>
20005130:	0013      	movs	r3, r2
20005132:	065b      	lsls	r3, r3, #25
20005134:	d500      	bpl.n	20005138 <_vsnprintf+0x208>
20005136:	e310      	b.n	2000575a <_vsnprintf+0x82a>
20005138:	9b0b      	ldr	r3, [sp, #44]	; 0x2c
2000513a:	061b      	lsls	r3, r3, #24
2000513c:	d401      	bmi.n	20005142 <_vsnprintf+0x212>
2000513e:	f000 fc6e 	bl	20005a1e <_vsnprintf+0xaee>
20005142:	9b09      	ldr	r3, [sp, #36]	; 0x24
20005144:	cb04      	ldmia	r3!, {r2}
20005146:	0412      	lsls	r2, r2, #16
20005148:	0c12      	lsrs	r2, r2, #16
2000514a:	4692      	mov	sl, r2
2000514c:	9309      	str	r3, [sp, #36]	; 0x24
2000514e:	4653      	mov	r3, sl
20005150:	2b00      	cmp	r3, #0
20005152:	d000      	beq.n	20005156 <_vsnprintf+0x226>
20005154:	e364      	b.n	20005820 <_vsnprintf+0x8f0>
20005156:	9a0b      	ldr	r2, [sp, #44]	; 0x2c
20005158:	3310      	adds	r3, #16
2000515a:	0011      	movs	r1, r2
2000515c:	4399      	bics	r1, r3
2000515e:	910b      	str	r1, [sp, #44]	; 0x2c
20005160:	0552      	lsls	r2, r2, #21
20005162:	d400      	bmi.n	20005166 <_vsnprintf+0x236>
20005164:	e35c      	b.n	20005820 <_vsnprintf+0x8f0>
20005166:	2300      	movs	r3, #0
20005168:	4699      	mov	r9, r3
2000516a:	9b0b      	ldr	r3, [sp, #44]	; 0x2c
2000516c:	9306      	str	r3, [sp, #24]
2000516e:	9b0a      	ldr	r3, [sp, #40]	; 0x28
20005170:	9305      	str	r3, [sp, #20]
20005172:	4643      	mov	r3, r8
20005174:	9304      	str	r3, [sp, #16]
20005176:	9b0c      	ldr	r3, [sp, #48]	; 0x30
20005178:	9303      	str	r3, [sp, #12]
2000517a:	2300      	movs	r3, #0
2000517c:	e2de      	b.n	2000573c <_vsnprintf+0x80c>
2000517e:	7870      	ldrb	r0, [r6, #1]
20005180:	2868      	cmp	r0, #104	; 0x68
20005182:	d100      	bne.n	20005186 <_vsnprintf+0x256>
20005184:	e207      	b.n	20005596 <_vsnprintf+0x666>
20005186:	2380      	movs	r3, #128	; 0x80
20005188:	3601      	adds	r6, #1
2000518a:	4319      	orrs	r1, r3
2000518c:	e741      	b.n	20005012 <_vsnprintf+0xe2>
2000518e:	2380      	movs	r3, #128	; 0x80
20005190:	009b      	lsls	r3, r3, #2
20005192:	7870      	ldrb	r0, [r6, #1]
20005194:	4319      	orrs	r1, r3
20005196:	3601      	adds	r6, #1
20005198:	e73b      	b.n	20005012 <_vsnprintf+0xe2>
2000519a:	2846      	cmp	r0, #70	; 0x46
2000519c:	d100      	bne.n	200051a0 <_vsnprintf+0x270>
2000519e:	e174      	b.n	2000548a <_vsnprintf+0x55a>
200051a0:	2207      	movs	r2, #7
200051a2:	9b09      	ldr	r3, [sp, #36]	; 0x24
200051a4:	9104      	str	r1, [sp, #16]
200051a6:	3307      	adds	r3, #7
200051a8:	4393      	bics	r3, r2
200051aa:	9a0a      	ldr	r2, [sp, #40]	; 0x28
200051ac:	0019      	movs	r1, r3
200051ae:	9203      	str	r2, [sp, #12]
200051b0:	4642      	mov	r2, r8
200051b2:	9202      	str	r2, [sp, #8]
200051b4:	c90c      	ldmia	r1!, {r2, r3}
200051b6:	9808      	ldr	r0, [sp, #32]
200051b8:	9200      	str	r2, [sp, #0]
200051ba:	9301      	str	r3, [sp, #4]
200051bc:	9109      	str	r1, [sp, #36]	; 0x24
200051be:	002a      	movs	r2, r5
200051c0:	465b      	mov	r3, fp
200051c2:	0021      	movs	r1, r4
200051c4:	f7ff fcc4 	bl	20004b50 <_ftoa>
200051c8:	3601      	adds	r6, #1
200051ca:	0005      	movs	r5, r0
200051cc:	e6d5      	b.n	20004f7a <_vsnprintf+0x4a>
200051ce:	9b09      	ldr	r3, [sp, #36]	; 0x24
200051d0:	001a      	movs	r2, r3
200051d2:	ca08      	ldmia	r2!, {r3}
200051d4:	4691      	mov	r9, r2
200051d6:	2b00      	cmp	r3, #0
200051d8:	d100      	bne.n	200051dc <_vsnprintf+0x2ac>
200051da:	e105      	b.n	200053e8 <_vsnprintf+0x4b8>
200051dc:	2221      	movs	r2, #33	; 0x21
200051de:	4311      	orrs	r1, r2
200051e0:	468a      	mov	sl, r1
200051e2:	a80e      	add	r0, sp, #56	; 0x38
200051e4:	4684      	mov	ip, r0
200051e6:	211f      	movs	r1, #31
200051e8:	4461      	add	r1, ip
200051ea:	9509      	str	r5, [sp, #36]	; 0x24
200051ec:	2200      	movs	r2, #0
200051ee:	270f      	movs	r7, #15
200051f0:	46a4      	mov	ip, r4
200051f2:	000d      	movs	r5, r1
200051f4:	e002      	b.n	200051fc <_vsnprintf+0x2cc>
200051f6:	2a20      	cmp	r2, #32
200051f8:	d00c      	beq.n	20005214 <_vsnprintf+0x2e4>
200051fa:	000b      	movs	r3, r1
200051fc:	003c      	movs	r4, r7
200051fe:	401c      	ands	r4, r3
20005200:	0020      	movs	r0, r4
20005202:	3037      	adds	r0, #55	; 0x37
20005204:	2c09      	cmp	r4, #9
20005206:	d800      	bhi.n	2000520a <_vsnprintf+0x2da>
20005208:	3807      	subs	r0, #7
2000520a:	3201      	adds	r2, #1
2000520c:	54a8      	strb	r0, [r5, r2]
2000520e:	0919      	lsrs	r1, r3, #4
20005210:	2b0f      	cmp	r3, #15
20005212:	d8f0      	bhi.n	200051f6 <_vsnprintf+0x2c6>
20005214:	4664      	mov	r4, ip
20005216:	9d09      	ldr	r5, [sp, #36]	; 0x24
20005218:	e0f0      	b.n	200053fc <_vsnprintf+0x4cc>
2000521a:	078b      	lsls	r3, r1, #30
2000521c:	d400      	bmi.n	20005220 <_vsnprintf+0x2f0>
2000521e:	e1d1      	b.n	200055c4 <_vsnprintf+0x694>
20005220:	9b09      	ldr	r3, [sp, #36]	; 0x24
20005222:	002a      	movs	r2, r5
20005224:	4699      	mov	r9, r3
20005226:	1c6b      	adds	r3, r5, #1
20005228:	4698      	mov	r8, r3
2000522a:	464b      	mov	r3, r9
2000522c:	cb01      	ldmia	r3!, {r0}
2000522e:	0021      	movs	r1, r4
20005230:	4699      	mov	r9, r3
20005232:	9f08      	ldr	r7, [sp, #32]
20005234:	465b      	mov	r3, fp
20005236:	b2c0      	uxtb	r0, r0
20005238:	47b8      	blx	r7
2000523a:	9b0a      	ldr	r3, [sp, #40]	; 0x28
2000523c:	469c      	mov	ip, r3
2000523e:	4465      	add	r5, ip
20005240:	2b01      	cmp	r3, #1
20005242:	d800      	bhi.n	20005246 <_vsnprintf+0x316>
20005244:	e290      	b.n	20005768 <_vsnprintf+0x838>
20005246:	46b2      	mov	sl, r6
20005248:	465e      	mov	r6, fp
2000524a:	4647      	mov	r7, r8
2000524c:	46a8      	mov	r8, r5
2000524e:	9d08      	ldr	r5, [sp, #32]
20005250:	003a      	movs	r2, r7
20005252:	0033      	movs	r3, r6
20005254:	3701      	adds	r7, #1
20005256:	0021      	movs	r1, r4
20005258:	2020      	movs	r0, #32
2000525a:	47a8      	blx	r5
2000525c:	4547      	cmp	r7, r8
2000525e:	d1f7      	bne.n	20005250 <_vsnprintf+0x320>
20005260:	46b3      	mov	fp, r6
20005262:	464b      	mov	r3, r9
20005264:	4656      	mov	r6, sl
20005266:	003d      	movs	r5, r7
20005268:	9309      	str	r3, [sp, #36]	; 0x24
2000526a:	3601      	adds	r6, #1
2000526c:	e685      	b.n	20004f7a <_vsnprintf+0x4a>
2000526e:	002a      	movs	r2, r5
20005270:	1c6f      	adds	r7, r5, #1
20005272:	465b      	mov	r3, fp
20005274:	9d08      	ldr	r5, [sp, #32]
20005276:	0021      	movs	r1, r4
20005278:	2025      	movs	r0, #37	; 0x25
2000527a:	47a8      	blx	r5
2000527c:	3601      	adds	r6, #1
2000527e:	003d      	movs	r5, r7
20005280:	e67b      	b.n	20004f7a <_vsnprintf+0x4a>
20005282:	46c0      	nop			; (mov r8, r8)
20005284:	20004f31 	.word	0x20004f31
20005288:	2000d32c 	.word	0x2000d32c
2000528c:	2000bff4 	.word	0x2000bff4
20005290:	2000c038 	.word	0x2000c038
20005294:	2000c084 	.word	0x2000c084
20005298:	9b09      	ldr	r3, [sp, #36]	; 0x24
2000529a:	cb04      	ldmia	r3!, {r2}
2000529c:	4699      	mov	r9, r3
2000529e:	4643      	mov	r3, r8
200052a0:	9209      	str	r2, [sp, #36]	; 0x24
200052a2:	2b00      	cmp	r3, #0
200052a4:	d000      	beq.n	200052a8 <_vsnprintf+0x378>
200052a6:	e097      	b.n	200053d8 <_vsnprintf+0x4a8>
200052a8:	7813      	ldrb	r3, [r2, #0]
200052aa:	469c      	mov	ip, r3
200052ac:	2b00      	cmp	r3, #0
200052ae:	d100      	bne.n	200052b2 <_vsnprintf+0x382>
200052b0:	e3b3      	b.n	20005a1a <_vsnprintf+0xaea>
200052b2:	2302      	movs	r3, #2
200052b4:	425b      	negs	r3, r3
200052b6:	1c5a      	adds	r2, r3, #1
200052b8:	9b09      	ldr	r3, [sp, #36]	; 0x24
200052ba:	4692      	mov	sl, r2
200052bc:	0018      	movs	r0, r3
200052be:	9f0a      	ldr	r7, [sp, #40]	; 0x28
200052c0:	920b      	str	r2, [sp, #44]	; 0x2c
200052c2:	4450      	add	r0, sl
200052c4:	e002      	b.n	200052cc <_vsnprintf+0x39c>
200052c6:	4283      	cmp	r3, r0
200052c8:	d100      	bne.n	200052cc <_vsnprintf+0x39c>
200052ca:	e169      	b.n	200055a0 <_vsnprintf+0x670>
200052cc:	785a      	ldrb	r2, [r3, #1]
200052ce:	3301      	adds	r3, #1
200052d0:	2a00      	cmp	r2, #0
200052d2:	d1f8      	bne.n	200052c6 <_vsnprintf+0x396>
200052d4:	9a09      	ldr	r2, [sp, #36]	; 0x24
200052d6:	970a      	str	r7, [sp, #40]	; 0x28
200052d8:	1a9b      	subs	r3, r3, r2
200052da:	930b      	str	r3, [sp, #44]	; 0x2c
200052dc:	2380      	movs	r3, #128	; 0x80
200052de:	000a      	movs	r2, r1
200052e0:	00db      	lsls	r3, r3, #3
200052e2:	401a      	ands	r2, r3
200052e4:	920c      	str	r2, [sp, #48]	; 0x30
200052e6:	4219      	tst	r1, r3
200052e8:	d004      	beq.n	200052f4 <_vsnprintf+0x3c4>
200052ea:	9b0b      	ldr	r3, [sp, #44]	; 0x2c
200052ec:	4543      	cmp	r3, r8
200052ee:	d901      	bls.n	200052f4 <_vsnprintf+0x3c4>
200052f0:	4643      	mov	r3, r8
200052f2:	930b      	str	r3, [sp, #44]	; 0x2c
200052f4:	2302      	movs	r3, #2
200052f6:	001a      	movs	r2, r3
200052f8:	400a      	ands	r2, r1
200052fa:	920d      	str	r2, [sp, #52]	; 0x34
200052fc:	420b      	tst	r3, r1
200052fe:	d100      	bne.n	20005302 <_vsnprintf+0x3d2>
20005300:	e184      	b.n	2000560c <_vsnprintf+0x6dc>
20005302:	4660      	mov	r0, ip
20005304:	2800      	cmp	r0, #0
20005306:	d023      	beq.n	20005350 <_vsnprintf+0x420>
20005308:	9b0c      	ldr	r3, [sp, #48]	; 0x30
2000530a:	2b00      	cmp	r3, #0
2000530c:	d100      	bne.n	20005310 <_vsnprintf+0x3e0>
2000530e:	e124      	b.n	2000555a <_vsnprintf+0x62a>
20005310:	44a8      	add	r8, r5
20005312:	46c2      	mov	sl, r8
20005314:	9b09      	ldr	r3, [sp, #36]	; 0x24
20005316:	4657      	mov	r7, sl
20005318:	1b5b      	subs	r3, r3, r5
2000531a:	4698      	mov	r8, r3
2000531c:	9b08      	ldr	r3, [sp, #32]
2000531e:	46b2      	mov	sl, r6
20005320:	002a      	movs	r2, r5
20005322:	0026      	movs	r6, r4
20005324:	465c      	mov	r4, fp
20005326:	469b      	mov	fp, r3
20005328:	e009      	b.n	2000533e <_vsnprintf+0x40e>
2000532a:	0023      	movs	r3, r4
2000532c:	0031      	movs	r1, r6
2000532e:	1c55      	adds	r5, r2, #1
20005330:	47d8      	blx	fp
20005332:	4643      	mov	r3, r8
20005334:	5d58      	ldrb	r0, [r3, r5]
20005336:	2800      	cmp	r0, #0
20005338:	d100      	bne.n	2000533c <_vsnprintf+0x40c>
2000533a:	e13f      	b.n	200055bc <_vsnprintf+0x68c>
2000533c:	002a      	movs	r2, r5
2000533e:	4297      	cmp	r7, r2
20005340:	d1f3      	bne.n	2000532a <_vsnprintf+0x3fa>
20005342:	46a3      	mov	fp, r4
20005344:	003d      	movs	r5, r7
20005346:	0034      	movs	r4, r6
20005348:	4656      	mov	r6, sl
2000534a:	9b0d      	ldr	r3, [sp, #52]	; 0x34
2000534c:	2b00      	cmp	r3, #0
2000534e:	d069      	beq.n	20005424 <_vsnprintf+0x4f4>
20005350:	9b0b      	ldr	r3, [sp, #44]	; 0x2c
20005352:	990a      	ldr	r1, [sp, #40]	; 0x28
20005354:	46a8      	mov	r8, r5
20005356:	4299      	cmp	r1, r3
20005358:	d964      	bls.n	20005424 <_vsnprintf+0x4f4>
2000535a:	468c      	mov	ip, r1
2000535c:	4465      	add	r5, ip
2000535e:	1aed      	subs	r5, r5, r3
20005360:	9b08      	ldr	r3, [sp, #32]
20005362:	4647      	mov	r7, r8
20005364:	469a      	mov	sl, r3
20005366:	46b0      	mov	r8, r6
20005368:	0026      	movs	r6, r4
2000536a:	465c      	mov	r4, fp
2000536c:	003a      	movs	r2, r7
2000536e:	0023      	movs	r3, r4
20005370:	3701      	adds	r7, #1
20005372:	0031      	movs	r1, r6
20005374:	2020      	movs	r0, #32
20005376:	47d0      	blx	sl
20005378:	42af      	cmp	r7, r5
2000537a:	d1f7      	bne.n	2000536c <_vsnprintf+0x43c>
2000537c:	46a3      	mov	fp, r4
2000537e:	0034      	movs	r4, r6
20005380:	4646      	mov	r6, r8
20005382:	e04f      	b.n	20005424 <_vsnprintf+0x4f4>
20005384:	4bd2      	ldr	r3, [pc, #840]	; (200056d0 <_vsnprintf+0x7a0>)
20005386:	7820      	ldrb	r0, [r4, #0]
20005388:	9308      	str	r3, [sp, #32]
2000538a:	2300      	movs	r3, #0
2000538c:	469a      	mov	sl, r3
2000538e:	2800      	cmp	r0, #0
20005390:	d000      	beq.n	20005394 <_vsnprintf+0x464>
20005392:	e5e6      	b.n	20004f62 <_vsnprintf+0x32>
20005394:	2400      	movs	r4, #0
20005396:	e671      	b.n	2000507c <_vsnprintf+0x14c>
20005398:	4643      	mov	r3, r8
2000539a:	0006      	movs	r6, r0
2000539c:	9f0a      	ldr	r7, [sp, #40]	; 0x28
2000539e:	0098      	lsls	r0, r3, #2
200053a0:	18c0      	adds	r0, r0, r3
200053a2:	3201      	adds	r2, #1
200053a4:	0040      	lsls	r0, r0, #1
200053a6:	1980      	adds	r0, r0, r6
200053a8:	7816      	ldrb	r6, [r2, #0]
200053aa:	0003      	movs	r3, r0
200053ac:	0030      	movs	r0, r6
200053ae:	3830      	subs	r0, #48	; 0x30
200053b0:	3b30      	subs	r3, #48	; 0x30
200053b2:	2809      	cmp	r0, #9
200053b4:	d9f3      	bls.n	2000539e <_vsnprintf+0x46e>
200053b6:	0030      	movs	r0, r6
200053b8:	4698      	mov	r8, r3
200053ba:	0016      	movs	r6, r2
200053bc:	970a      	str	r7, [sp, #40]	; 0x28
200053be:	e603      	b.n	20004fc8 <_vsnprintf+0x98>
200053c0:	9b09      	ldr	r3, [sp, #36]	; 0x24
200053c2:	3602      	adds	r6, #2
200053c4:	cb04      	ldmia	r3!, {r2}
200053c6:	4690      	mov	r8, r2
200053c8:	43d2      	mvns	r2, r2
200053ca:	4640      	mov	r0, r8
200053cc:	17d2      	asrs	r2, r2, #31
200053ce:	4010      	ands	r0, r2
200053d0:	4680      	mov	r8, r0
200053d2:	9309      	str	r3, [sp, #36]	; 0x24
200053d4:	7830      	ldrb	r0, [r6, #0]
200053d6:	e5f7      	b.n	20004fc8 <_vsnprintf+0x98>
200053d8:	7813      	ldrb	r3, [r2, #0]
200053da:	469c      	mov	ip, r3
200053dc:	2b00      	cmp	r3, #0
200053de:	d100      	bne.n	200053e2 <_vsnprintf+0x4b2>
200053e0:	e31a      	b.n	20005a18 <_vsnprintf+0xae8>
200053e2:	4643      	mov	r3, r8
200053e4:	3b01      	subs	r3, #1
200053e6:	e766      	b.n	200052b6 <_vsnprintf+0x386>
200053e8:	2210      	movs	r2, #16
200053ea:	0008      	movs	r0, r1
200053ec:	4390      	bics	r0, r2
200053ee:	3211      	adds	r2, #17
200053f0:	4310      	orrs	r0, r2
200053f2:	4682      	mov	sl, r0
200053f4:	2200      	movs	r2, #0
200053f6:	0549      	lsls	r1, r1, #21
200053f8:	d400      	bmi.n	200053fc <_vsnprintf+0x4cc>
200053fa:	e6f2      	b.n	200051e2 <_vsnprintf+0x2b2>
200053fc:	4653      	mov	r3, sl
200053fe:	9306      	str	r3, [sp, #24]
20005400:	2308      	movs	r3, #8
20005402:	9305      	str	r3, [sp, #20]
20005404:	4643      	mov	r3, r8
20005406:	9304      	str	r3, [sp, #16]
20005408:	2310      	movs	r3, #16
2000540a:	9303      	str	r3, [sp, #12]
2000540c:	2300      	movs	r3, #0
2000540e:	9302      	str	r3, [sp, #8]
20005410:	ab16      	add	r3, sp, #88	; 0x58
20005412:	9201      	str	r2, [sp, #4]
20005414:	9300      	str	r3, [sp, #0]
20005416:	002a      	movs	r2, r5
20005418:	465b      	mov	r3, fp
2000541a:	0021      	movs	r1, r4
2000541c:	9808      	ldr	r0, [sp, #32]
2000541e:	f7ff f863 	bl	200044e8 <_ntoa_format>
20005422:	0005      	movs	r5, r0
20005424:	464b      	mov	r3, r9
20005426:	3601      	adds	r6, #1
20005428:	9309      	str	r3, [sp, #36]	; 0x24
2000542a:	e5a6      	b.n	20004f7a <_vsnprintf+0x4a>
2000542c:	2320      	movs	r3, #32
2000542e:	0002      	movs	r2, r0
20005430:	439a      	bics	r2, r3
20005432:	2a47      	cmp	r2, #71	; 0x47
20005434:	d104      	bne.n	20005440 <_vsnprintf+0x510>
20005436:	2380      	movs	r3, #128	; 0x80
20005438:	011b      	lsls	r3, r3, #4
2000543a:	4319      	orrs	r1, r3
2000543c:	2302      	movs	r3, #2
2000543e:	4398      	bics	r0, r3
20005440:	2845      	cmp	r0, #69	; 0x45
20005442:	d101      	bne.n	20005448 <_vsnprintf+0x518>
20005444:	2320      	movs	r3, #32
20005446:	4319      	orrs	r1, r3
20005448:	2207      	movs	r2, #7
2000544a:	9b09      	ldr	r3, [sp, #36]	; 0x24
2000544c:	9104      	str	r1, [sp, #16]
2000544e:	3307      	adds	r3, #7
20005450:	4393      	bics	r3, r2
20005452:	9a0a      	ldr	r2, [sp, #40]	; 0x28
20005454:	0019      	movs	r1, r3
20005456:	9203      	str	r2, [sp, #12]
20005458:	4642      	mov	r2, r8
2000545a:	9202      	str	r2, [sp, #8]
2000545c:	c90c      	ldmia	r1!, {r2, r3}
2000545e:	9808      	ldr	r0, [sp, #32]
20005460:	9200      	str	r2, [sp, #0]
20005462:	9301      	str	r3, [sp, #4]
20005464:	9109      	str	r1, [sp, #36]	; 0x24
20005466:	002a      	movs	r2, r5
20005468:	465b      	mov	r3, fp
2000546a:	0021      	movs	r1, r4
2000546c:	f7ff f934 	bl	200046d8 <_etoa>
20005470:	3601      	adds	r6, #1
20005472:	0005      	movs	r5, r0
20005474:	e581      	b.n	20004f7a <_vsnprintf+0x4a>
20005476:	2310      	movs	r3, #16
20005478:	930c      	str	r3, [sp, #48]	; 0x30
2000547a:	230c      	movs	r3, #12
2000547c:	000a      	movs	r2, r1
2000547e:	439a      	bics	r2, r3
20005480:	920b      	str	r2, [sp, #44]	; 0x2c
20005482:	054b      	lsls	r3, r1, #21
20005484:	d400      	bmi.n	20005488 <_vsnprintf+0x558>
20005486:	e63b      	b.n	20005100 <_vsnprintf+0x1d0>
20005488:	e636      	b.n	200050f8 <_vsnprintf+0x1c8>
2000548a:	2320      	movs	r3, #32
2000548c:	4319      	orrs	r1, r3
2000548e:	e687      	b.n	200051a0 <_vsnprintf+0x270>
20005490:	2302      	movs	r3, #2
20005492:	930c      	str	r3, [sp, #48]	; 0x30
20005494:	910b      	str	r1, [sp, #44]	; 0x2c
20005496:	990b      	ldr	r1, [sp, #44]	; 0x2c
20005498:	2864      	cmp	r0, #100	; 0x64
2000549a:	d1ee      	bne.n	2000547a <_vsnprintf+0x54a>
2000549c:	9b0b      	ldr	r3, [sp, #44]	; 0x2c
2000549e:	055b      	lsls	r3, r3, #21
200054a0:	d500      	bpl.n	200054a4 <_vsnprintf+0x574>
200054a2:	e629      	b.n	200050f8 <_vsnprintf+0x1c8>
200054a4:	9a0b      	ldr	r2, [sp, #44]	; 0x2c
200054a6:	2380      	movs	r3, #128	; 0x80
200054a8:	0011      	movs	r1, r2
200054aa:	009b      	lsls	r3, r3, #2
200054ac:	4019      	ands	r1, r3
200054ae:	468a      	mov	sl, r1
200054b0:	421a      	tst	r2, r3
200054b2:	d000      	beq.n	200054b6 <_vsnprintf+0x586>
200054b4:	e0ce      	b.n	20005654 <_vsnprintf+0x724>
200054b6:	2380      	movs	r3, #128	; 0x80
200054b8:	0011      	movs	r1, r2
200054ba:	005b      	lsls	r3, r3, #1
200054bc:	4019      	ands	r1, r3
200054be:	4689      	mov	r9, r1
200054c0:	421a      	tst	r2, r3
200054c2:	d000      	beq.n	200054c6 <_vsnprintf+0x596>
200054c4:	e1db      	b.n	2000587e <_vsnprintf+0x94e>
200054c6:	0013      	movs	r3, r2
200054c8:	065b      	lsls	r3, r3, #25
200054ca:	d500      	bpl.n	200054ce <_vsnprintf+0x59e>
200054cc:	e11d      	b.n	2000570a <_vsnprintf+0x7da>
200054ce:	9b0b      	ldr	r3, [sp, #44]	; 0x2c
200054d0:	9909      	ldr	r1, [sp, #36]	; 0x24
200054d2:	061b      	lsls	r3, r3, #24
200054d4:	d400      	bmi.n	200054d8 <_vsnprintf+0x5a8>
200054d6:	e299      	b.n	20005a0c <_vsnprintf+0xadc>
200054d8:	c908      	ldmia	r1!, {r3}
200054da:	b21b      	sxth	r3, r3
200054dc:	17d8      	asrs	r0, r3, #31
200054de:	181a      	adds	r2, r3, r0
200054e0:	4042      	eors	r2, r0
200054e2:	b292      	uxth	r2, r2
200054e4:	9109      	str	r1, [sp, #36]	; 0x24
200054e6:	4692      	mov	sl, r2
200054e8:	0fda      	lsrs	r2, r3, #31
200054ea:	9212      	str	r2, [sp, #72]	; 0x48
200054ec:	2b00      	cmp	r3, #0
200054ee:	d109      	bne.n	20005504 <_vsnprintf+0x5d4>
200054f0:	2380      	movs	r3, #128	; 0x80
200054f2:	2210      	movs	r2, #16
200054f4:	990b      	ldr	r1, [sp, #44]	; 0x2c
200054f6:	00db      	lsls	r3, r3, #3
200054f8:	400b      	ands	r3, r1
200054fa:	4391      	bics	r1, r2
200054fc:	910b      	str	r1, [sp, #44]	; 0x2c
200054fe:	2b00      	cmp	r3, #0
20005500:	d000      	beq.n	20005504 <_vsnprintf+0x5d4>
20005502:	e112      	b.n	2000572a <_vsnprintf+0x7fa>
20005504:	9a0b      	ldr	r2, [sp, #44]	; 0x2c
20005506:	2361      	movs	r3, #97	; 0x61
20005508:	0692      	lsls	r2, r2, #26
2000550a:	d500      	bpl.n	2000550e <_vsnprintf+0x5de>
2000550c:	2341      	movs	r3, #65	; 0x41
2000550e:	a90e      	add	r1, sp, #56	; 0x38
20005510:	221f      	movs	r2, #31
20005512:	468c      	mov	ip, r1
20005514:	b2db      	uxtb	r3, r3
20005516:	4462      	add	r2, ip
20005518:	3b0a      	subs	r3, #10
2000551a:	4657      	mov	r7, sl
2000551c:	9513      	str	r5, [sp, #76]	; 0x4c
2000551e:	46a2      	mov	sl, r4
20005520:	464d      	mov	r5, r9
20005522:	9c0c      	ldr	r4, [sp, #48]	; 0x30
20005524:	46b1      	mov	r9, r6
20005526:	930d      	str	r3, [sp, #52]	; 0x34
20005528:	0016      	movs	r6, r2
2000552a:	e00a      	b.n	20005542 <_vsnprintf+0x612>
2000552c:	3330      	adds	r3, #48	; 0x30
2000552e:	b2db      	uxtb	r3, r3
20005530:	3501      	adds	r5, #1
20005532:	5573      	strb	r3, [r6, r5]
20005534:	42a7      	cmp	r7, r4
20005536:	d200      	bcs.n	2000553a <_vsnprintf+0x60a>
20005538:	e11c      	b.n	20005774 <_vsnprintf+0x844>
2000553a:	2d20      	cmp	r5, #32
2000553c:	d100      	bne.n	20005540 <_vsnprintf+0x610>
2000553e:	e119      	b.n	20005774 <_vsnprintf+0x844>
20005540:	0007      	movs	r7, r0
20005542:	0021      	movs	r1, r4
20005544:	0038      	movs	r0, r7
20005546:	f000 fb11 	bl	20005b6c <__wrap___aeabi_uidiv>
2000554a:	b2cb      	uxtb	r3, r1
2000554c:	2909      	cmp	r1, #9
2000554e:	d9ed      	bls.n	2000552c <_vsnprintf+0x5fc>
20005550:	9a0d      	ldr	r2, [sp, #52]	; 0x34
20005552:	4694      	mov	ip, r2
20005554:	4463      	add	r3, ip
20005556:	b2db      	uxtb	r3, r3
20005558:	e7ea      	b.n	20005530 <_vsnprintf+0x600>
2000555a:	9b09      	ldr	r3, [sp, #36]	; 0x24
2000555c:	465f      	mov	r7, fp
2000555e:	1b5b      	subs	r3, r3, r5
20005560:	4698      	mov	r8, r3
20005562:	9b0a      	ldr	r3, [sp, #40]	; 0x28
20005564:	46b3      	mov	fp, r6
20005566:	469a      	mov	sl, r3
20005568:	0026      	movs	r6, r4
2000556a:	9c08      	ldr	r4, [sp, #32]
2000556c:	002a      	movs	r2, r5
2000556e:	003b      	movs	r3, r7
20005570:	0031      	movs	r1, r6
20005572:	47a0      	blx	r4
20005574:	4643      	mov	r3, r8
20005576:	3501      	adds	r5, #1
20005578:	5d58      	ldrb	r0, [r3, r5]
2000557a:	2800      	cmp	r0, #0
2000557c:	d1f6      	bne.n	2000556c <_vsnprintf+0x63c>
2000557e:	4653      	mov	r3, sl
20005580:	0034      	movs	r4, r6
20005582:	930a      	str	r3, [sp, #40]	; 0x28
20005584:	465e      	mov	r6, fp
20005586:	46bb      	mov	fp, r7
20005588:	e6df      	b.n	2000534a <_vsnprintf+0x41a>
2000558a:	23c0      	movs	r3, #192	; 0xc0
2000558c:	009b      	lsls	r3, r3, #2
2000558e:	78b0      	ldrb	r0, [r6, #2]
20005590:	4319      	orrs	r1, r3
20005592:	3602      	adds	r6, #2
20005594:	e53d      	b.n	20005012 <_vsnprintf+0xe2>
20005596:	23c0      	movs	r3, #192	; 0xc0
20005598:	78b0      	ldrb	r0, [r6, #2]
2000559a:	4319      	orrs	r1, r3
2000559c:	3602      	adds	r6, #2
2000559e:	e538      	b.n	20005012 <_vsnprintf+0xe2>
200055a0:	970a      	str	r7, [sp, #40]	; 0x28
200055a2:	e69b      	b.n	200052dc <_vsnprintf+0x3ac>
200055a4:	230c      	movs	r3, #12
200055a6:	000a      	movs	r2, r1
200055a8:	439a      	bics	r2, r3
200055aa:	3314      	adds	r3, #20
200055ac:	431a      	orrs	r2, r3
200055ae:	2310      	movs	r3, #16
200055b0:	920b      	str	r2, [sp, #44]	; 0x2c
200055b2:	930c      	str	r3, [sp, #48]	; 0x30
200055b4:	054b      	lsls	r3, r1, #21
200055b6:	d400      	bmi.n	200055ba <_vsnprintf+0x68a>
200055b8:	e5a8      	b.n	2000510c <_vsnprintf+0x1dc>
200055ba:	e59d      	b.n	200050f8 <_vsnprintf+0x1c8>
200055bc:	46a3      	mov	fp, r4
200055be:	0034      	movs	r4, r6
200055c0:	4656      	mov	r6, sl
200055c2:	e6c2      	b.n	2000534a <_vsnprintf+0x41a>
200055c4:	9a0a      	ldr	r2, [sp, #40]	; 0x28
200055c6:	2a01      	cmp	r2, #1
200055c8:	d800      	bhi.n	200055cc <_vsnprintf+0x69c>
200055ca:	e22e      	b.n	20005a2a <_vsnprintf+0xafa>
200055cc:	1e6b      	subs	r3, r5, #1
200055ce:	189f      	adds	r7, r3, r2
200055d0:	9b08      	ldr	r3, [sp, #32]
200055d2:	46b0      	mov	r8, r6
200055d4:	4699      	mov	r9, r3
200055d6:	0026      	movs	r6, r4
200055d8:	465c      	mov	r4, fp
200055da:	002a      	movs	r2, r5
200055dc:	0023      	movs	r3, r4
200055de:	3501      	adds	r5, #1
200055e0:	0031      	movs	r1, r6
200055e2:	2020      	movs	r0, #32
200055e4:	47c8      	blx	r9
200055e6:	42bd      	cmp	r5, r7
200055e8:	d1f7      	bne.n	200055da <_vsnprintf+0x6aa>
200055ea:	46a3      	mov	fp, r4
200055ec:	0034      	movs	r4, r6
200055ee:	4646      	mov	r6, r8
200055f0:	9b09      	ldr	r3, [sp, #36]	; 0x24
200055f2:	003a      	movs	r2, r7
200055f4:	cb01      	ldmia	r3!, {r0}
200055f6:	0021      	movs	r1, r4
200055f8:	4698      	mov	r8, r3
200055fa:	1c7d      	adds	r5, r7, #1
200055fc:	465b      	mov	r3, fp
200055fe:	9f08      	ldr	r7, [sp, #32]
20005600:	b2c0      	uxtb	r0, r0
20005602:	47b8      	blx	r7
20005604:	4643      	mov	r3, r8
20005606:	3601      	adds	r6, #1
20005608:	9309      	str	r3, [sp, #36]	; 0x24
2000560a:	e4b6      	b.n	20004f7a <_vsnprintf+0x4a>
2000560c:	9a0b      	ldr	r2, [sp, #44]	; 0x2c
2000560e:	980a      	ldr	r0, [sp, #40]	; 0x28
20005610:	1c53      	adds	r3, r2, #1
20005612:	4290      	cmp	r0, r2
20005614:	d800      	bhi.n	20005618 <_vsnprintf+0x6e8>
20005616:	e20a      	b.n	20005a2e <_vsnprintf+0xafe>
20005618:	1943      	adds	r3, r0, r5
2000561a:	1a9b      	subs	r3, r3, r2
2000561c:	001f      	movs	r7, r3
2000561e:	9b08      	ldr	r3, [sp, #32]
20005620:	46b2      	mov	sl, r6
20005622:	0026      	movs	r6, r4
20005624:	465c      	mov	r4, fp
20005626:	469b      	mov	fp, r3
20005628:	002a      	movs	r2, r5
2000562a:	0023      	movs	r3, r4
2000562c:	3501      	adds	r5, #1
2000562e:	0031      	movs	r1, r6
20005630:	2020      	movs	r0, #32
20005632:	47d8      	blx	fp
20005634:	42bd      	cmp	r5, r7
20005636:	d1f7      	bne.n	20005628 <_vsnprintf+0x6f8>
20005638:	9b0a      	ldr	r3, [sp, #40]	; 0x28
2000563a:	46a3      	mov	fp, r4
2000563c:	3301      	adds	r3, #1
2000563e:	930b      	str	r3, [sp, #44]	; 0x2c
20005640:	9b09      	ldr	r3, [sp, #36]	; 0x24
20005642:	0034      	movs	r4, r6
20005644:	781b      	ldrb	r3, [r3, #0]
20005646:	4656      	mov	r6, sl
20005648:	469c      	mov	ip, r3
2000564a:	4660      	mov	r0, ip
2000564c:	2800      	cmp	r0, #0
2000564e:	d000      	beq.n	20005652 <_vsnprintf+0x722>
20005650:	e65a      	b.n	20005308 <_vsnprintf+0x3d8>
20005652:	e6e7      	b.n	20005424 <_vsnprintf+0x4f4>
20005654:	2207      	movs	r2, #7
20005656:	9b09      	ldr	r3, [sp, #36]	; 0x24
20005658:	3307      	adds	r3, #7
2000565a:	4393      	bics	r3, r2
2000565c:	3201      	adds	r2, #1
2000565e:	4694      	mov	ip, r2
20005660:	449c      	add	ip, r3
20005662:	4662      	mov	r2, ip
20005664:	685f      	ldr	r7, [r3, #4]
20005666:	9209      	str	r2, [sp, #36]	; 0x24
20005668:	681a      	ldr	r2, [r3, #0]
2000566a:	17fb      	asrs	r3, r7, #31
2000566c:	9310      	str	r3, [sp, #64]	; 0x40
2000566e:	9311      	str	r3, [sp, #68]	; 0x44
20005670:	9810      	ldr	r0, [sp, #64]	; 0x40
20005672:	9911      	ldr	r1, [sp, #68]	; 0x44
20005674:	0003      	movs	r3, r0
20005676:	4053      	eors	r3, r2
20005678:	930e      	str	r3, [sp, #56]	; 0x38
2000567a:	000b      	movs	r3, r1
2000567c:	407b      	eors	r3, r7
2000567e:	930f      	str	r3, [sp, #60]	; 0x3c
20005680:	4694      	mov	ip, r2
20005682:	9a0e      	ldr	r2, [sp, #56]	; 0x38
20005684:	9b0f      	ldr	r3, [sp, #60]	; 0x3c
20005686:	1a12      	subs	r2, r2, r0
20005688:	418b      	sbcs	r3, r1
2000568a:	920e      	str	r2, [sp, #56]	; 0x38
2000568c:	930f      	str	r3, [sp, #60]	; 0x3c
2000568e:	0ffb      	lsrs	r3, r7, #31
20005690:	4662      	mov	r2, ip
20005692:	9312      	str	r3, [sp, #72]	; 0x48
20005694:	2300      	movs	r3, #0
20005696:	433a      	orrs	r2, r7
20005698:	469a      	mov	sl, r3
2000569a:	d03d      	beq.n	20005718 <_vsnprintf+0x7e8>
2000569c:	9a0b      	ldr	r2, [sp, #44]	; 0x2c
2000569e:	2361      	movs	r3, #97	; 0x61
200056a0:	0692      	lsls	r2, r2, #26
200056a2:	d500      	bpl.n	200056a6 <_vsnprintf+0x776>
200056a4:	2341      	movs	r3, #65	; 0x41
200056a6:	2200      	movs	r2, #0
200056a8:	b2db      	uxtb	r3, r3
200056aa:	a90e      	add	r1, sp, #56	; 0x38
200056ac:	3b0a      	subs	r3, #10
200056ae:	468c      	mov	ip, r1
200056b0:	4691      	mov	r9, r2
200056b2:	930d      	str	r3, [sp, #52]	; 0x34
200056b4:	4643      	mov	r3, r8
200056b6:	321f      	adds	r2, #31
200056b8:	4462      	add	r2, ip
200056ba:	9513      	str	r5, [sp, #76]	; 0x4c
200056bc:	9615      	str	r6, [sp, #84]	; 0x54
200056be:	464d      	mov	r5, r9
200056c0:	9e0e      	ldr	r6, [sp, #56]	; 0x38
200056c2:	9f0f      	ldr	r7, [sp, #60]	; 0x3c
200056c4:	46a1      	mov	r9, r4
200056c6:	4690      	mov	r8, r2
200056c8:	9c0c      	ldr	r4, [sp, #48]	; 0x30
200056ca:	9314      	str	r3, [sp, #80]	; 0x50
200056cc:	e00f      	b.n	200056ee <_vsnprintf+0x7be>
200056ce:	46c0      	nop			; (mov r8, r8)
200056d0:	20004415 	.word	0x20004415
200056d4:	3230      	adds	r2, #48	; 0x30
200056d6:	b2d2      	uxtb	r2, r2
200056d8:	4643      	mov	r3, r8
200056da:	3501      	adds	r5, #1
200056dc:	555a      	strb	r2, [r3, r5]
200056de:	45ba      	cmp	sl, r7
200056e0:	d100      	bne.n	200056e4 <_vsnprintf+0x7b4>
200056e2:	e17c      	b.n	200059de <_vsnprintf+0xaae>
200056e4:	2d20      	cmp	r5, #32
200056e6:	d100      	bne.n	200056ea <_vsnprintf+0x7ba>
200056e8:	e17c      	b.n	200059e4 <_vsnprintf+0xab4>
200056ea:	0006      	movs	r6, r0
200056ec:	000f      	movs	r7, r1
200056ee:	0022      	movs	r2, r4
200056f0:	2300      	movs	r3, #0
200056f2:	0030      	movs	r0, r6
200056f4:	0039      	movs	r1, r7
200056f6:	f000 fa7b 	bl	20005bf0 <__wrap___aeabi_uldivmod>
200056fa:	b2d2      	uxtb	r2, r2
200056fc:	2a09      	cmp	r2, #9
200056fe:	d9e9      	bls.n	200056d4 <_vsnprintf+0x7a4>
20005700:	9b0d      	ldr	r3, [sp, #52]	; 0x34
20005702:	469c      	mov	ip, r3
20005704:	4462      	add	r2, ip
20005706:	b2d2      	uxtb	r2, r2
20005708:	e7e6      	b.n	200056d8 <_vsnprintf+0x7a8>
2000570a:	23ff      	movs	r3, #255	; 0xff
2000570c:	9909      	ldr	r1, [sp, #36]	; 0x24
2000570e:	c904      	ldmia	r1!, {r2}
20005710:	4013      	ands	r3, r2
20005712:	001a      	movs	r2, r3
20005714:	9109      	str	r1, [sp, #36]	; 0x24
20005716:	e6e6      	b.n	200054e6 <_vsnprintf+0x5b6>
20005718:	9a0b      	ldr	r2, [sp, #44]	; 0x2c
2000571a:	3310      	adds	r3, #16
2000571c:	0011      	movs	r1, r2
2000571e:	4399      	bics	r1, r3
20005720:	910b      	str	r1, [sp, #44]	; 0x2c
20005722:	0552      	lsls	r2, r2, #21
20005724:	d5ba      	bpl.n	2000569c <_vsnprintf+0x76c>
20005726:	2300      	movs	r3, #0
20005728:	4699      	mov	r9, r3
2000572a:	9b0b      	ldr	r3, [sp, #44]	; 0x2c
2000572c:	9306      	str	r3, [sp, #24]
2000572e:	9b0a      	ldr	r3, [sp, #40]	; 0x28
20005730:	9305      	str	r3, [sp, #20]
20005732:	4643      	mov	r3, r8
20005734:	9304      	str	r3, [sp, #16]
20005736:	9b0c      	ldr	r3, [sp, #48]	; 0x30
20005738:	9303      	str	r3, [sp, #12]
2000573a:	9b12      	ldr	r3, [sp, #72]	; 0x48
2000573c:	9302      	str	r3, [sp, #8]
2000573e:	464b      	mov	r3, r9
20005740:	9301      	str	r3, [sp, #4]
20005742:	ab16      	add	r3, sp, #88	; 0x58
20005744:	002a      	movs	r2, r5
20005746:	9300      	str	r3, [sp, #0]
20005748:	0021      	movs	r1, r4
2000574a:	465b      	mov	r3, fp
2000574c:	9808      	ldr	r0, [sp, #32]
2000574e:	f7fe fecb 	bl	200044e8 <_ntoa_format>
20005752:	3601      	adds	r6, #1
20005754:	0005      	movs	r5, r0
20005756:	f7ff fc10 	bl	20004f7a <_vsnprintf+0x4a>
2000575a:	22ff      	movs	r2, #255	; 0xff
2000575c:	9b09      	ldr	r3, [sp, #36]	; 0x24
2000575e:	cb02      	ldmia	r3!, {r1}
20005760:	4011      	ands	r1, r2
20005762:	468a      	mov	sl, r1
20005764:	9309      	str	r3, [sp, #36]	; 0x24
20005766:	e4f2      	b.n	2000514e <_vsnprintf+0x21e>
20005768:	464b      	mov	r3, r9
2000576a:	4645      	mov	r5, r8
2000576c:	9309      	str	r3, [sp, #36]	; 0x24
2000576e:	3601      	adds	r6, #1
20005770:	f7ff fc03 	bl	20004f7a <_vsnprintf+0x4a>
20005774:	464e      	mov	r6, r9
20005776:	4654      	mov	r4, sl
20005778:	46a9      	mov	r9, r5
2000577a:	9d13      	ldr	r5, [sp, #76]	; 0x4c
2000577c:	e7d5      	b.n	2000572a <_vsnprintf+0x7fa>
2000577e:	2308      	movs	r3, #8
20005780:	930c      	str	r3, [sp, #48]	; 0x30
20005782:	e687      	b.n	20005494 <_vsnprintf+0x564>
20005784:	2207      	movs	r2, #7
20005786:	9b09      	ldr	r3, [sp, #36]	; 0x24
20005788:	3307      	adds	r3, #7
2000578a:	4393      	bics	r3, r2
2000578c:	3201      	adds	r2, #1
2000578e:	4694      	mov	ip, r2
20005790:	449c      	add	ip, r3
20005792:	4662      	mov	r2, ip
20005794:	9209      	str	r2, [sp, #36]	; 0x24
20005796:	681a      	ldr	r2, [r3, #0]
20005798:	685b      	ldr	r3, [r3, #4]
2000579a:	0010      	movs	r0, r2
2000579c:	469a      	mov	sl, r3
2000579e:	0013      	movs	r3, r2
200057a0:	4652      	mov	r2, sl
200057a2:	4313      	orrs	r3, r2
200057a4:	d107      	bne.n	200057b6 <_vsnprintf+0x886>
200057a6:	9a0b      	ldr	r2, [sp, #44]	; 0x2c
200057a8:	3310      	adds	r3, #16
200057aa:	0011      	movs	r1, r2
200057ac:	4399      	bics	r1, r3
200057ae:	910b      	str	r1, [sp, #44]	; 0x2c
200057b0:	0552      	lsls	r2, r2, #21
200057b2:	d500      	bpl.n	200057b6 <_vsnprintf+0x886>
200057b4:	e4d7      	b.n	20005166 <_vsnprintf+0x236>
200057b6:	9a0b      	ldr	r2, [sp, #44]	; 0x2c
200057b8:	2361      	movs	r3, #97	; 0x61
200057ba:	0692      	lsls	r2, r2, #26
200057bc:	d500      	bpl.n	200057c0 <_vsnprintf+0x890>
200057be:	2341      	movs	r3, #65	; 0x41
200057c0:	2200      	movs	r2, #0
200057c2:	b2db      	uxtb	r3, r3
200057c4:	a90e      	add	r1, sp, #56	; 0x38
200057c6:	3b0a      	subs	r3, #10
200057c8:	468c      	mov	ip, r1
200057ca:	4691      	mov	r9, r2
200057cc:	930d      	str	r3, [sp, #52]	; 0x34
200057ce:	4643      	mov	r3, r8
200057d0:	321f      	adds	r2, #31
200057d2:	4462      	add	r2, ip
200057d4:	4657      	mov	r7, sl
200057d6:	9512      	str	r5, [sp, #72]	; 0x48
200057d8:	46a2      	mov	sl, r4
200057da:	464d      	mov	r5, r9
200057dc:	0004      	movs	r4, r0
200057de:	46b1      	mov	r9, r6
200057e0:	4690      	mov	r8, r2
200057e2:	9e0c      	ldr	r6, [sp, #48]	; 0x30
200057e4:	9313      	str	r3, [sp, #76]	; 0x4c
200057e6:	e00d      	b.n	20005804 <_vsnprintf+0x8d4>
200057e8:	3230      	adds	r2, #48	; 0x30
200057ea:	b2d2      	uxtb	r2, r2
200057ec:	4643      	mov	r3, r8
200057ee:	3501      	adds	r5, #1
200057f0:	555a      	strb	r2, [r3, r5]
200057f2:	2300      	movs	r3, #0
200057f4:	42bb      	cmp	r3, r7
200057f6:	d100      	bne.n	200057fa <_vsnprintf+0x8ca>
200057f8:	e0fd      	b.n	200059f6 <_vsnprintf+0xac6>
200057fa:	2d20      	cmp	r5, #32
200057fc:	d100      	bne.n	20005800 <_vsnprintf+0x8d0>
200057fe:	e0fd      	b.n	200059fc <_vsnprintf+0xacc>
20005800:	0004      	movs	r4, r0
20005802:	000f      	movs	r7, r1
20005804:	0032      	movs	r2, r6
20005806:	2300      	movs	r3, #0
20005808:	0020      	movs	r0, r4
2000580a:	0039      	movs	r1, r7
2000580c:	f000 f9f0 	bl	20005bf0 <__wrap___aeabi_uldivmod>
20005810:	b2d2      	uxtb	r2, r2
20005812:	2a09      	cmp	r2, #9
20005814:	d9e8      	bls.n	200057e8 <_vsnprintf+0x8b8>
20005816:	9b0d      	ldr	r3, [sp, #52]	; 0x34
20005818:	469c      	mov	ip, r3
2000581a:	4462      	add	r2, ip
2000581c:	b2d2      	uxtb	r2, r2
2000581e:	e7e5      	b.n	200057ec <_vsnprintf+0x8bc>
20005820:	9a0b      	ldr	r2, [sp, #44]	; 0x2c
20005822:	2361      	movs	r3, #97	; 0x61
20005824:	0692      	lsls	r2, r2, #26
20005826:	d500      	bpl.n	2000582a <_vsnprintf+0x8fa>
20005828:	2341      	movs	r3, #65	; 0x41
2000582a:	b2db      	uxtb	r3, r3
2000582c:	a90e      	add	r1, sp, #56	; 0x38
2000582e:	3b0a      	subs	r3, #10
20005830:	221f      	movs	r2, #31
20005832:	468c      	mov	ip, r1
20005834:	930d      	str	r3, [sp, #52]	; 0x34
20005836:	0023      	movs	r3, r4
20005838:	4462      	add	r2, ip
2000583a:	4654      	mov	r4, sl
2000583c:	9512      	str	r5, [sp, #72]	; 0x48
2000583e:	0017      	movs	r7, r2
20005840:	464d      	mov	r5, r9
20005842:	469a      	mov	sl, r3
20005844:	46b1      	mov	r9, r6
20005846:	9e0c      	ldr	r6, [sp, #48]	; 0x30
20005848:	e008      	b.n	2000585c <_vsnprintf+0x92c>
2000584a:	3330      	adds	r3, #48	; 0x30
2000584c:	b2db      	uxtb	r3, r3
2000584e:	3501      	adds	r5, #1
20005850:	557b      	strb	r3, [r7, r5]
20005852:	42b4      	cmp	r4, r6
20005854:	d30e      	bcc.n	20005874 <_vsnprintf+0x944>
20005856:	2d20      	cmp	r5, #32
20005858:	d00c      	beq.n	20005874 <_vsnprintf+0x944>
2000585a:	0004      	movs	r4, r0
2000585c:	0031      	movs	r1, r6
2000585e:	0020      	movs	r0, r4
20005860:	f000 f984 	bl	20005b6c <__wrap___aeabi_uidiv>
20005864:	b2cb      	uxtb	r3, r1
20005866:	2909      	cmp	r1, #9
20005868:	d9ef      	bls.n	2000584a <_vsnprintf+0x91a>
2000586a:	9a0d      	ldr	r2, [sp, #52]	; 0x34
2000586c:	4694      	mov	ip, r2
2000586e:	4463      	add	r3, ip
20005870:	b2db      	uxtb	r3, r3
20005872:	e7ec      	b.n	2000584e <_vsnprintf+0x91e>
20005874:	464e      	mov	r6, r9
20005876:	4654      	mov	r4, sl
20005878:	46a9      	mov	r9, r5
2000587a:	9d12      	ldr	r5, [sp, #72]	; 0x48
2000587c:	e475      	b.n	2000516a <_vsnprintf+0x23a>
2000587e:	9b09      	ldr	r3, [sp, #36]	; 0x24
20005880:	001a      	movs	r2, r3
20005882:	ca08      	ldmia	r2!, {r3}
20005884:	17d9      	asrs	r1, r3, #31
20005886:	9213      	str	r2, [sp, #76]	; 0x4c
20005888:	185a      	adds	r2, r3, r1
2000588a:	404a      	eors	r2, r1
2000588c:	4691      	mov	r9, r2
2000588e:	0fda      	lsrs	r2, r3, #31
20005890:	9212      	str	r2, [sp, #72]	; 0x48
20005892:	2b00      	cmp	r3, #0
20005894:	d108      	bne.n	200058a8 <_vsnprintf+0x978>
20005896:	2380      	movs	r3, #128	; 0x80
20005898:	2210      	movs	r2, #16
2000589a:	990b      	ldr	r1, [sp, #44]	; 0x2c
2000589c:	00db      	lsls	r3, r3, #3
2000589e:	400b      	ands	r3, r1
200058a0:	4391      	bics	r1, r2
200058a2:	910b      	str	r1, [sp, #44]	; 0x2c
200058a4:	2b00      	cmp	r3, #0
200058a6:	d12b      	bne.n	20005900 <_vsnprintf+0x9d0>
200058a8:	9a0b      	ldr	r2, [sp, #44]	; 0x2c
200058aa:	2361      	movs	r3, #97	; 0x61
200058ac:	0692      	lsls	r2, r2, #26
200058ae:	d500      	bpl.n	200058b2 <_vsnprintf+0x982>
200058b0:	2341      	movs	r3, #65	; 0x41
200058b2:	aa0e      	add	r2, sp, #56	; 0x38
200058b4:	271f      	movs	r7, #31
200058b6:	4694      	mov	ip, r2
200058b8:	b2db      	uxtb	r3, r3
200058ba:	3b0a      	subs	r3, #10
200058bc:	950d      	str	r5, [sp, #52]	; 0x34
200058be:	4467      	add	r7, ip
200058c0:	4655      	mov	r5, sl
200058c2:	9309      	str	r3, [sp, #36]	; 0x24
200058c4:	46a2      	mov	sl, r4
200058c6:	464c      	mov	r4, r9
200058c8:	46b1      	mov	r9, r6
200058ca:	9e0c      	ldr	r6, [sp, #48]	; 0x30
200058cc:	e008      	b.n	200058e0 <_vsnprintf+0x9b0>
200058ce:	3330      	adds	r3, #48	; 0x30
200058d0:	b2db      	uxtb	r3, r3
200058d2:	3501      	adds	r5, #1
200058d4:	557b      	strb	r3, [r7, r5]
200058d6:	42b4      	cmp	r4, r6
200058d8:	d30e      	bcc.n	200058f8 <_vsnprintf+0x9c8>
200058da:	2d20      	cmp	r5, #32
200058dc:	d00c      	beq.n	200058f8 <_vsnprintf+0x9c8>
200058de:	0004      	movs	r4, r0
200058e0:	0031      	movs	r1, r6
200058e2:	0020      	movs	r0, r4
200058e4:	f000 f942 	bl	20005b6c <__wrap___aeabi_uidiv>
200058e8:	b2cb      	uxtb	r3, r1
200058ea:	2909      	cmp	r1, #9
200058ec:	d9ef      	bls.n	200058ce <_vsnprintf+0x99e>
200058ee:	9a09      	ldr	r2, [sp, #36]	; 0x24
200058f0:	4694      	mov	ip, r2
200058f2:	4463      	add	r3, ip
200058f4:	b2db      	uxtb	r3, r3
200058f6:	e7ec      	b.n	200058d2 <_vsnprintf+0x9a2>
200058f8:	464e      	mov	r6, r9
200058fa:	4654      	mov	r4, sl
200058fc:	46aa      	mov	sl, r5
200058fe:	9d0d      	ldr	r5, [sp, #52]	; 0x34
20005900:	9b0b      	ldr	r3, [sp, #44]	; 0x2c
20005902:	002a      	movs	r2, r5
20005904:	9306      	str	r3, [sp, #24]
20005906:	9b0a      	ldr	r3, [sp, #40]	; 0x28
20005908:	0021      	movs	r1, r4
2000590a:	9305      	str	r3, [sp, #20]
2000590c:	4643      	mov	r3, r8
2000590e:	9304      	str	r3, [sp, #16]
20005910:	9b0c      	ldr	r3, [sp, #48]	; 0x30
20005912:	9808      	ldr	r0, [sp, #32]
20005914:	9303      	str	r3, [sp, #12]
20005916:	9b12      	ldr	r3, [sp, #72]	; 0x48
20005918:	3601      	adds	r6, #1
2000591a:	9302      	str	r3, [sp, #8]
2000591c:	4653      	mov	r3, sl
2000591e:	9301      	str	r3, [sp, #4]
20005920:	ab16      	add	r3, sp, #88	; 0x58
20005922:	9300      	str	r3, [sp, #0]
20005924:	465b      	mov	r3, fp
20005926:	f7fe fddf 	bl	200044e8 <_ntoa_format>
2000592a:	9b13      	ldr	r3, [sp, #76]	; 0x4c
2000592c:	0005      	movs	r5, r0
2000592e:	9309      	str	r3, [sp, #36]	; 0x24
20005930:	f7ff fb23 	bl	20004f7a <_vsnprintf+0x4a>
20005934:	9b09      	ldr	r3, [sp, #36]	; 0x24
20005936:	cb04      	ldmia	r3!, {r2}
20005938:	4691      	mov	r9, r2
2000593a:	9312      	str	r3, [sp, #72]	; 0x48
2000593c:	2a00      	cmp	r2, #0
2000593e:	d108      	bne.n	20005952 <_vsnprintf+0xa22>
20005940:	2380      	movs	r3, #128	; 0x80
20005942:	2210      	movs	r2, #16
20005944:	990b      	ldr	r1, [sp, #44]	; 0x2c
20005946:	00db      	lsls	r3, r3, #3
20005948:	400b      	ands	r3, r1
2000594a:	4391      	bics	r1, r2
2000594c:	910b      	str	r1, [sp, #44]	; 0x2c
2000594e:	2b00      	cmp	r3, #0
20005950:	d12b      	bne.n	200059aa <_vsnprintf+0xa7a>
20005952:	9a0b      	ldr	r2, [sp, #44]	; 0x2c
20005954:	2361      	movs	r3, #97	; 0x61
20005956:	0692      	lsls	r2, r2, #26
20005958:	d500      	bpl.n	2000595c <_vsnprintf+0xa2c>
2000595a:	2341      	movs	r3, #65	; 0x41
2000595c:	aa0e      	add	r2, sp, #56	; 0x38
2000595e:	271f      	movs	r7, #31
20005960:	4694      	mov	ip, r2
20005962:	b2db      	uxtb	r3, r3
20005964:	3b0a      	subs	r3, #10
20005966:	950d      	str	r5, [sp, #52]	; 0x34
20005968:	4467      	add	r7, ip
2000596a:	4655      	mov	r5, sl
2000596c:	9309      	str	r3, [sp, #36]	; 0x24
2000596e:	46a2      	mov	sl, r4
20005970:	464c      	mov	r4, r9
20005972:	46b1      	mov	r9, r6
20005974:	9e0c      	ldr	r6, [sp, #48]	; 0x30
20005976:	e008      	b.n	2000598a <_vsnprintf+0xa5a>
20005978:	3330      	adds	r3, #48	; 0x30
2000597a:	b2db      	uxtb	r3, r3
2000597c:	3501      	adds	r5, #1
2000597e:	557b      	strb	r3, [r7, r5]
20005980:	42b4      	cmp	r4, r6
20005982:	d30e      	bcc.n	200059a2 <_vsnprintf+0xa72>
20005984:	2d20      	cmp	r5, #32
20005986:	d00c      	beq.n	200059a2 <_vsnprintf+0xa72>
20005988:	0004      	movs	r4, r0
2000598a:	0031      	movs	r1, r6
2000598c:	0020      	movs	r0, r4
2000598e:	f000 f8ed 	bl	20005b6c <__wrap___aeabi_uidiv>
20005992:	b2cb      	uxtb	r3, r1
20005994:	2909      	cmp	r1, #9
20005996:	d9ef      	bls.n	20005978 <_vsnprintf+0xa48>
20005998:	9a09      	ldr	r2, [sp, #36]	; 0x24
2000599a:	4694      	mov	ip, r2
2000599c:	4463      	add	r3, ip
2000599e:	b2db      	uxtb	r3, r3
200059a0:	e7ec      	b.n	2000597c <_vsnprintf+0xa4c>
200059a2:	464e      	mov	r6, r9
200059a4:	4654      	mov	r4, sl
200059a6:	46aa      	mov	sl, r5
200059a8:	9d0d      	ldr	r5, [sp, #52]	; 0x34
200059aa:	9b0b      	ldr	r3, [sp, #44]	; 0x2c
200059ac:	002a      	movs	r2, r5
200059ae:	9306      	str	r3, [sp, #24]
200059b0:	9b0a      	ldr	r3, [sp, #40]	; 0x28
200059b2:	0021      	movs	r1, r4
200059b4:	9305      	str	r3, [sp, #20]
200059b6:	4643      	mov	r3, r8
200059b8:	9304      	str	r3, [sp, #16]
200059ba:	9b0c      	ldr	r3, [sp, #48]	; 0x30
200059bc:	9808      	ldr	r0, [sp, #32]
200059be:	9303      	str	r3, [sp, #12]
200059c0:	2300      	movs	r3, #0
200059c2:	9302      	str	r3, [sp, #8]
200059c4:	4653      	mov	r3, sl
200059c6:	9301      	str	r3, [sp, #4]
200059c8:	ab16      	add	r3, sp, #88	; 0x58
200059ca:	9300      	str	r3, [sp, #0]
200059cc:	465b      	mov	r3, fp
200059ce:	f7fe fd8b 	bl	200044e8 <_ntoa_format>
200059d2:	9b12      	ldr	r3, [sp, #72]	; 0x48
200059d4:	0005      	movs	r5, r0
200059d6:	9309      	str	r3, [sp, #36]	; 0x24
200059d8:	3601      	adds	r6, #1
200059da:	f7ff face 	bl	20004f7a <_vsnprintf+0x4a>
200059de:	42b4      	cmp	r4, r6
200059e0:	d800      	bhi.n	200059e4 <_vsnprintf+0xab4>
200059e2:	e67f      	b.n	200056e4 <_vsnprintf+0x7b4>
200059e4:	9b14      	ldr	r3, [sp, #80]	; 0x50
200059e6:	464c      	mov	r4, r9
200059e8:	960e      	str	r6, [sp, #56]	; 0x38
200059ea:	970f      	str	r7, [sp, #60]	; 0x3c
200059ec:	46a9      	mov	r9, r5
200059ee:	4698      	mov	r8, r3
200059f0:	9e15      	ldr	r6, [sp, #84]	; 0x54
200059f2:	9d13      	ldr	r5, [sp, #76]	; 0x4c
200059f4:	e699      	b.n	2000572a <_vsnprintf+0x7fa>
200059f6:	42a6      	cmp	r6, r4
200059f8:	d800      	bhi.n	200059fc <_vsnprintf+0xacc>
200059fa:	e6fe      	b.n	200057fa <_vsnprintf+0x8ca>
200059fc:	9b13      	ldr	r3, [sp, #76]	; 0x4c
200059fe:	464e      	mov	r6, r9
20005a00:	4698      	mov	r8, r3
20005a02:	46a9      	mov	r9, r5
20005a04:	4654      	mov	r4, sl
20005a06:	9d12      	ldr	r5, [sp, #72]	; 0x48
20005a08:	f7ff fbaf 	bl	2000516a <_vsnprintf+0x23a>
20005a0c:	c908      	ldmia	r1!, {r3}
20005a0e:	17d8      	asrs	r0, r3, #31
20005a10:	181a      	adds	r2, r3, r0
20005a12:	4042      	eors	r2, r0
20005a14:	9109      	str	r1, [sp, #36]	; 0x24
20005a16:	e566      	b.n	200054e6 <_vsnprintf+0x5b6>
20005a18:	2300      	movs	r3, #0
20005a1a:	930b      	str	r3, [sp, #44]	; 0x2c
20005a1c:	e45e      	b.n	200052dc <_vsnprintf+0x3ac>
20005a1e:	9b09      	ldr	r3, [sp, #36]	; 0x24
20005a20:	cb04      	ldmia	r3!, {r2}
20005a22:	4692      	mov	sl, r2
20005a24:	9309      	str	r3, [sp, #36]	; 0x24
20005a26:	f7ff fb92 	bl	2000514e <_vsnprintf+0x21e>
20005a2a:	002f      	movs	r7, r5
20005a2c:	e5e0      	b.n	200055f0 <_vsnprintf+0x6c0>
20005a2e:	930b      	str	r3, [sp, #44]	; 0x2c
20005a30:	e60b      	b.n	2000564a <_vsnprintf+0x71a>
20005a32:	3b06      	subs	r3, #6
20005a34:	930c      	str	r3, [sp, #48]	; 0x30
20005a36:	e52e      	b.n	20005496 <_vsnprintf+0x566>

20005a38 <__wrap_sprintf>:
20005a38:	b40e      	push	{r1, r2, r3}
20005a3a:	2201      	movs	r2, #1
20005a3c:	b510      	push	{r4, lr}
20005a3e:	b085      	sub	sp, #20
20005a40:	ac07      	add	r4, sp, #28
20005a42:	cc08      	ldmia	r4!, {r3}
20005a44:	0001      	movs	r1, r0
20005a46:	9400      	str	r4, [sp, #0]
20005a48:	4252      	negs	r2, r2
20005a4a:	4804      	ldr	r0, [pc, #16]	; (20005a5c <__wrap_sprintf+0x24>)
20005a4c:	9403      	str	r4, [sp, #12]
20005a4e:	f7ff fa6f 	bl	20004f30 <_vsnprintf>
20005a52:	b005      	add	sp, #20
20005a54:	bc10      	pop	{r4}
20005a56:	bc08      	pop	{r3}
20005a58:	b003      	add	sp, #12
20005a5a:	4718      	bx	r3
20005a5c:	2000440d 	.word	0x2000440d

20005a60 <vfctprintf>:
20005a60:	b500      	push	{lr}
20005a62:	b085      	sub	sp, #20
20005a64:	9103      	str	r1, [sp, #12]
20005a66:	2101      	movs	r1, #1
20005a68:	9002      	str	r0, [sp, #8]
20005a6a:	9300      	str	r3, [sp, #0]
20005a6c:	4803      	ldr	r0, [pc, #12]	; (20005a7c <vfctprintf+0x1c>)
20005a6e:	0013      	movs	r3, r2
20005a70:	424a      	negs	r2, r1
20005a72:	a902      	add	r1, sp, #8
20005a74:	f7ff fa5c 	bl	20004f30 <_vsnprintf>
20005a78:	b005      	add	sp, #20
20005a7a:	bd00      	pop	{pc}
20005a7c:	200046c9 	.word	0x200046c9

20005a80 <weak_raw_vprintf>:
20005a80:	b510      	push	{r4, lr}
20005a82:	4a09      	ldr	r2, [pc, #36]	; (20005aa8 <weak_raw_vprintf+0x28>)
20005a84:	0003      	movs	r3, r0
20005a86:	6814      	ldr	r4, [r2, #0]
20005a88:	b084      	sub	sp, #16
20005a8a:	2c00      	cmp	r4, #0
20005a8c:	d008      	beq.n	20005aa0 <weak_raw_vprintf+0x20>
20005a8e:	2201      	movs	r2, #1
20005a90:	9100      	str	r1, [sp, #0]
20005a92:	4806      	ldr	r0, [pc, #24]	; (20005aac <weak_raw_vprintf+0x2c>)
20005a94:	4252      	negs	r2, r2
20005a96:	a903      	add	r1, sp, #12
20005a98:	47a0      	blx	r4
20005a9a:	2001      	movs	r0, #1
20005a9c:	b004      	add	sp, #16
20005a9e:	bd10      	pop	{r4, pc}
20005aa0:	f001 ff8a 	bl	200079b8 <__wrap_puts>
20005aa4:	2000      	movs	r0, #0
20005aa6:	e7f9      	b.n	20005a9c <weak_raw_vprintf+0x1c>
20005aa8:	2000d32c 	.word	0x2000d32c
20005aac:	200046b9 	.word	0x200046b9

20005ab0 <__aeabi_bits_init>:
20005ab0:	4801      	ldr	r0, [pc, #4]	; (20005ab8 <__aeabi_bits_init+0x8>)
20005ab2:	2104      	movs	r1, #4
20005ab4:	4b01      	ldr	r3, [pc, #4]	; (20005abc <__aeabi_bits_init+0xc>)
20005ab6:	4718      	bx	r3
20005ab8:	2000c7f0 	.word	0x2000c7f0
20005abc:	20005ae1 	.word	0x20005ae1

20005ac0 <rom_func_lookup>:
20005ac0:	2314      	movs	r3, #20
20005ac2:	b510      	push	{r4, lr}
20005ac4:	0001      	movs	r1, r0
20005ac6:	8818      	ldrh	r0, [r3, #0]
20005ac8:	3304      	adds	r3, #4
20005aca:	881b      	ldrh	r3, [r3, #0]
20005acc:	4798      	blx	r3
20005ace:	bd10      	pop	{r4, pc}

20005ad0 <rom_data_lookup>:
20005ad0:	2316      	movs	r3, #22
20005ad2:	b510      	push	{r4, lr}
20005ad4:	0001      	movs	r1, r0
20005ad6:	8818      	ldrh	r0, [r3, #0]
20005ad8:	3302      	adds	r3, #2
20005ada:	881b      	ldrh	r3, [r3, #0]
20005adc:	4798      	blx	r3
20005ade:	bd10      	pop	{r4, pc}

20005ae0 <rom_funcs_lookup>:
20005ae0:	b5f0      	push	{r4, r5, r6, r7, lr}
20005ae2:	46c6      	mov	lr, r8
20005ae4:	b500      	push	{lr}
20005ae6:	2900      	cmp	r1, #0
20005ae8:	d016      	beq.n	20005b18 <rom_funcs_lookup+0x38>
20005aea:	2314      	movs	r3, #20
20005aec:	0004      	movs	r4, r0
20005aee:	2501      	movs	r5, #1
20005af0:	4698      	mov	r8, r3
20005af2:	2718      	movs	r7, #24
20005af4:	0089      	lsls	r1, r1, #2
20005af6:	1846      	adds	r6, r0, r1
20005af8:	4643      	mov	r3, r8
20005afa:	6821      	ldr	r1, [r4, #0]
20005afc:	8818      	ldrh	r0, [r3, #0]
20005afe:	883b      	ldrh	r3, [r7, #0]
20005b00:	4798      	blx	r3
20005b02:	c401      	stmia	r4!, {r0}
20005b04:	1e43      	subs	r3, r0, #1
20005b06:	4198      	sbcs	r0, r3
20005b08:	4240      	negs	r0, r0
20005b0a:	4005      	ands	r5, r0
20005b0c:	42a6      	cmp	r6, r4
20005b0e:	d1f3      	bne.n	20005af8 <rom_funcs_lookup+0x18>
20005b10:	0028      	movs	r0, r5
20005b12:	bc04      	pop	{r2}
20005b14:	4690      	mov	r8, r2
20005b16:	bdf0      	pop	{r4, r5, r6, r7, pc}
20005b18:	2501      	movs	r5, #1
20005b1a:	e7f9      	b.n	20005b10 <rom_funcs_lookup+0x30>

20005b1c <__wrap___aeabi_idiv>:
20005b1c:	4a12      	ldr	r2, [pc, #72]	; (20005b68 <divmod_s32s32_savestate+0x18>)
20005b1e:	6f93      	ldr	r3, [r2, #120]	; 0x78
20005b20:	089b      	lsrs	r3, r3, #2
20005b22:	d215      	bcs.n	20005b50 <divmod_s32s32_savestate>

20005b24 <divmod_s32s32_unsafe>:
20005b24:	6690      	str	r0, [r2, #104]	; 0x68
20005b26:	66d1      	str	r1, [r2, #108]	; 0x6c
20005b28:	2900      	cmp	r1, #0
20005b2a:	d005      	beq.n	20005b38 <divmod_s32s32_unsafe+0x14>
20005b2c:	e7ff      	b.n	20005b2e <divmod_s32s32_unsafe+0xa>
20005b2e:	e7ff      	b.n	20005b30 <divmod_s32s32_unsafe+0xc>
20005b30:	e7ff      	b.n	20005b32 <divmod_s32s32_unsafe+0xe>
20005b32:	6f51      	ldr	r1, [r2, #116]	; 0x74
20005b34:	6f10      	ldr	r0, [r2, #112]	; 0x70
20005b36:	4770      	bx	lr
20005b38:	b504      	push	{r2, lr}
20005b3a:	2180      	movs	r1, #128	; 0x80
20005b3c:	0609      	lsls	r1, r1, #24
20005b3e:	17c2      	asrs	r2, r0, #31
20005b40:	4051      	eors	r1, r2
20005b42:	2800      	cmp	r0, #0
20005b44:	d000      	beq.n	20005b48 <divmod_s32s32_unsafe+0x24>
20005b46:	43c8      	mvns	r0, r1
20005b48:	f004 fe5e 	bl	2000a808 <__aeabi_idiv0>
20005b4c:	2100      	movs	r1, #0
20005b4e:	bd04      	pop	{r2, pc}

20005b50 <divmod_s32s32_savestate>:
20005b50:	b5f0      	push	{r4, r5, r6, r7, lr}
20005b52:	6e14      	ldr	r4, [r2, #96]	; 0x60
20005b54:	6e55      	ldr	r5, [r2, #100]	; 0x64
20005b56:	6f57      	ldr	r7, [r2, #116]	; 0x74
20005b58:	6f16      	ldr	r6, [r2, #112]	; 0x70
20005b5a:	f7ff ffe3 	bl	20005b24 <divmod_s32s32_unsafe>
20005b5e:	6614      	str	r4, [r2, #96]	; 0x60
20005b60:	6655      	str	r5, [r2, #100]	; 0x64
20005b62:	6757      	str	r7, [r2, #116]	; 0x74
20005b64:	6716      	str	r6, [r2, #112]	; 0x70
20005b66:	bdf0      	pop	{r4, r5, r6, r7, pc}
20005b68:	d0000000 	.word	0xd0000000

20005b6c <__wrap___aeabi_uidiv>:
20005b6c:	4a11      	ldr	r2, [pc, #68]	; (20005bb4 <divmod_u32u32_savestate+0x18>)
20005b6e:	6f93      	ldr	r3, [r2, #120]	; 0x78
20005b70:	089b      	lsrs	r3, r3, #2
20005b72:	d213      	bcs.n	20005b9c <divmod_u32u32_savestate>

20005b74 <divmod_u32u32_unsafe>:
20005b74:	6610      	str	r0, [r2, #96]	; 0x60
20005b76:	6651      	str	r1, [r2, #100]	; 0x64
20005b78:	2900      	cmp	r1, #0
20005b7a:	d005      	beq.n	20005b88 <divmod_u32u32_unsafe+0x14>
20005b7c:	e7ff      	b.n	20005b7e <divmod_u32u32_unsafe+0xa>
20005b7e:	e7ff      	b.n	20005b80 <divmod_u32u32_unsafe+0xc>
20005b80:	e7ff      	b.n	20005b82 <divmod_u32u32_unsafe+0xe>
20005b82:	6f51      	ldr	r1, [r2, #116]	; 0x74
20005b84:	6f10      	ldr	r0, [r2, #112]	; 0x70
20005b86:	4770      	bx	lr
20005b88:	b504      	push	{r2, lr}
20005b8a:	2800      	cmp	r0, #0
20005b8c:	d001      	beq.n	20005b92 <divmod_u32u32_unsafe+0x1e>
20005b8e:	2000      	movs	r0, #0
20005b90:	43c0      	mvns	r0, r0
20005b92:	f004 fe39 	bl	2000a808 <__aeabi_idiv0>
20005b96:	2100      	movs	r1, #0
20005b98:	bd04      	pop	{r2, pc}
20005b9a:	46c0      	nop			; (mov r8, r8)

20005b9c <divmod_u32u32_savestate>:
20005b9c:	b5f0      	push	{r4, r5, r6, r7, lr}
20005b9e:	6e14      	ldr	r4, [r2, #96]	; 0x60
20005ba0:	6e55      	ldr	r5, [r2, #100]	; 0x64
20005ba2:	6f57      	ldr	r7, [r2, #116]	; 0x74
20005ba4:	6f16      	ldr	r6, [r2, #112]	; 0x70
20005ba6:	f7ff ffe5 	bl	20005b74 <divmod_u32u32_unsafe>
20005baa:	6614      	str	r4, [r2, #96]	; 0x60
20005bac:	6655      	str	r5, [r2, #100]	; 0x64
20005bae:	6757      	str	r7, [r2, #116]	; 0x74
20005bb0:	6716      	str	r6, [r2, #112]	; 0x70
20005bb2:	bdf0      	pop	{r4, r5, r6, r7, pc}
20005bb4:	d0000000 	.word	0xd0000000

20005bb8 <__wrap___aeabi_ldivmod>:
20005bb8:	4694      	mov	ip, r2
20005bba:	4a4e      	ldr	r2, [pc, #312]	; (20005cf4 <udiv0+0x1a>)
20005bbc:	6f92      	ldr	r2, [r2, #120]	; 0x78
20005bbe:	0892      	lsrs	r2, r2, #2
20005bc0:	4662      	mov	r2, ip
20005bc2:	d201      	bcs.n	20005bc8 <divmod_s64s64_savestate>
20005bc4:	e030      	b.n	20005c28 <divmod_s64s64_unsafe>
20005bc6:	46c0      	nop			; (mov r8, r8)

20005bc8 <divmod_s64s64_savestate>:
20005bc8:	b5f0      	push	{r4, r5, r6, r7, lr}
20005bca:	4e4a      	ldr	r6, [pc, #296]	; (20005cf4 <udiv0+0x1a>)
20005bcc:	6fb5      	ldr	r5, [r6, #120]	; 0x78
20005bce:	086d      	lsrs	r5, r5, #1
20005bd0:	d3fc      	bcc.n	20005bcc <divmod_s64s64_savestate+0x4>
20005bd2:	6e34      	ldr	r4, [r6, #96]	; 0x60
20005bd4:	6e75      	ldr	r5, [r6, #100]	; 0x64
20005bd6:	6f77      	ldr	r7, [r6, #116]	; 0x74
20005bd8:	6f36      	ldr	r6, [r6, #112]	; 0x70
20005bda:	f000 f825 	bl	20005c28 <divmod_s64s64_unsafe>
20005bde:	4694      	mov	ip, r2
20005be0:	4a44      	ldr	r2, [pc, #272]	; (20005cf4 <udiv0+0x1a>)
20005be2:	6614      	str	r4, [r2, #96]	; 0x60
20005be4:	6655      	str	r5, [r2, #100]	; 0x64
20005be6:	6757      	str	r7, [r2, #116]	; 0x74
20005be8:	6716      	str	r6, [r2, #112]	; 0x70
20005bea:	4662      	mov	r2, ip
20005bec:	bdf0      	pop	{r4, r5, r6, r7, pc}
20005bee:	46c0      	nop			; (mov r8, r8)

20005bf0 <__wrap___aeabi_uldivmod>:
20005bf0:	4694      	mov	ip, r2
20005bf2:	4a40      	ldr	r2, [pc, #256]	; (20005cf4 <udiv0+0x1a>)
20005bf4:	6f92      	ldr	r2, [r2, #120]	; 0x78
20005bf6:	0892      	lsrs	r2, r2, #2
20005bf8:	4662      	mov	r2, ip
20005bfa:	d201      	bcs.n	20005c00 <divmod_u64u64_savestate>
20005bfc:	e058      	b.n	20005cb0 <divmod_u64u64_unsafe>
20005bfe:	46c0      	nop			; (mov r8, r8)

20005c00 <divmod_u64u64_savestate>:
20005c00:	b5f0      	push	{r4, r5, r6, r7, lr}
20005c02:	4e3c      	ldr	r6, [pc, #240]	; (20005cf4 <udiv0+0x1a>)
20005c04:	6fb5      	ldr	r5, [r6, #120]	; 0x78
20005c06:	086d      	lsrs	r5, r5, #1
20005c08:	d3fc      	bcc.n	20005c04 <divmod_u64u64_savestate+0x4>
20005c0a:	6e34      	ldr	r4, [r6, #96]	; 0x60
20005c0c:	6e75      	ldr	r5, [r6, #100]	; 0x64
20005c0e:	6f77      	ldr	r7, [r6, #116]	; 0x74
20005c10:	6f36      	ldr	r6, [r6, #112]	; 0x70
20005c12:	f000 f84d 	bl	20005cb0 <divmod_u64u64_unsafe>
20005c16:	4694      	mov	ip, r2
20005c18:	4a36      	ldr	r2, [pc, #216]	; (20005cf4 <udiv0+0x1a>)
20005c1a:	6614      	str	r4, [r2, #96]	; 0x60
20005c1c:	6655      	str	r5, [r2, #100]	; 0x64
20005c1e:	6757      	str	r7, [r2, #116]	; 0x74
20005c20:	6716      	str	r6, [r2, #112]	; 0x70
20005c22:	4662      	mov	r2, ip
20005c24:	bdf0      	pop	{r4, r5, r6, r7, pc}
20005c26:	46c0      	nop			; (mov r8, r8)

20005c28 <divmod_s64s64_unsafe>:
20005c28:	2b00      	cmp	r3, #0
20005c2a:	db24      	blt.n	20005c76 <l41_1+0x26>
20005c2c:	d011      	beq.n	20005c52 <l41_1+0x2>
20005c2e:	2900      	cmp	r1, #0
20005c30:	da3e      	bge.n	20005cb0 <divmod_u64u64_unsafe>
20005c32:	b500      	push	{lr}
20005c34:	43c9      	mvns	r1, r1
20005c36:	4240      	negs	r0, r0
20005c38:	d100      	bne.n	20005c3c <l39_1>
20005c3a:	3101      	adds	r1, #1

20005c3c <l39_1>:
20005c3c:	f000 f838 	bl	20005cb0 <divmod_u64u64_unsafe>
20005c40:	43c9      	mvns	r1, r1
20005c42:	4240      	negs	r0, r0
20005c44:	d100      	bne.n	20005c48 <l40_1>
20005c46:	3101      	adds	r1, #1

20005c48 <l40_1>:
20005c48:	43db      	mvns	r3, r3
20005c4a:	4252      	negs	r2, r2
20005c4c:	d100      	bne.n	20005c50 <l41_1>
20005c4e:	3301      	adds	r3, #1

20005c50 <l41_1>:
20005c50:	bd00      	pop	{pc}
20005c52:	2a00      	cmp	r2, #0
20005c54:	d1eb      	bne.n	20005c2e <divmod_s64s64_unsafe+0x6>
20005c56:	2800      	cmp	r0, #0
20005c58:	d101      	bne.n	20005c5e <l41_1+0xe>
20005c5a:	2900      	cmp	r1, #0
20005c5c:	d005      	beq.n	20005c6a <l41_1+0x1a>
20005c5e:	2000      	movs	r0, #0
20005c60:	0fc9      	lsrs	r1, r1, #31
20005c62:	07c9      	lsls	r1, r1, #31
20005c64:	d101      	bne.n	20005c6a <l41_1+0x1a>
20005c66:	43c0      	mvns	r0, r0
20005c68:	0841      	lsrs	r1, r0, #1
20005c6a:	b500      	push	{lr}
20005c6c:	f004 fdcc 	bl	2000a808 <__aeabi_idiv0>
20005c70:	2200      	movs	r2, #0
20005c72:	2300      	movs	r3, #0
20005c74:	bd00      	pop	{pc}
20005c76:	b500      	push	{lr}
20005c78:	2900      	cmp	r1, #0
20005c7a:	db0a      	blt.n	20005c92 <l43_1+0x2>
20005c7c:	43db      	mvns	r3, r3
20005c7e:	4252      	negs	r2, r2
20005c80:	d100      	bne.n	20005c84 <l42_1>
20005c82:	3301      	adds	r3, #1

20005c84 <l42_1>:
20005c84:	f000 f814 	bl	20005cb0 <divmod_u64u64_unsafe>
20005c88:	43c9      	mvns	r1, r1
20005c8a:	4240      	negs	r0, r0
20005c8c:	d100      	bne.n	20005c90 <l43_1>
20005c8e:	3101      	adds	r1, #1

20005c90 <l43_1>:
20005c90:	bd00      	pop	{pc}
20005c92:	43c9      	mvns	r1, r1
20005c94:	4240      	negs	r0, r0
20005c96:	d100      	bne.n	20005c9a <l44_1>
20005c98:	3101      	adds	r1, #1

20005c9a <l44_1>:
20005c9a:	43db      	mvns	r3, r3
20005c9c:	4252      	negs	r2, r2
20005c9e:	d100      	bne.n	20005ca2 <l45_1>
20005ca0:	3301      	adds	r3, #1

20005ca2 <l45_1>:
20005ca2:	f000 f805 	bl	20005cb0 <divmod_u64u64_unsafe>
20005ca6:	43db      	mvns	r3, r3
20005ca8:	4252      	negs	r2, r2
20005caa:	d100      	bne.n	20005cae <l46_1>
20005cac:	3301      	adds	r3, #1

20005cae <l46_1>:
20005cae:	bd00      	pop	{pc}

20005cb0 <divmod_u64u64_unsafe>:
20005cb0:	2900      	cmp	r1, #0
20005cb2:	d123      	bne.n	20005cfc <y64>
20005cb4:	2b00      	cmp	r3, #0
20005cb6:	d118      	bne.n	20005cea <udiv0+0x10>
20005cb8:	2a00      	cmp	r2, #0
20005cba:	d00c      	beq.n	20005cd6 <divmod_u64u64_unsafe+0x26>
20005cbc:	46bc      	mov	ip, r7
20005cbe:	4f0d      	ldr	r7, [pc, #52]	; (20005cf4 <udiv0+0x1a>)
20005cc0:	6638      	str	r0, [r7, #96]	; 0x60
20005cc2:	667a      	str	r2, [r7, #100]	; 0x64
20005cc4:	2100      	movs	r1, #0
20005cc6:	2300      	movs	r3, #0
20005cc8:	e7ff      	b.n	20005cca <divmod_u64u64_unsafe+0x1a>
20005cca:	e7ff      	b.n	20005ccc <divmod_u64u64_unsafe+0x1c>
20005ccc:	e7ff      	b.n	20005cce <divmod_u64u64_unsafe+0x1e>
20005cce:	6f7a      	ldr	r2, [r7, #116]	; 0x74
20005cd0:	6f38      	ldr	r0, [r7, #112]	; 0x70
20005cd2:	4667      	mov	r7, ip
20005cd4:	4770      	bx	lr
20005cd6:	2800      	cmp	r0, #0
20005cd8:	d001      	beq.n	20005cde <udiv0+0x4>

20005cda <udiv0>:
20005cda:	4807      	ldr	r0, [pc, #28]	; (20005cf8 <udiv0+0x1e>)
20005cdc:	0001      	movs	r1, r0
20005cde:	b500      	push	{lr}
20005ce0:	f004 fd92 	bl	2000a808 <__aeabi_idiv0>
20005ce4:	2200      	movs	r2, #0
20005ce6:	2300      	movs	r3, #0
20005ce8:	bd00      	pop	{pc}
20005cea:	0002      	movs	r2, r0
20005cec:	000b      	movs	r3, r1
20005cee:	2000      	movs	r0, #0
20005cf0:	2100      	movs	r1, #0
20005cf2:	4770      	bx	lr
20005cf4:	d0000000 	.word	0xd0000000
20005cf8:	ffffffff 	.word	0xffffffff

20005cfc <y64>:
20005cfc:	2b00      	cmp	r3, #0
20005cfe:	d000      	beq.n	20005d02 <y64+0x6>
20005d00:	e0bf      	b.n	20005e82 <y64_x48>
20005d02:	0c13      	lsrs	r3, r2, #16
20005d04:	d128      	bne.n	20005d58 <y64_x32>
20005d06:	2a00      	cmp	r2, #0
20005d08:	d0e7      	beq.n	20005cda <udiv0>
20005d0a:	b480      	push	{r7}
20005d0c:	4f11      	ldr	r7, [pc, #68]	; (20005d54 <y64+0x58>)
20005d0e:	6639      	str	r1, [r7, #96]	; 0x60
20005d10:	667a      	str	r2, [r7, #100]	; 0x64
20005d12:	e7ff      	b.n	20005d14 <y64+0x18>
20005d14:	e7ff      	b.n	20005d16 <y64+0x1a>
20005d16:	b430      	push	{r4, r5}
20005d18:	0c04      	lsrs	r4, r0, #16
20005d1a:	6f7b      	ldr	r3, [r7, #116]	; 0x74
20005d1c:	6f39      	ldr	r1, [r7, #112]	; 0x70
20005d1e:	041b      	lsls	r3, r3, #16
20005d20:	4323      	orrs	r3, r4
20005d22:	663b      	str	r3, [r7, #96]	; 0x60
20005d24:	667a      	str	r2, [r7, #100]	; 0x64
20005d26:	e7ff      	b.n	20005d28 <y64+0x2c>
20005d28:	e7ff      	b.n	20005d2a <y64+0x2e>
20005d2a:	e7ff      	b.n	20005d2c <y64+0x30>
20005d2c:	46c0      	nop			; (mov r8, r8)
20005d2e:	b284      	uxth	r4, r0
20005d30:	6f7b      	ldr	r3, [r7, #116]	; 0x74
20005d32:	6f3d      	ldr	r5, [r7, #112]	; 0x70
20005d34:	041b      	lsls	r3, r3, #16
20005d36:	4323      	orrs	r3, r4
20005d38:	663b      	str	r3, [r7, #96]	; 0x60
20005d3a:	667a      	str	r2, [r7, #100]	; 0x64
20005d3c:	e7ff      	b.n	20005d3e <y64+0x42>
20005d3e:	e7ff      	b.n	20005d40 <y64+0x44>
20005d40:	46c0      	nop			; (mov r8, r8)
20005d42:	2300      	movs	r3, #0
20005d44:	042c      	lsls	r4, r5, #16
20005d46:	0c2d      	lsrs	r5, r5, #16
20005d48:	6f7a      	ldr	r2, [r7, #116]	; 0x74
20005d4a:	6f38      	ldr	r0, [r7, #112]	; 0x70
20005d4c:	1900      	adds	r0, r0, r4
20005d4e:	4169      	adcs	r1, r5
20005d50:	bcb0      	pop	{r4, r5, r7}
20005d52:	4770      	bx	lr
20005d54:	d0000000 	.word	0xd0000000

20005d58 <y64_x32>:
20005d58:	b5f0      	push	{r4, r5, r6, r7, lr}
20005d5a:	4694      	mov	ip, r2
20005d5c:	2500      	movs	r5, #0
20005d5e:	0e14      	lsrs	r4, r2, #24
20005d60:	d101      	bne.n	20005d66 <y64_x32+0xe>
20005d62:	0212      	lsls	r2, r2, #8
20005d64:	3508      	adds	r5, #8
20005d66:	0f14      	lsrs	r4, r2, #28
20005d68:	d101      	bne.n	20005d6e <y64_x32+0x16>
20005d6a:	0112      	lsls	r2, r2, #4
20005d6c:	3504      	adds	r5, #4
20005d6e:	0f94      	lsrs	r4, r2, #30
20005d70:	d101      	bne.n	20005d76 <y64_x32+0x1e>
20005d72:	0092      	lsls	r2, r2, #2
20005d74:	3502      	adds	r5, #2
20005d76:	0fd4      	lsrs	r4, r2, #31
20005d78:	d101      	bne.n	20005d7e <y64_x32+0x26>
20005d7a:	0052      	lsls	r2, r2, #1
20005d7c:	3501      	adds	r5, #1
20005d7e:	0bd4      	lsrs	r4, r2, #15
20005d80:	3401      	adds	r4, #1
20005d82:	4f25      	ldr	r7, [pc, #148]	; (20005e18 <y64_x32+0xc0>)
20005d84:	667c      	str	r4, [r7, #100]	; 0x64
20005d86:	4c25      	ldr	r4, [pc, #148]	; (20005e1c <y64_x32+0xc4>)
20005d88:	663c      	str	r4, [r7, #96]	; 0x60
20005d8a:	0c0e      	lsrs	r6, r1, #16
20005d8c:	b293      	uxth	r3, r2
20005d8e:	e7ff      	b.n	20005d90 <y64_x32+0x38>
20005d90:	e7ff      	b.n	20005d92 <y64_x32+0x3a>
20005d92:	e7ff      	b.n	20005d94 <y64_x32+0x3c>
20005d94:	6f3c      	ldr	r4, [r7, #112]	; 0x70
20005d96:	4366      	muls	r6, r4
20005d98:	0c36      	lsrs	r6, r6, #16
20005d9a:	0377      	lsls	r7, r6, #13
20005d9c:	46be      	mov	lr, r7
20005d9e:	4373      	muls	r3, r6
20005da0:	0bdf      	lsrs	r7, r3, #15
20005da2:	045b      	lsls	r3, r3, #17
20005da4:	1ac0      	subs	r0, r0, r3
20005da6:	41b9      	sbcs	r1, r7
20005da8:	0c13      	lsrs	r3, r2, #16
20005daa:	4373      	muls	r3, r6
20005dac:	18db      	adds	r3, r3, r3
20005dae:	1ac9      	subs	r1, r1, r3
20005db0:	08ce      	lsrs	r6, r1, #3
20005db2:	4366      	muls	r6, r4
20005db4:	0c36      	lsrs	r6, r6, #16
20005db6:	44b6      	add	lr, r6
20005db8:	b293      	uxth	r3, r2
20005dba:	4373      	muls	r3, r6
20005dbc:	0f1f      	lsrs	r7, r3, #28
20005dbe:	011b      	lsls	r3, r3, #4
20005dc0:	1ac0      	subs	r0, r0, r3
20005dc2:	41b9      	sbcs	r1, r7
20005dc4:	0c13      	lsrs	r3, r2, #16
20005dc6:	4373      	muls	r3, r6
20005dc8:	0b1f      	lsrs	r7, r3, #12
20005dca:	051b      	lsls	r3, r3, #20
20005dcc:	1ac0      	subs	r0, r0, r3
20005dce:	41b9      	sbcs	r1, r7
20005dd0:	0d86      	lsrs	r6, r0, #22
20005dd2:	028f      	lsls	r7, r1, #10
20005dd4:	433e      	orrs	r6, r7
20005dd6:	4366      	muls	r6, r4
20005dd8:	0c36      	lsrs	r6, r6, #16
20005dda:	2d09      	cmp	r5, #9
20005ddc:	db24      	blt.n	20005e28 <last0>
20005dde:	0a52      	lsrs	r2, r2, #9
20005de0:	4372      	muls	r2, r6
20005de2:	1a80      	subs	r0, r0, r2
20005de4:	0377      	lsls	r7, r6, #13
20005de6:	0a46      	lsrs	r6, r0, #9
20005de8:	4366      	muls	r6, r4
20005dea:	0c36      	lsrs	r6, r6, #16
20005dec:	2316      	movs	r3, #22
20005dee:	1b5b      	subs	r3, r3, r5
20005df0:	40de      	lsrs	r6, r3
20005df2:	40df      	lsrs	r7, r3
20005df4:	19bf      	adds	r7, r7, r6
20005df6:	4664      	mov	r4, ip
20005df8:	4366      	muls	r6, r4
20005dfa:	1b82      	subs	r2, r0, r6
20005dfc:	4670      	mov	r0, lr
20005dfe:	3504      	adds	r5, #4
20005e00:	3306      	adds	r3, #6
20005e02:	0001      	movs	r1, r0
20005e04:	40d9      	lsrs	r1, r3
20005e06:	40a8      	lsls	r0, r5
20005e08:	19c0      	adds	r0, r0, r7
20005e0a:	d300      	bcc.n	20005e0e <y64_x32+0xb6>
20005e0c:	3101      	adds	r1, #1
20005e0e:	42a2      	cmp	r2, r4
20005e10:	d206      	bcs.n	20005e20 <y64_x32+0xc8>
20005e12:	2300      	movs	r3, #0
20005e14:	bdf0      	pop	{r4, r5, r6, r7, pc}
20005e16:	0000      	.short	0x0000
20005e18:	d0000000 	.word	0xd0000000
20005e1c:	ffffffff 	.word	0xffffffff
20005e20:	1b12      	subs	r2, r2, r4
20005e22:	3001      	adds	r0, #1
20005e24:	d3f3      	bcc.n	20005e0e <y64_x32+0xb6>
20005e26:	e7f1      	b.n	20005e0c <y64_x32+0xb4>

20005e28 <last0>:
20005e28:	2709      	movs	r7, #9
20005e2a:	1b7f      	subs	r7, r7, r5
20005e2c:	40fe      	lsrs	r6, r7
20005e2e:	4664      	mov	r4, ip
20005e30:	b2a2      	uxth	r2, r4
20005e32:	4372      	muls	r2, r6
20005e34:	1a80      	subs	r0, r0, r2
20005e36:	d200      	bcs.n	20005e3a <last0+0x12>
20005e38:	3901      	subs	r1, #1
20005e3a:	0c22      	lsrs	r2, r4, #16
20005e3c:	4372      	muls	r2, r6
20005e3e:	0c13      	lsrs	r3, r2, #16
20005e40:	0412      	lsls	r2, r2, #16
20005e42:	1a82      	subs	r2, r0, r2
20005e44:	4199      	sbcs	r1, r3
20005e46:	000b      	movs	r3, r1
20005e48:	4670      	mov	r0, lr
20005e4a:	3504      	adds	r5, #4
20005e4c:	3713      	adds	r7, #19
20005e4e:	0001      	movs	r1, r0
20005e50:	40f9      	lsrs	r1, r7
20005e52:	40a8      	lsls	r0, r5
20005e54:	1980      	adds	r0, r0, r6
20005e56:	d300      	bcc.n	20005e5a <last0+0x32>
20005e58:	3101      	adds	r1, #1
20005e5a:	2b00      	cmp	r3, #0
20005e5c:	d102      	bne.n	20005e64 <last0+0x3c>
20005e5e:	42a2      	cmp	r2, r4
20005e60:	d20a      	bcs.n	20005e78 <last0+0x50>
20005e62:	bdf0      	pop	{r4, r5, r6, r7, pc}
20005e64:	3001      	adds	r0, #1
20005e66:	d300      	bcc.n	20005e6a <last0+0x42>
20005e68:	3101      	adds	r1, #1
20005e6a:	1b12      	subs	r2, r2, r4
20005e6c:	d2fa      	bcs.n	20005e64 <last0+0x3c>
20005e6e:	3b01      	subs	r3, #1
20005e70:	d1f8      	bne.n	20005e64 <last0+0x3c>
20005e72:	42a2      	cmp	r2, r4
20005e74:	d200      	bcs.n	20005e78 <last0+0x50>
20005e76:	bdf0      	pop	{r4, r5, r6, r7, pc}
20005e78:	3001      	adds	r0, #1
20005e7a:	d300      	bcc.n	20005e7e <last0+0x56>
20005e7c:	3101      	adds	r1, #1
20005e7e:	1b12      	subs	r2, r2, r4
20005e80:	e7f7      	b.n	20005e72 <last0+0x4a>

20005e82 <y64_x48>:
20005e82:	b5f0      	push	{r4, r5, r6, r7, lr}
20005e84:	0c1c      	lsrs	r4, r3, #16
20005e86:	d000      	beq.n	20005e8a <y64_x48+0x8>
20005e88:	e080      	b.n	20005f8c <y64_x64>
20005e8a:	b40c      	push	{r2, r3}
20005e8c:	2500      	movs	r5, #0
20005e8e:	0a1c      	lsrs	r4, r3, #8
20005e90:	d104      	bne.n	20005e9c <y64_x48+0x1a>
20005e92:	021b      	lsls	r3, r3, #8
20005e94:	0e16      	lsrs	r6, r2, #24
20005e96:	4333      	orrs	r3, r6
20005e98:	0212      	lsls	r2, r2, #8
20005e9a:	3508      	adds	r5, #8
20005e9c:	0b1c      	lsrs	r4, r3, #12
20005e9e:	d104      	bne.n	20005eaa <y64_x48+0x28>
20005ea0:	011b      	lsls	r3, r3, #4
20005ea2:	0f16      	lsrs	r6, r2, #28
20005ea4:	4333      	orrs	r3, r6
20005ea6:	0112      	lsls	r2, r2, #4
20005ea8:	3504      	adds	r5, #4
20005eaa:	0b9c      	lsrs	r4, r3, #14
20005eac:	d104      	bne.n	20005eb8 <y64_x48+0x36>
20005eae:	009b      	lsls	r3, r3, #2
20005eb0:	0f96      	lsrs	r6, r2, #30
20005eb2:	4333      	orrs	r3, r6
20005eb4:	0092      	lsls	r2, r2, #2
20005eb6:	3502      	adds	r5, #2
20005eb8:	0bdc      	lsrs	r4, r3, #15
20005eba:	d102      	bne.n	20005ec2 <y64_x48+0x40>
20005ebc:	1892      	adds	r2, r2, r2
20005ebe:	415b      	adcs	r3, r3
20005ec0:	3501      	adds	r5, #1
20005ec2:	001c      	movs	r4, r3
20005ec4:	1897      	adds	r7, r2, r2
20005ec6:	4164      	adcs	r4, r4
20005ec8:	3401      	adds	r4, #1
20005eca:	4f46      	ldr	r7, [pc, #280]	; (20005fe4 <y64_x64+0x58>)
20005ecc:	667c      	str	r4, [r7, #100]	; 0x64
20005ece:	4c46      	ldr	r4, [pc, #280]	; (20005fe8 <y64_x64+0x5c>)
20005ed0:	663c      	str	r4, [r7, #96]	; 0x60
20005ed2:	0c0e      	lsrs	r6, r1, #16
20005ed4:	e7ff      	b.n	20005ed6 <y64_x48+0x54>
20005ed6:	e7ff      	b.n	20005ed8 <y64_x48+0x56>
20005ed8:	e7ff      	b.n	20005eda <y64_x48+0x58>
20005eda:	46c0      	nop			; (mov r8, r8)
20005edc:	6f3c      	ldr	r4, [r7, #112]	; 0x70
20005ede:	4366      	muls	r6, r4
20005ee0:	0c36      	lsrs	r6, r6, #16
20005ee2:	0377      	lsls	r7, r6, #13
20005ee4:	46be      	mov	lr, r7
20005ee6:	b297      	uxth	r7, r2
20005ee8:	4377      	muls	r7, r6
20005eea:	1bc0      	subs	r0, r0, r7
20005eec:	d200      	bcs.n	20005ef0 <y64_x48+0x6e>
20005eee:	3901      	subs	r1, #1
20005ef0:	1bc0      	subs	r0, r0, r7
20005ef2:	d200      	bcs.n	20005ef6 <y64_x48+0x74>
20005ef4:	3901      	subs	r1, #1
20005ef6:	b29f      	uxth	r7, r3
20005ef8:	4377      	muls	r7, r6
20005efa:	1bc9      	subs	r1, r1, r7
20005efc:	1bc9      	subs	r1, r1, r7
20005efe:	0c17      	lsrs	r7, r2, #16
20005f00:	4377      	muls	r7, r6
20005f02:	047e      	lsls	r6, r7, #17
20005f04:	0bff      	lsrs	r7, r7, #15
20005f06:	1b80      	subs	r0, r0, r6
20005f08:	41b9      	sbcs	r1, r7
20005f0a:	08ce      	lsrs	r6, r1, #3
20005f0c:	4366      	muls	r6, r4
20005f0e:	0c36      	lsrs	r6, r6, #16
20005f10:	2d0c      	cmp	r5, #12
20005f12:	db33      	blt.n	20005f7c <last1>
20005f14:	44b6      	add	lr, r6
20005f16:	0b12      	lsrs	r2, r2, #12
20005f18:	051f      	lsls	r7, r3, #20
20005f1a:	433a      	orrs	r2, r7
20005f1c:	0b1b      	lsrs	r3, r3, #12
20005f1e:	b297      	uxth	r7, r2
20005f20:	4377      	muls	r7, r6
20005f22:	1bc0      	subs	r0, r0, r7
20005f24:	d200      	bcs.n	20005f28 <y64_x48+0xa6>
20005f26:	3901      	subs	r1, #1
20005f28:	b29f      	uxth	r7, r3
20005f2a:	4377      	muls	r7, r6
20005f2c:	1bc9      	subs	r1, r1, r7
20005f2e:	0c17      	lsrs	r7, r2, #16
20005f30:	4377      	muls	r7, r6
20005f32:	043e      	lsls	r6, r7, #16
20005f34:	0c3f      	lsrs	r7, r7, #16
20005f36:	1b80      	subs	r0, r0, r6
20005f38:	41b9      	sbcs	r1, r7
20005f3a:	0d86      	lsrs	r6, r0, #22
20005f3c:	028f      	lsls	r7, r1, #10
20005f3e:	433e      	orrs	r6, r7
20005f40:	4366      	muls	r6, r4
20005f42:	2729      	movs	r7, #41	; 0x29
20005f44:	1b7f      	subs	r7, r7, r5
20005f46:	40fe      	lsrs	r6, r7
20005f48:	3d0c      	subs	r5, #12
20005f4a:	4677      	mov	r7, lr
20005f4c:	40af      	lsls	r7, r5
20005f4e:	19bf      	adds	r7, r7, r6
20005f50:	bc30      	pop	{r4, r5}
20005f52:	b2a2      	uxth	r2, r4
20005f54:	b2ab      	uxth	r3, r5
20005f56:	4372      	muls	r2, r6
20005f58:	4373      	muls	r3, r6
20005f5a:	1a80      	subs	r0, r0, r2
20005f5c:	4199      	sbcs	r1, r3
20005f5e:	0c22      	lsrs	r2, r4, #16
20005f60:	4372      	muls	r2, r6
20005f62:	0c13      	lsrs	r3, r2, #16
20005f64:	0412      	lsls	r2, r2, #16
20005f66:	1a80      	subs	r0, r0, r2
20005f68:	4199      	sbcs	r1, r3
20005f6a:	0002      	movs	r2, r0
20005f6c:	000b      	movs	r3, r1
20005f6e:	3701      	adds	r7, #1
20005f70:	1b00      	subs	r0, r0, r4
20005f72:	41a9      	sbcs	r1, r5
20005f74:	d2f9      	bcs.n	20005f6a <y64_x48+0xe8>
20005f76:	1e78      	subs	r0, r7, #1
20005f78:	2100      	movs	r1, #0
20005f7a:	bdf0      	pop	{r4, r5, r6, r7, pc}

20005f7c <last1>:
20005f7c:	270c      	movs	r7, #12
20005f7e:	1b7f      	subs	r7, r7, r5
20005f80:	40fe      	lsrs	r6, r7
20005f82:	4677      	mov	r7, lr
20005f84:	0b7f      	lsrs	r7, r7, #13
20005f86:	40af      	lsls	r7, r5
20005f88:	19ff      	adds	r7, r7, r7
20005f8a:	e7e0      	b.n	20005f4e <y64_x48+0xcc>

20005f8c <y64_x64>:
20005f8c:	2400      	movs	r4, #0
20005f8e:	1c5d      	adds	r5, r3, #1
20005f90:	d007      	beq.n	20005fa2 <y64_x64+0x16>
20005f92:	4f14      	ldr	r7, [pc, #80]	; (20005fe4 <y64_x64+0x58>)
20005f94:	667d      	str	r5, [r7, #100]	; 0x64
20005f96:	6639      	str	r1, [r7, #96]	; 0x60
20005f98:	e7ff      	b.n	20005f9a <y64_x64+0xe>
20005f9a:	e7ff      	b.n	20005f9c <y64_x64+0x10>
20005f9c:	e7ff      	b.n	20005f9e <y64_x64+0x12>
20005f9e:	e7ff      	b.n	20005fa0 <y64_x64+0x14>
20005fa0:	6f3c      	ldr	r4, [r7, #112]	; 0x70
20005fa2:	b295      	uxth	r5, r2
20005fa4:	b29e      	uxth	r6, r3
20005fa6:	4365      	muls	r5, r4
20005fa8:	4366      	muls	r6, r4
20005faa:	1b40      	subs	r0, r0, r5
20005fac:	41b1      	sbcs	r1, r6
20005fae:	0c15      	lsrs	r5, r2, #16
20005fb0:	0c1e      	lsrs	r6, r3, #16
20005fb2:	4365      	muls	r5, r4
20005fb4:	4366      	muls	r6, r4
20005fb6:	0436      	lsls	r6, r6, #16
20005fb8:	0c2f      	lsrs	r7, r5, #16
20005fba:	433e      	orrs	r6, r7
20005fbc:	042d      	lsls	r5, r5, #16
20005fbe:	1b40      	subs	r0, r0, r5
20005fc0:	41b1      	sbcs	r1, r6
20005fc2:	4299      	cmp	r1, r3
20005fc4:	d204      	bcs.n	20005fd0 <y64_x64+0x44>
20005fc6:	0002      	movs	r2, r0
20005fc8:	000b      	movs	r3, r1
20005fca:	0020      	movs	r0, r4
20005fcc:	2100      	movs	r1, #0
20005fce:	bdf0      	pop	{r4, r5, r6, r7, pc}
20005fd0:	d101      	bne.n	20005fd6 <y64_x64+0x4a>
20005fd2:	4290      	cmp	r0, r2
20005fd4:	d3f7      	bcc.n	20005fc6 <y64_x64+0x3a>
20005fd6:	1a80      	subs	r0, r0, r2
20005fd8:	4199      	sbcs	r1, r3
20005fda:	3401      	adds	r4, #1
20005fdc:	4299      	cmp	r1, r3
20005fde:	d3f2      	bcc.n	20005fc6 <y64_x64+0x3a>
20005fe0:	e7f6      	b.n	20005fd0 <y64_x64+0x44>
20005fe2:	0000      	.short	0x0000
20005fe4:	d0000000 	.word	0xd0000000
20005fe8:	ffffffff 	.word	0xffffffff

20005fec <__wrap___aeabi_drsub>:
20005fec:	4048      	eors	r0, r1
20005fee:	4041      	eors	r1, r0
20005ff0:	4048      	eors	r0, r1

20005ff2 <__wrap___aeabi_dsub>:
20005ff2:	b418      	push	{r3, r4}
20005ff4:	4b1b      	ldr	r3, [pc, #108]	; (20006064 <__wrap___aeabi_dmul+0x12>)
20005ff6:	685b      	ldr	r3, [r3, #4]
20005ff8:	46fc      	mov	ip, pc
20005ffa:	9301      	str	r3, [sp, #4]
20005ffc:	bd08      	pop	{r3, pc}
20005ffe:	df04      	.short	0xdf04
20006000:	20006d77 	.word	0x20006d77

20006004 <__wrap___aeabi_dadd>:
20006004:	b418      	push	{r3, r4}
20006006:	4b17      	ldr	r3, [pc, #92]	; (20006064 <__wrap___aeabi_dmul+0x12>)
20006008:	681b      	ldr	r3, [r3, #0]
2000600a:	46fc      	mov	ip, pc
2000600c:	9301      	str	r3, [sp, #4]
2000600e:	bd08      	pop	{r3, pc}
20006010:	6d81df00 	.word	0x6d81df00
20006014:	2000      	.short	0x2000

20006016 <__wrap___aeabi_ddiv>:
20006016:	4694      	mov	ip, r2
20006018:	4a13      	ldr	r2, [pc, #76]	; (20006068 <__wrap___aeabi_dmul+0x16>)
2000601a:	6f92      	ldr	r2, [r2, #120]	; 0x78
2000601c:	0892      	lsrs	r2, r2, #2
2000601e:	d209      	bcs.n	20006034 <ddiv_save_state>
20006020:	4662      	mov	r2, ip

20006022 <ddiv_shim_call>:
20006022:	b418      	push	{r3, r4}
20006024:	4b0f      	ldr	r3, [pc, #60]	; (20006064 <__wrap___aeabi_dmul+0x12>)
20006026:	68db      	ldr	r3, [r3, #12]
20006028:	46fc      	mov	ip, pc
2000602a:	9301      	str	r3, [sp, #4]
2000602c:	bd08      	pop	{r3, pc}
2000602e:	df0c      	.short	0xdf0c
20006030:	20007039 	.word	0x20007039

20006034 <ddiv_save_state>:
20006034:	4a0c      	ldr	r2, [pc, #48]	; (20006068 <__wrap___aeabi_dmul+0x16>)
20006036:	b5f0      	push	{r4, r5, r6, r7, lr}
20006038:	6e14      	ldr	r4, [r2, #96]	; 0x60
2000603a:	6e55      	ldr	r5, [r2, #100]	; 0x64
2000603c:	6f57      	ldr	r7, [r2, #116]	; 0x74
2000603e:	6f16      	ldr	r6, [r2, #112]	; 0x70
20006040:	4662      	mov	r2, ip
20006042:	f7ff ffee 	bl	20006022 <ddiv_shim_call>
20006046:	4a08      	ldr	r2, [pc, #32]	; (20006068 <__wrap___aeabi_dmul+0x16>)
20006048:	6614      	str	r4, [r2, #96]	; 0x60
2000604a:	6655      	str	r5, [r2, #100]	; 0x64
2000604c:	6757      	str	r7, [r2, #116]	; 0x74
2000604e:	6716      	str	r6, [r2, #112]	; 0x70
20006050:	bdf0      	pop	{r4, r5, r6, r7, pc}

20006052 <__wrap___aeabi_dmul>:
20006052:	b418      	push	{r3, r4}
20006054:	4b03      	ldr	r3, [pc, #12]	; (20006064 <__wrap___aeabi_dmul+0x12>)
20006056:	689b      	ldr	r3, [r3, #8]
20006058:	46fc      	mov	ip, pc
2000605a:	9301      	str	r3, [sp, #4]
2000605c:	bd08      	pop	{r3, pc}
2000605e:	df08      	.short	0xdf08
20006060:	20006edd 	.word	0x20006edd
20006064:	2001485c 	.word	0x2001485c
20006068:	d0000000 	.word	0xd0000000

2000606c <__wrap___aeabi_cdrcmple>:
2000606c:	b5ff      	push	{r0, r1, r2, r3, r4, r5, r6, r7, lr}
2000606e:	4050      	eors	r0, r2
20006070:	4042      	eors	r2, r0
20006072:	4050      	eors	r0, r2
20006074:	4059      	eors	r1, r3
20006076:	404b      	eors	r3, r1
20006078:	4059      	eors	r1, r3
2000607a:	e000      	b.n	2000607e <__aeabi_dfcmple_guts>

2000607c <__wrap___aeabi_cdcmpeq>:
2000607c:	b5ff      	push	{r0, r1, r2, r3, r4, r5, r6, r7, lr}

2000607e <__aeabi_dfcmple_guts>:
2000607e:	4f15      	ldr	r7, [pc, #84]	; (200060d4 <__aeabi_dfcmple_guts+0x56>)
20006080:	004c      	lsls	r4, r1, #1
20006082:	0d64      	lsrs	r4, r4, #21
20006084:	d003      	beq.n	2000608e <__aeabi_dfcmple_guts+0x10>
20006086:	42bc      	cmp	r4, r7
20006088:	d104      	bne.n	20006094 <__aeabi_dfcmple_guts+0x16>
2000608a:	030c      	lsls	r4, r1, #12
2000608c:	d814      	bhi.n	200060b8 <__aeabi_dfcmple_guts+0x3a>
2000608e:	2000      	movs	r0, #0
20006090:	0d09      	lsrs	r1, r1, #20
20006092:	0509      	lsls	r1, r1, #20
20006094:	005c      	lsls	r4, r3, #1
20006096:	0d64      	lsrs	r4, r4, #21
20006098:	d003      	beq.n	200060a2 <__aeabi_dfcmple_guts+0x24>
2000609a:	42bc      	cmp	r4, r7
2000609c:	d104      	bne.n	200060a8 <__aeabi_dfcmple_guts+0x2a>
2000609e:	031c      	lsls	r4, r3, #12
200060a0:	d80a      	bhi.n	200060b8 <__aeabi_dfcmple_guts+0x3a>
200060a2:	2200      	movs	r2, #0
200060a4:	0d1b      	lsrs	r3, r3, #20
200060a6:	051b      	lsls	r3, r3, #20
200060a8:	2601      	movs	r6, #1
200060aa:	404b      	eors	r3, r1
200060ac:	d409      	bmi.n	200060c2 <__aeabi_dfcmple_guts+0x44>
200060ae:	404b      	eors	r3, r1
200060b0:	d503      	bpl.n	200060ba <__aeabi_dfcmple_guts+0x3c>
200060b2:	428b      	cmp	r3, r1
200060b4:	d100      	bne.n	200060b8 <__aeabi_dfcmple_guts+0x3a>
200060b6:	4282      	cmp	r2, r0
200060b8:	bdff      	pop	{r0, r1, r2, r3, r4, r5, r6, r7, pc}
200060ba:	4299      	cmp	r1, r3
200060bc:	d1fc      	bne.n	200060b8 <__aeabi_dfcmple_guts+0x3a>
200060be:	4290      	cmp	r0, r2
200060c0:	bdff      	pop	{r0, r1, r2, r3, r4, r5, r6, r7, pc}
200060c2:	430b      	orrs	r3, r1
200060c4:	18db      	adds	r3, r3, r3
200060c6:	4303      	orrs	r3, r0
200060c8:	4313      	orrs	r3, r2
200060ca:	d0f5      	beq.n	200060b8 <__aeabi_dfcmple_guts+0x3a>
200060cc:	43c9      	mvns	r1, r1
200060ce:	1849      	adds	r1, r1, r1
200060d0:	bdff      	pop	{r0, r1, r2, r3, r4, r5, r6, r7, pc}
200060d2:	0000      	.short	0x0000
200060d4:	000007ff 	.word	0x000007ff

200060d8 <__wrap___aeabi_dcmpeq>:
200060d8:	b500      	push	{lr}
200060da:	f7ff ffcf 	bl	2000607c <__wrap___aeabi_cdcmpeq>
200060de:	d001      	beq.n	200060e4 <__wrap___aeabi_dcmpeq+0xc>
200060e0:	2000      	movs	r0, #0
200060e2:	bd00      	pop	{pc}
200060e4:	2001      	movs	r0, #1
200060e6:	bd00      	pop	{pc}

200060e8 <__wrap___aeabi_dcmplt>:
200060e8:	b500      	push	{lr}
200060ea:	f7ff ffc7 	bl	2000607c <__wrap___aeabi_cdcmpeq>
200060ee:	4180      	sbcs	r0, r0
200060f0:	bd00      	pop	{pc}
200060f2:	46c0      	nop			; (mov r8, r8)

200060f4 <__wrap___aeabi_dcmple>:
200060f4:	b500      	push	{lr}
200060f6:	f7ff ffc1 	bl	2000607c <__wrap___aeabi_cdcmpeq>
200060fa:	d901      	bls.n	20006100 <__wrap___aeabi_dcmple+0xc>
200060fc:	2000      	movs	r0, #0
200060fe:	bd00      	pop	{pc}
20006100:	2001      	movs	r0, #1
20006102:	bd00      	pop	{pc}

20006104 <__wrap___aeabi_dcmpge>:
20006104:	b500      	push	{lr}
20006106:	f7ff ffb1 	bl	2000606c <__wrap___aeabi_cdrcmple>
2000610a:	d901      	bls.n	20006110 <__wrap___aeabi_dcmpge+0xc>
2000610c:	2000      	movs	r0, #0
2000610e:	bd00      	pop	{pc}
20006110:	2001      	movs	r0, #1
20006112:	bd00      	pop	{pc}

20006114 <__wrap___aeabi_dcmpgt>:
20006114:	b500      	push	{lr}
20006116:	f7ff ffa9 	bl	2000606c <__wrap___aeabi_cdrcmple>
2000611a:	4180      	sbcs	r0, r0
2000611c:	bd00      	pop	{pc}

2000611e <__wrap___aeabi_dcmpun>:
2000611e:	2001      	movs	r0, #1
20006120:	0540      	lsls	r0, r0, #21
20006122:	004a      	lsls	r2, r1, #1
20006124:	1812      	adds	r2, r2, r0
20006126:	d804      	bhi.n	20006132 <__wrap___aeabi_dcmpun+0x14>
20006128:	005a      	lsls	r2, r3, #1
2000612a:	1812      	adds	r2, r2, r0
2000612c:	d801      	bhi.n	20006132 <__wrap___aeabi_dcmpun+0x14>
2000612e:	2000      	movs	r0, #0
20006130:	4770      	bx	lr
20006132:	2001      	movs	r0, #1
20006134:	4770      	bx	lr
20006136:	2000      	movs	r0, #0
20006138:	4770      	bx	lr
	...

2000613c <__wrap___aeabi_ui2d>:
2000613c:	2100      	movs	r1, #0
2000613e:	2800      	cmp	r0, #0
20006140:	d105      	bne.n	2000614e <__wrap___aeabi_i2d+0xa>
20006142:	4770      	bx	lr

20006144 <__wrap___aeabi_i2d>:
20006144:	17c1      	asrs	r1, r0, #31
20006146:	4048      	eors	r0, r1
20006148:	1a40      	subs	r0, r0, r1
2000614a:	d0fa      	beq.n	20006142 <__wrap___aeabi_ui2d+0x6>
2000614c:	07c9      	lsls	r1, r1, #31
2000614e:	b513      	push	{r0, r1, r4, lr}
20006150:	4b06      	ldr	r3, [pc, #24]	; (2000616c <__wrap___aeabi_i2d+0x28>)
20006152:	681b      	ldr	r3, [r3, #0]
20006154:	4798      	blx	r3
20006156:	bc0c      	pop	{r2, r3}
20006158:	1c44      	adds	r4, r0, #1
2000615a:	40a2      	lsls	r2, r4
2000615c:	0510      	lsls	r0, r2, #20
2000615e:	0b12      	lsrs	r2, r2, #12
20006160:	4903      	ldr	r1, [pc, #12]	; (20006170 <__wrap___aeabi_i2d+0x2c>)
20006162:	1b09      	subs	r1, r1, r4
20006164:	0509      	lsls	r1, r1, #20
20006166:	4319      	orrs	r1, r3
20006168:	4311      	orrs	r1, r2
2000616a:	bd10      	pop	{r4, pc}
2000616c:	2000d358 	.word	0x2000d358
20006170:	0000041f 	.word	0x0000041f

20006174 <__wrap___aeabi_d2iz>:
20006174:	b510      	push	{r4, lr}
20006176:	004c      	lsls	r4, r1, #1
20006178:	0d62      	lsrs	r2, r4, #21
2000617a:	2380      	movs	r3, #128	; 0x80
2000617c:	18d2      	adds	r2, r2, r3
2000617e:	00db      	lsls	r3, r3, #3
20006180:	1ad2      	subs	r2, r2, r3
20006182:	055b      	lsls	r3, r3, #21
20006184:	2a7e      	cmp	r2, #126	; 0x7e
20006186:	dd10      	ble.n	200061aa <__wrap___aeabi_d2iz+0x36>
20006188:	3a9e      	subs	r2, #158	; 0x9e
2000618a:	da13      	bge.n	200061b4 <__wrap___aeabi_d2iz+0x40>
2000618c:	17cc      	asrs	r4, r1, #31
2000618e:	0309      	lsls	r1, r1, #12
20006190:	0849      	lsrs	r1, r1, #1
20006192:	4319      	orrs	r1, r3
20006194:	4252      	negs	r2, r2
20006196:	40d1      	lsrs	r1, r2
20006198:	0064      	lsls	r4, r4, #1
2000619a:	3401      	adds	r4, #1
2000619c:	3215      	adds	r2, #21
2000619e:	2a20      	cmp	r2, #32
200061a0:	da05      	bge.n	200061ae <__wrap___aeabi_d2iz+0x3a>
200061a2:	40d0      	lsrs	r0, r2
200061a4:	4308      	orrs	r0, r1
200061a6:	4360      	muls	r0, r4
200061a8:	bd10      	pop	{r4, pc}
200061aa:	2000      	movs	r0, #0
200061ac:	bd10      	pop	{r4, pc}
200061ae:	4608      	mov	r0, r1
200061b0:	4360      	muls	r0, r4
200061b2:	bd10      	pop	{r4, pc}
200061b4:	0fc8      	lsrs	r0, r1, #31
200061b6:	18c0      	adds	r0, r0, r3
200061b8:	3801      	subs	r0, #1
200061ba:	bd10      	pop	{r4, pc}

200061bc <__wrap___aeabi_d2uiz>:
200061bc:	b418      	push	{r3, r4}
200061be:	4b04      	ldr	r3, [pc, #16]	; (200061d0 <__wrap___aeabi_d2uiz+0x14>)
200061c0:	6a5b      	ldr	r3, [r3, #36]	; 0x24
200061c2:	46fc      	mov	ip, pc
200061c4:	9301      	str	r3, [sp, #4]
200061c6:	bd08      	pop	{r3, pc}
200061c8:	71e9df24 	.word	0x71e9df24
200061cc:	00002000 	.word	0x00002000
200061d0:	2001485c 	.word	0x2001485c

200061d4 <__wrap_exp>:
200061d4:	b418      	push	{r3, r4}
200061d6:	4b04      	ldr	r3, [pc, #16]	; (200061e8 <__wrap_exp+0x14>)
200061d8:	6cdb      	ldr	r3, [r3, #76]	; 0x4c
200061da:	46fc      	mov	ip, pc
200061dc:	9301      	str	r3, [sp, #4]
200061de:	bd08      	pop	{r3, pc}
200061e0:	73b9df4c 	.word	0x73b9df4c
200061e4:	00002000 	.word	0x00002000
200061e8:	2001485c 	.word	0x2001485c

200061ec <__wrap_log>:
200061ec:	b418      	push	{r3, r4}
200061ee:	4b04      	ldr	r3, [pc, #16]	; (20006200 <__wrap_log+0x14>)
200061f0:	6d1b      	ldr	r3, [r3, #80]	; 0x50
200061f2:	46fc      	mov	ip, pc
200061f4:	9301      	str	r3, [sp, #4]
200061f6:	bd08      	pop	{r3, pc}
200061f8:	7455df50 	.word	0x7455df50
200061fc:	00002000 	.word	0x00002000
20006200:	2001485c 	.word	0x2001485c

20006204 <__aeabi_double_init>:
20006204:	2313      	movs	r3, #19
20006206:	b570      	push	{r4, r5, r6, lr}
20006208:	781d      	ldrb	r5, [r3, #0]
2000620a:	2d01      	cmp	r5, #1
2000620c:	d015      	beq.n	2000623a <__aeabi_double_init+0x36>
2000620e:	dd10      	ble.n	20006232 <__aeabi_double_init+0x2e>
20006210:	4827      	ldr	r0, [pc, #156]	; (200062b0 <__aeabi_double_init+0xac>)
20006212:	f7ff fc5d 	bl	20005ad0 <rom_data_lookup>
20006216:	4c27      	ldr	r4, [pc, #156]	; (200062b4 <__aeabi_double_init+0xb0>)
20006218:	0001      	movs	r1, r0
2000621a:	2280      	movs	r2, #128	; 0x80
2000621c:	0020      	movs	r0, r4
2000621e:	f001 fa6f 	bl	20007700 <__wrap___aeabi_memcpy>
20006222:	2d02      	cmp	r5, #2
20006224:	d006      	beq.n	20006234 <__aeabi_double_init+0x30>
20006226:	4824      	ldr	r0, [pc, #144]	; (200062b8 <__aeabi_double_init+0xb4>)
20006228:	f7ff fc4a 	bl	20005ac0 <rom_func_lookup>
2000622c:	4b23      	ldr	r3, [pc, #140]	; (200062bc <__aeabi_double_init+0xb8>)
2000622e:	6018      	str	r0, [r3, #0]
20006230:	bd70      	pop	{r4, r5, r6, pc}
20006232:	4c20      	ldr	r4, [pc, #128]	; (200062b4 <__aeabi_double_init+0xb0>)
20006234:	4a22      	ldr	r2, [pc, #136]	; (200062c0 <__aeabi_double_init+0xbc>)
20006236:	64a2      	str	r2, [r4, #72]	; 0x48
20006238:	e7f5      	b.n	20006226 <__aeabi_double_init+0x22>
2000623a:	002e      	movs	r6, r5
2000623c:	4c1d      	ldr	r4, [pc, #116]	; (200062b4 <__aeabi_double_init+0xb0>)
2000623e:	4a20      	ldr	r2, [pc, #128]	; (200062c0 <__aeabi_double_init+0xbc>)
20006240:	08a3      	lsrs	r3, r4, #2
20006242:	425b      	negs	r3, r3
20006244:	401e      	ands	r6, r3
20006246:	421d      	tst	r5, r3
20006248:	d02f      	beq.n	200062aa <__aeabi_double_init+0xa6>
2000624a:	0033      	movs	r3, r6
2000624c:	6022      	str	r2, [r4, #0]
2000624e:	2020      	movs	r0, #32
20006250:	00b1      	lsls	r1, r6, #2
20006252:	1861      	adds	r1, r4, r1
20006254:	1b80      	subs	r0, r0, r6
20006256:	600a      	str	r2, [r1, #0]
20006258:	604a      	str	r2, [r1, #4]
2000625a:	608a      	str	r2, [r1, #8]
2000625c:	60ca      	str	r2, [r1, #12]
2000625e:	610a      	str	r2, [r1, #16]
20006260:	614a      	str	r2, [r1, #20]
20006262:	618a      	str	r2, [r1, #24]
20006264:	61ca      	str	r2, [r1, #28]
20006266:	620a      	str	r2, [r1, #32]
20006268:	624a      	str	r2, [r1, #36]	; 0x24
2000626a:	628a      	str	r2, [r1, #40]	; 0x28
2000626c:	62ca      	str	r2, [r1, #44]	; 0x2c
2000626e:	630a      	str	r2, [r1, #48]	; 0x30
20006270:	634a      	str	r2, [r1, #52]	; 0x34
20006272:	638a      	str	r2, [r1, #56]	; 0x38
20006274:	63ca      	str	r2, [r1, #60]	; 0x3c
20006276:	640a      	str	r2, [r1, #64]	; 0x40
20006278:	644a      	str	r2, [r1, #68]	; 0x44
2000627a:	648a      	str	r2, [r1, #72]	; 0x48
2000627c:	64ca      	str	r2, [r1, #76]	; 0x4c
2000627e:	650a      	str	r2, [r1, #80]	; 0x50
20006280:	654a      	str	r2, [r1, #84]	; 0x54
20006282:	658a      	str	r2, [r1, #88]	; 0x58
20006284:	65ca      	str	r2, [r1, #92]	; 0x5c
20006286:	660a      	str	r2, [r1, #96]	; 0x60
20006288:	664a      	str	r2, [r1, #100]	; 0x64
2000628a:	668a      	str	r2, [r1, #104]	; 0x68
2000628c:	66ca      	str	r2, [r1, #108]	; 0x6c
2000628e:	670a      	str	r2, [r1, #112]	; 0x70
20006290:	674a      	str	r2, [r1, #116]	; 0x74
20006292:	0840      	lsrs	r0, r0, #1
20006294:	2810      	cmp	r0, #16
20006296:	d103      	bne.n	200062a0 <__aeabi_double_init+0x9c>
20006298:	678a      	str	r2, [r1, #120]	; 0x78
2000629a:	67ca      	str	r2, [r1, #124]	; 0x7c
2000629c:	64a2      	str	r2, [r4, #72]	; 0x48
2000629e:	e7c2      	b.n	20006226 <__aeabi_double_init+0x22>
200062a0:	331e      	adds	r3, #30
200062a2:	009b      	lsls	r3, r3, #2
200062a4:	50e2      	str	r2, [r4, r3]
200062a6:	64a2      	str	r2, [r4, #72]	; 0x48
200062a8:	e7bd      	b.n	20006226 <__aeabi_double_init+0x22>
200062aa:	2300      	movs	r3, #0
200062ac:	e7cf      	b.n	2000624e <__aeabi_double_init+0x4a>
200062ae:	46c0      	nop			; (mov r8, r8)
200062b0:	00004453 	.word	0x00004453
200062b4:	2001485c 	.word	0x2001485c
200062b8:	0000334c 	.word	0x0000334c
200062bc:	2000d358 	.word	0x2000d358
200062c0:	20006d45 	.word	0x20006d45

200062c4 <dpow_int2>:
200062c4:	b570      	push	{r4, r5, r6, lr}
200062c6:	0004      	movs	r4, r0
200062c8:	000d      	movs	r5, r1
200062ca:	0016      	movs	r6, r2
200062cc:	2a01      	cmp	r2, #1
200062ce:	d00e      	beq.n	200062ee <dpow_int2+0x2a>
200062d0:	0fd2      	lsrs	r2, r2, #31
200062d2:	1992      	adds	r2, r2, r6
200062d4:	1052      	asrs	r2, r2, #1
200062d6:	f7ff fff5 	bl	200062c4 <dpow_int2>
200062da:	000b      	movs	r3, r1
200062dc:	0002      	movs	r2, r0
200062de:	f7ff feb8 	bl	20006052 <__wrap___aeabi_dmul>
200062e2:	07f3      	lsls	r3, r6, #31
200062e4:	d503      	bpl.n	200062ee <dpow_int2+0x2a>
200062e6:	0022      	movs	r2, r4
200062e8:	002b      	movs	r3, r5
200062ea:	f7ff feb2 	bl	20006052 <__wrap___aeabi_dmul>
200062ee:	bd70      	pop	{r4, r5, r6, pc}

200062f0 <dpow_1>:
200062f0:	b5f0      	push	{r4, r5, r6, r7, lr}
200062f2:	4646      	mov	r6, r8
200062f4:	464f      	mov	r7, r9
200062f6:	46d6      	mov	lr, sl
200062f8:	b5c0      	push	{r6, r7, lr}
200062fa:	004e      	lsls	r6, r1, #1
200062fc:	001d      	movs	r5, r3
200062fe:	0d73      	lsrs	r3, r6, #21
20006300:	4699      	mov	r9, r3
20006302:	4b8c      	ldr	r3, [pc, #560]	; (20006534 <dpow_1+0x244>)
20006304:	0014      	movs	r4, r2
20006306:	444b      	add	r3, r9
20006308:	4698      	mov	r8, r3
2000630a:	464b      	mov	r3, r9
2000630c:	b088      	sub	sp, #32
2000630e:	2b00      	cmp	r3, #0
20006310:	d030      	beq.n	20006374 <dpow_1+0x84>
20006312:	4b89      	ldr	r3, [pc, #548]	; (20006538 <dpow_1+0x248>)
20006314:	4599      	cmp	r9, r3
20006316:	d02d      	beq.n	20006374 <dpow_1+0x84>
20006318:	464b      	mov	r3, r9
2000631a:	2200      	movs	r2, #0
2000631c:	4f87      	ldr	r7, [pc, #540]	; (2000653c <dpow_1+0x24c>)
2000631e:	1aff      	subs	r7, r7, r3
20006320:	053b      	lsls	r3, r7, #20
20006322:	1880      	adds	r0, r0, r2
20006324:	4159      	adcs	r1, r3
20006326:	f7ff ff61 	bl	200061ec <__wrap_log>
2000632a:	4a85      	ldr	r2, [pc, #532]	; (20006540 <dpow_1+0x250>)
2000632c:	4b85      	ldr	r3, [pc, #532]	; (20006544 <dpow_1+0x254>)
2000632e:	f7ff fe72 	bl	20006016 <__wrap___aeabi_ddiv>
20006332:	2200      	movs	r2, #0
20006334:	4b84      	ldr	r3, [pc, #528]	; (20006548 <dpow_1+0x258>)
20006336:	0006      	movs	r6, r0
20006338:	000f      	movs	r7, r1
2000633a:	f7ff feeb 	bl	20006114 <__wrap___aeabi_dcmpgt>
2000633e:	2800      	cmp	r0, #0
20006340:	d126      	bne.n	20006390 <dpow_1+0xa0>
20006342:	4643      	mov	r3, r8
20006344:	2b00      	cmp	r3, #0
20006346:	d031      	beq.n	200063ac <dpow_1+0xbc>
20006348:	2200      	movs	r2, #0
2000634a:	0020      	movs	r0, r4
2000634c:	0029      	movs	r1, r5
2000634e:	4b7f      	ldr	r3, [pc, #508]	; (2000654c <dpow_1+0x25c>)
20006350:	f7ff fed8 	bl	20006104 <__wrap___aeabi_dcmpge>
20006354:	2800      	cmp	r0, #0
20006356:	d132      	bne.n	200063be <dpow_1+0xce>
20006358:	2200      	movs	r2, #0
2000635a:	0020      	movs	r0, r4
2000635c:	0029      	movs	r1, r5
2000635e:	4b7c      	ldr	r3, [pc, #496]	; (20006550 <dpow_1+0x260>)
20006360:	f7ff fec8 	bl	200060f4 <__wrap___aeabi_dcmple>
20006364:	2800      	cmp	r0, #0
20006366:	d035      	beq.n	200063d4 <dpow_1+0xe4>
20006368:	4643      	mov	r3, r8
2000636a:	2000      	movs	r0, #0
2000636c:	2b00      	cmp	r3, #0
2000636e:	db2a      	blt.n	200063c6 <dpow_1+0xd6>
20006370:	2100      	movs	r1, #0
20006372:	e029      	b.n	200063c8 <dpow_1+0xd8>
20006374:	f7ff ff3a 	bl	200061ec <__wrap_log>
20006378:	4a71      	ldr	r2, [pc, #452]	; (20006540 <dpow_1+0x250>)
2000637a:	4b72      	ldr	r3, [pc, #456]	; (20006544 <dpow_1+0x254>)
2000637c:	f7ff fe4b 	bl	20006016 <__wrap___aeabi_ddiv>
20006380:	2200      	movs	r2, #0
20006382:	4b71      	ldr	r3, [pc, #452]	; (20006548 <dpow_1+0x258>)
20006384:	0006      	movs	r6, r0
20006386:	000f      	movs	r7, r1
20006388:	f7ff fec4 	bl	20006114 <__wrap___aeabi_dcmpgt>
2000638c:	2800      	cmp	r0, #0
2000638e:	d0db      	beq.n	20006348 <dpow_1+0x58>
20006390:	0030      	movs	r0, r6
20006392:	0039      	movs	r1, r7
20006394:	4b6f      	ldr	r3, [pc, #444]	; (20006554 <dpow_1+0x264>)
20006396:	2200      	movs	r2, #0
20006398:	f7ff fe2b 	bl	20005ff2 <__wrap___aeabi_dsub>
2000639c:	4b6e      	ldr	r3, [pc, #440]	; (20006558 <dpow_1+0x268>)
2000639e:	0006      	movs	r6, r0
200063a0:	444b      	add	r3, r9
200063a2:	4698      	mov	r8, r3
200063a4:	4643      	mov	r3, r8
200063a6:	000f      	movs	r7, r1
200063a8:	2b00      	cmp	r3, #0
200063aa:	d1cd      	bne.n	20006348 <dpow_1+0x58>
200063ac:	0022      	movs	r2, r4
200063ae:	002b      	movs	r3, r5
200063b0:	0030      	movs	r0, r6
200063b2:	0039      	movs	r1, r7
200063b4:	f7ff fe4d 	bl	20006052 <__wrap___aeabi_dmul>
200063b8:	f000 fad8 	bl	2000696c <__wrap_exp2>
200063bc:	e004      	b.n	200063c8 <dpow_1+0xd8>
200063be:	4643      	mov	r3, r8
200063c0:	2000      	movs	r0, #0
200063c2:	2b00      	cmp	r3, #0
200063c4:	dbd4      	blt.n	20006370 <dpow_1+0x80>
200063c6:	4965      	ldr	r1, [pc, #404]	; (2000655c <dpow_1+0x26c>)
200063c8:	b008      	add	sp, #32
200063ca:	bc1c      	pop	{r2, r3, r4}
200063cc:	4690      	mov	r8, r2
200063ce:	4699      	mov	r9, r3
200063d0:	46a2      	mov	sl, r4
200063d2:	bdf0      	pop	{r4, r5, r6, r7, pc}
200063d4:	0020      	movs	r0, r4
200063d6:	0029      	movs	r1, r5
200063d8:	f000 fa30 	bl	2000683c <__wrap_round>
200063dc:	000b      	movs	r3, r1
200063de:	0002      	movs	r2, r0
200063e0:	0029      	movs	r1, r5
200063e2:	0020      	movs	r0, r4
200063e4:	9204      	str	r2, [sp, #16]
200063e6:	9305      	str	r3, [sp, #20]
200063e8:	f7ff fe03 	bl	20005ff2 <__wrap___aeabi_dsub>
200063ec:	221a      	movs	r2, #26
200063ee:	9002      	str	r0, [sp, #8]
200063f0:	9103      	str	r1, [sp, #12]
200063f2:	f000 f9fb 	bl	200067ec <__wrap_ldexp>
200063f6:	f000 fa21 	bl	2000683c <__wrap_round>
200063fa:	000b      	movs	r3, r1
200063fc:	0002      	movs	r2, r0
200063fe:	9200      	str	r2, [sp, #0]
20006400:	9301      	str	r3, [sp, #4]
20006402:	004b      	lsls	r3, r1, #1
20006404:	0004      	movs	r4, r0
20006406:	000d      	movs	r5, r1
20006408:	0d5b      	lsrs	r3, r3, #21
2000640a:	d00b      	beq.n	20006424 <dpow_1+0x134>
2000640c:	4a4a      	ldr	r2, [pc, #296]	; (20006538 <dpow_1+0x248>)
2000640e:	4293      	cmp	r3, r2
20006410:	d008      	beq.n	20006424 <dpow_1+0x134>
20006412:	2200      	movs	r2, #0
20006414:	2b1a      	cmp	r3, #26
20006416:	dc00      	bgt.n	2000641a <dpow_1+0x12a>
20006418:	e081      	b.n	2000651e <dpow_1+0x22e>
2000641a:	4b51      	ldr	r3, [pc, #324]	; (20006560 <dpow_1+0x270>)
2000641c:	1912      	adds	r2, r2, r4
2000641e:	416b      	adcs	r3, r5
20006420:	9200      	str	r2, [sp, #0]
20006422:	9301      	str	r3, [sp, #4]
20006424:	9804      	ldr	r0, [sp, #16]
20006426:	9905      	ldr	r1, [sp, #20]
20006428:	f7ff fea4 	bl	20006174 <__wrap___aeabi_d2iz>
2000642c:	4682      	mov	sl, r0
2000642e:	4640      	mov	r0, r8
20006430:	f7ff fe88 	bl	20006144 <__wrap___aeabi_i2d>
20006434:	9a00      	ldr	r2, [sp, #0]
20006436:	9b01      	ldr	r3, [sp, #4]
20006438:	9004      	str	r0, [sp, #16]
2000643a:	9105      	str	r1, [sp, #20]
2000643c:	f7ff fe09 	bl	20006052 <__wrap___aeabi_dmul>
20006440:	0004      	movs	r4, r0
20006442:	000d      	movs	r5, r1
20006444:	f000 f9fa 	bl	2000683c <__wrap_round>
20006448:	000a      	movs	r2, r1
2000644a:	0001      	movs	r1, r0
2000644c:	0013      	movs	r3, r2
2000644e:	9106      	str	r1, [sp, #24]
20006450:	9207      	str	r2, [sp, #28]
20006452:	0002      	movs	r2, r0
20006454:	0029      	movs	r1, r5
20006456:	0020      	movs	r0, r4
20006458:	f7ff fdcb 	bl	20005ff2 <__wrap___aeabi_dsub>
2000645c:	9a00      	ldr	r2, [sp, #0]
2000645e:	9b01      	ldr	r3, [sp, #4]
20006460:	0004      	movs	r4, r0
20006462:	000d      	movs	r5, r1
20006464:	9802      	ldr	r0, [sp, #8]
20006466:	9903      	ldr	r1, [sp, #12]
20006468:	f7ff fdc3 	bl	20005ff2 <__wrap___aeabi_dsub>
2000646c:	9a04      	ldr	r2, [sp, #16]
2000646e:	9b05      	ldr	r3, [sp, #20]
20006470:	f7ff fdef 	bl	20006052 <__wrap___aeabi_dmul>
20006474:	0022      	movs	r2, r4
20006476:	002b      	movs	r3, r5
20006478:	f7ff fdc4 	bl	20006004 <__wrap___aeabi_dadd>
2000647c:	9000      	str	r0, [sp, #0]
2000647e:	9101      	str	r1, [sp, #4]
20006480:	4650      	mov	r0, sl
20006482:	f7ff fe5f 	bl	20006144 <__wrap___aeabi_i2d>
20006486:	0032      	movs	r2, r6
20006488:	003b      	movs	r3, r7
2000648a:	f7ff fde2 	bl	20006052 <__wrap___aeabi_dmul>
2000648e:	0004      	movs	r4, r0
20006490:	000d      	movs	r5, r1
20006492:	f000 f9d3 	bl	2000683c <__wrap_round>
20006496:	000a      	movs	r2, r1
20006498:	0001      	movs	r1, r0
2000649a:	0013      	movs	r3, r2
2000649c:	9104      	str	r1, [sp, #16]
2000649e:	9205      	str	r2, [sp, #20]
200064a0:	0002      	movs	r2, r0
200064a2:	0029      	movs	r1, r5
200064a4:	0020      	movs	r0, r4
200064a6:	f7ff fda4 	bl	20005ff2 <__wrap___aeabi_dsub>
200064aa:	9a00      	ldr	r2, [sp, #0]
200064ac:	9b01      	ldr	r3, [sp, #4]
200064ae:	f7ff fda9 	bl	20006004 <__wrap___aeabi_dadd>
200064b2:	0004      	movs	r4, r0
200064b4:	000d      	movs	r5, r1
200064b6:	9802      	ldr	r0, [sp, #8]
200064b8:	9903      	ldr	r1, [sp, #12]
200064ba:	0032      	movs	r2, r6
200064bc:	003b      	movs	r3, r7
200064be:	f7ff fdc8 	bl	20006052 <__wrap___aeabi_dmul>
200064c2:	0022      	movs	r2, r4
200064c4:	002b      	movs	r3, r5
200064c6:	f7ff fd9d 	bl	20006004 <__wrap___aeabi_dadd>
200064ca:	f000 fa4f 	bl	2000696c <__wrap_exp2>
200064ce:	004e      	lsls	r6, r1, #1
200064d0:	0004      	movs	r4, r0
200064d2:	000d      	movs	r5, r1
200064d4:	0d76      	lsrs	r6, r6, #21
200064d6:	d100      	bne.n	200064da <dpow_1+0x1ea>
200064d8:	e776      	b.n	200063c8 <dpow_1+0xd8>
200064da:	4b17      	ldr	r3, [pc, #92]	; (20006538 <dpow_1+0x248>)
200064dc:	429e      	cmp	r6, r3
200064de:	d100      	bne.n	200064e2 <dpow_1+0x1f2>
200064e0:	e772      	b.n	200063c8 <dpow_1+0xd8>
200064e2:	9806      	ldr	r0, [sp, #24]
200064e4:	9907      	ldr	r1, [sp, #28]
200064e6:	4653      	mov	r3, sl
200064e8:	4647      	mov	r7, r8
200064ea:	435f      	muls	r7, r3
200064ec:	f7ff fe42 	bl	20006174 <__wrap___aeabi_d2iz>
200064f0:	19c7      	adds	r7, r0, r7
200064f2:	9804      	ldr	r0, [sp, #16]
200064f4:	9905      	ldr	r1, [sp, #20]
200064f6:	f7ff fe3d 	bl	20006174 <__wrap___aeabi_d2iz>
200064fa:	19c0      	adds	r0, r0, r7
200064fc:	1983      	adds	r3, r0, r6
200064fe:	2b00      	cmp	r3, #0
20006500:	dd09      	ble.n	20006516 <dpow_1+0x226>
20006502:	4a18      	ldr	r2, [pc, #96]	; (20006564 <dpow_1+0x274>)
20006504:	4293      	cmp	r3, r2
20006506:	dd0d      	ble.n	20006524 <dpow_1+0x234>
20006508:	4a14      	ldr	r2, [pc, #80]	; (2000655c <dpow_1+0x26c>)
2000650a:	0feb      	lsrs	r3, r5, #31
2000650c:	07db      	lsls	r3, r3, #31
2000650e:	431a      	orrs	r2, r3
20006510:	2000      	movs	r0, #0
20006512:	0011      	movs	r1, r2
20006514:	e758      	b.n	200063c8 <dpow_1+0xd8>
20006516:	0feb      	lsrs	r3, r5, #31
20006518:	2000      	movs	r0, #0
2000651a:	07d9      	lsls	r1, r3, #31
2000651c:	e754      	b.n	200063c8 <dpow_1+0xd8>
2000651e:	0fc9      	lsrs	r1, r1, #31
20006520:	07cb      	lsls	r3, r1, #31
20006522:	e77d      	b.n	20006420 <dpow_1+0x130>
20006524:	2200      	movs	r2, #0
20006526:	0503      	lsls	r3, r0, #20
20006528:	1912      	adds	r2, r2, r4
2000652a:	416b      	adcs	r3, r5
2000652c:	0010      	movs	r0, r2
2000652e:	0019      	movs	r1, r3
20006530:	e74a      	b.n	200063c8 <dpow_1+0xd8>
20006532:	46c0      	nop			; (mov r8, r8)
20006534:	fffffc01 	.word	0xfffffc01
20006538:	000007ff 	.word	0x000007ff
2000653c:	000003ff 	.word	0x000003ff
20006540:	fefa39ef 	.word	0xfefa39ef
20006544:	3fe62e42 	.word	0x3fe62e42
20006548:	3fe00000 	.word	0x3fe00000
2000654c:	40b00000 	.word	0x40b00000
20006550:	c0b00000 	.word	0xc0b00000
20006554:	3ff00000 	.word	0x3ff00000
20006558:	fffffc02 	.word	0xfffffc02
2000655c:	7ff00000 	.word	0x7ff00000
20006560:	fe600000 	.word	0xfe600000
20006564:	000007fe 	.word	0x000007fe

20006568 <dpow_0>:
20006568:	b5f8      	push	{r3, r4, r5, r6, r7, lr}
2000656a:	4657      	mov	r7, sl
2000656c:	464e      	mov	r6, r9
2000656e:	4645      	mov	r5, r8
20006570:	46de      	mov	lr, fp
20006572:	4692      	mov	sl, r2
20006574:	b5e0      	push	{r5, r6, r7, lr}
20006576:	4699      	mov	r9, r3
20006578:	0006      	movs	r6, r0
2000657a:	000f      	movs	r7, r1
2000657c:	0004      	movs	r4, r0
2000657e:	1e0d      	subs	r5, r1, #0
20006580:	da43      	bge.n	2000660a <dpow_0+0xa2>
20006582:	005a      	lsls	r2, r3, #1
20006584:	4b92      	ldr	r3, [pc, #584]	; (200067d0 <dpow_0+0x268>)
20006586:	2120      	movs	r1, #32
20006588:	469c      	mov	ip, r3
2000658a:	2334      	movs	r3, #52	; 0x34
2000658c:	0d52      	lsrs	r2, r2, #21
2000658e:	4462      	add	r2, ip
20006590:	1a9b      	subs	r3, r3, r2
20006592:	4249      	negs	r1, r1
20006594:	185e      	adds	r6, r3, r1
20006596:	d500      	bpl.n	2000659a <dpow_0+0x32>
20006598:	e0ec      	b.n	20006774 <dpow_0+0x20c>
2000659a:	311f      	adds	r1, #31
2000659c:	40b1      	lsls	r1, r6
2000659e:	2001      	movs	r0, #1
200065a0:	4240      	negs	r0, r0
200065a2:	4098      	lsls	r0, r3
200065a4:	4657      	mov	r7, sl
200065a6:	4387      	bics	r7, r0
200065a8:	0038      	movs	r0, r7
200065aa:	464f      	mov	r7, r9
200065ac:	438f      	bics	r7, r1
200065ae:	2e00      	cmp	r6, #0
200065b0:	da00      	bge.n	200065b4 <dpow_0+0x4c>
200065b2:	e0d7      	b.n	20006764 <dpow_0+0x1fc>
200065b4:	4649      	mov	r1, r9
200065b6:	40f1      	lsrs	r1, r6
200065b8:	2601      	movs	r6, #1
200065ba:	4031      	ands	r1, r6
200065bc:	2a00      	cmp	r2, #0
200065be:	db1d      	blt.n	200065fc <dpow_0+0x94>
200065c0:	2b00      	cmp	r3, #0
200065c2:	db4f      	blt.n	20006664 <dpow_0+0xfc>
200065c4:	4338      	orrs	r0, r7
200065c6:	d158      	bne.n	2000667a <dpow_0+0x112>
200065c8:	2900      	cmp	r1, #0
200065ca:	d005      	beq.n	200065d8 <dpow_0+0x70>
200065cc:	e006      	b.n	200065dc <dpow_0+0x74>
200065ce:	2280      	movs	r2, #128	; 0x80
200065d0:	0612      	lsls	r2, r2, #24
200065d2:	18aa      	adds	r2, r5, r2
200065d4:	1e15      	subs	r5, r2, #0
200065d6:	da16      	bge.n	20006606 <dpow_0+0x9e>
200065d8:	2b34      	cmp	r3, #52	; 0x34
200065da:	d1f8      	bne.n	200065ce <dpow_0+0x66>
200065dc:	2680      	movs	r6, #128	; 0x80
200065de:	0636      	lsls	r6, r6, #24
200065e0:	464b      	mov	r3, r9
200065e2:	0020      	movs	r0, r4
200065e4:	4652      	mov	r2, sl
200065e6:	19a9      	adds	r1, r5, r6
200065e8:	f7ff ffbe 	bl	20006568 <dpow_0>
200065ec:	198b      	adds	r3, r1, r6
200065ee:	0019      	movs	r1, r3
200065f0:	bc3c      	pop	{r2, r3, r4, r5}
200065f2:	4690      	mov	r8, r2
200065f4:	4699      	mov	r9, r3
200065f6:	46a2      	mov	sl, r4
200065f8:	46ab      	mov	fp, r5
200065fa:	bdf8      	pop	{r3, r4, r5, r6, r7, pc}
200065fc:	2380      	movs	r3, #128	; 0x80
200065fe:	061b      	lsls	r3, r3, #24
20006600:	18eb      	adds	r3, r5, r3
20006602:	1e1d      	subs	r5, r3, #0
20006604:	dbfa      	blt.n	200065fc <dpow_0+0x94>
20006606:	0026      	movs	r6, r4
20006608:	002f      	movs	r7, r5
2000660a:	4650      	mov	r0, sl
2000660c:	4649      	mov	r1, r9
2000660e:	f7ff fdb1 	bl	20006174 <__wrap___aeabi_d2iz>
20006612:	006b      	lsls	r3, r5, #1
20006614:	4683      	mov	fp, r0
20006616:	4680      	mov	r8, r0
20006618:	0d5b      	lsrs	r3, r3, #21
2000661a:	d039      	beq.n	20006690 <dpow_0+0x128>
2000661c:	4a6d      	ldr	r2, [pc, #436]	; (200067d4 <dpow_0+0x26c>)
2000661e:	4293      	cmp	r3, r2
20006620:	d036      	beq.n	20006690 <dpow_0+0x128>
20006622:	032a      	lsls	r2, r5, #12
20006624:	0b12      	lsrs	r2, r2, #12
20006626:	4314      	orrs	r4, r2
20006628:	d132      	bne.n	20006690 <dpow_0+0x128>
2000662a:	4a6b      	ldr	r2, [pc, #428]	; (200067d8 <dpow_0+0x270>)
2000662c:	4290      	cmp	r0, r2
2000662e:	da00      	bge.n	20006632 <dpow_0+0xca>
20006630:	e0b3      	b.n	2000679a <dpow_0+0x232>
20006632:	2280      	movs	r2, #128	; 0x80
20006634:	0112      	lsls	r2, r2, #4
20006636:	4290      	cmp	r0, r2
20006638:	db00      	blt.n	2000663c <dpow_0+0xd4>
2000663a:	e0b0      	b.n	2000679e <dpow_0+0x236>
2000663c:	4a64      	ldr	r2, [pc, #400]	; (200067d0 <dpow_0+0x268>)
2000663e:	4694      	mov	ip, r2
20006640:	4463      	add	r3, ip
20006642:	4343      	muls	r3, r0
20006644:	4a65      	ldr	r2, [pc, #404]	; (200067dc <dpow_0+0x274>)
20006646:	189a      	adds	r2, r3, r2
20006648:	2a00      	cmp	r2, #0
2000664a:	dc00      	bgt.n	2000664e <dpow_0+0xe6>
2000664c:	e0a9      	b.n	200067a2 <dpow_0+0x23a>
2000664e:	4964      	ldr	r1, [pc, #400]	; (200067e0 <dpow_0+0x278>)
20006650:	2000      	movs	r0, #0
20006652:	428a      	cmp	r2, r1
20006654:	dd00      	ble.n	20006658 <dpow_0+0xf0>
20006656:	e0ad      	b.n	200067b4 <dpow_0+0x24c>
20006658:	2200      	movs	r2, #0
2000665a:	0519      	lsls	r1, r3, #20
2000665c:	4b61      	ldr	r3, [pc, #388]	; (200067e4 <dpow_0+0x27c>)
2000665e:	1880      	adds	r0, r0, r2
20006660:	4159      	adcs	r1, r3
20006662:	e7c5      	b.n	200065f0 <dpow_0+0x88>
20006664:	2380      	movs	r3, #128	; 0x80
20006666:	061b      	lsls	r3, r3, #24
20006668:	18eb      	adds	r3, r5, r3
2000666a:	1e1d      	subs	r5, r3, #0
2000666c:	dacb      	bge.n	20006606 <dpow_0+0x9e>
2000666e:	2380      	movs	r3, #128	; 0x80
20006670:	061b      	lsls	r3, r3, #24
20006672:	18eb      	adds	r3, r5, r3
20006674:	1e1d      	subs	r5, r3, #0
20006676:	dbf5      	blt.n	20006664 <dpow_0+0xfc>
20006678:	e7c5      	b.n	20006606 <dpow_0+0x9e>
2000667a:	2380      	movs	r3, #128	; 0x80
2000667c:	061b      	lsls	r3, r3, #24
2000667e:	18eb      	adds	r3, r5, r3
20006680:	1e1d      	subs	r5, r3, #0
20006682:	dac0      	bge.n	20006606 <dpow_0+0x9e>
20006684:	2380      	movs	r3, #128	; 0x80
20006686:	061b      	lsls	r3, r3, #24
20006688:	18eb      	adds	r3, r5, r3
2000668a:	1e1d      	subs	r5, r3, #0
2000668c:	dbf5      	blt.n	2000667a <dpow_0+0x112>
2000668e:	e7ba      	b.n	20006606 <dpow_0+0x9e>
20006690:	465b      	mov	r3, fp
20006692:	2b00      	cmp	r3, #0
20006694:	d077      	beq.n	20006786 <dpow_0+0x21e>
20006696:	3320      	adds	r3, #32
20006698:	2b40      	cmp	r3, #64	; 0x40
2000669a:	d877      	bhi.n	2000678c <dpow_0+0x224>
2000669c:	465b      	mov	r3, fp
2000669e:	2b00      	cmp	r3, #0
200066a0:	da0a      	bge.n	200066b8 <dpow_0+0x150>
200066a2:	003b      	movs	r3, r7
200066a4:	0032      	movs	r2, r6
200066a6:	2000      	movs	r0, #0
200066a8:	494e      	ldr	r1, [pc, #312]	; (200067e4 <dpow_0+0x27c>)
200066aa:	f7ff fcb4 	bl	20006016 <__wrap___aeabi_ddiv>
200066ae:	465b      	mov	r3, fp
200066b0:	425b      	negs	r3, r3
200066b2:	0006      	movs	r6, r0
200066b4:	000f      	movs	r7, r1
200066b6:	4698      	mov	r8, r3
200066b8:	4643      	mov	r3, r8
200066ba:	2b01      	cmp	r3, #1
200066bc:	d077      	beq.n	200067ae <dpow_0+0x246>
200066be:	105c      	asrs	r4, r3, #1
200066c0:	2c01      	cmp	r4, #1
200066c2:	d071      	beq.n	200067a8 <dpow_0+0x240>
200066c4:	109d      	asrs	r5, r3, #2
200066c6:	2d01      	cmp	r5, #1
200066c8:	d076      	beq.n	200067b8 <dpow_0+0x250>
200066ca:	10db      	asrs	r3, r3, #3
200066cc:	4699      	mov	r9, r3
200066ce:	2b01      	cmp	r3, #1
200066d0:	d075      	beq.n	200067be <dpow_0+0x256>
200066d2:	4643      	mov	r3, r8
200066d4:	111b      	asrs	r3, r3, #4
200066d6:	469a      	mov	sl, r3
200066d8:	2b01      	cmp	r3, #1
200066da:	d073      	beq.n	200067c4 <dpow_0+0x25c>
200066dc:	4643      	mov	r3, r8
200066de:	115b      	asrs	r3, r3, #5
200066e0:	2b01      	cmp	r3, #1
200066e2:	d072      	beq.n	200067ca <dpow_0+0x262>
200066e4:	2200      	movs	r2, #0
200066e6:	0030      	movs	r0, r6
200066e8:	0039      	movs	r1, r7
200066ea:	f7ff fdeb 	bl	200062c4 <dpow_int2>
200066ee:	0002      	movs	r2, r0
200066f0:	000b      	movs	r3, r1
200066f2:	f7ff fcae 	bl	20006052 <__wrap___aeabi_dmul>
200066f6:	000b      	movs	r3, r1
200066f8:	0002      	movs	r2, r0
200066fa:	f7ff fcaa 	bl	20006052 <__wrap___aeabi_dmul>
200066fe:	4653      	mov	r3, sl
20006700:	07db      	lsls	r3, r3, #31
20006702:	d503      	bpl.n	2000670c <dpow_0+0x1a4>
20006704:	0032      	movs	r2, r6
20006706:	003b      	movs	r3, r7
20006708:	f7ff fca3 	bl	20006052 <__wrap___aeabi_dmul>
2000670c:	000b      	movs	r3, r1
2000670e:	0002      	movs	r2, r0
20006710:	f7ff fc9f 	bl	20006052 <__wrap___aeabi_dmul>
20006714:	464b      	mov	r3, r9
20006716:	07db      	lsls	r3, r3, #31
20006718:	d503      	bpl.n	20006722 <dpow_0+0x1ba>
2000671a:	0032      	movs	r2, r6
2000671c:	003b      	movs	r3, r7
2000671e:	f7ff fc98 	bl	20006052 <__wrap___aeabi_dmul>
20006722:	000b      	movs	r3, r1
20006724:	0002      	movs	r2, r0
20006726:	f7ff fc94 	bl	20006052 <__wrap___aeabi_dmul>
2000672a:	07eb      	lsls	r3, r5, #31
2000672c:	d503      	bpl.n	20006736 <dpow_0+0x1ce>
2000672e:	0032      	movs	r2, r6
20006730:	003b      	movs	r3, r7
20006732:	f7ff fc8e 	bl	20006052 <__wrap___aeabi_dmul>
20006736:	000b      	movs	r3, r1
20006738:	0002      	movs	r2, r0
2000673a:	f7ff fc8a 	bl	20006052 <__wrap___aeabi_dmul>
2000673e:	07e3      	lsls	r3, r4, #31
20006740:	d503      	bpl.n	2000674a <dpow_0+0x1e2>
20006742:	0032      	movs	r2, r6
20006744:	003b      	movs	r3, r7
20006746:	f7ff fc84 	bl	20006052 <__wrap___aeabi_dmul>
2000674a:	000b      	movs	r3, r1
2000674c:	0002      	movs	r2, r0
2000674e:	f7ff fc80 	bl	20006052 <__wrap___aeabi_dmul>
20006752:	4643      	mov	r3, r8
20006754:	07db      	lsls	r3, r3, #31
20006756:	d400      	bmi.n	2000675a <dpow_0+0x1f2>
20006758:	e74a      	b.n	200065f0 <dpow_0+0x88>
2000675a:	0032      	movs	r2, r6
2000675c:	003b      	movs	r3, r7
2000675e:	f7ff fc78 	bl	20006052 <__wrap___aeabi_dmul>
20006762:	e745      	b.n	200065f0 <dpow_0+0x88>
20006764:	2120      	movs	r1, #32
20006766:	464e      	mov	r6, r9
20006768:	1ac9      	subs	r1, r1, r3
2000676a:	408e      	lsls	r6, r1
2000676c:	4651      	mov	r1, sl
2000676e:	40d9      	lsrs	r1, r3
20006770:	4331      	orrs	r1, r6
20006772:	e721      	b.n	200065b8 <dpow_0+0x50>
20006774:	2101      	movs	r1, #1
20006776:	2020      	movs	r0, #32
20006778:	4249      	negs	r1, r1
2000677a:	000f      	movs	r7, r1
2000677c:	1ac0      	subs	r0, r0, r3
2000677e:	40c7      	lsrs	r7, r0
20006780:	4099      	lsls	r1, r3
20006782:	4339      	orrs	r1, r7
20006784:	e70b      	b.n	2000659e <dpow_0+0x36>
20006786:	2000      	movs	r0, #0
20006788:	4916      	ldr	r1, [pc, #88]	; (200067e4 <dpow_0+0x27c>)
2000678a:	e731      	b.n	200065f0 <dpow_0+0x88>
2000678c:	4652      	mov	r2, sl
2000678e:	464b      	mov	r3, r9
20006790:	0030      	movs	r0, r6
20006792:	0039      	movs	r1, r7
20006794:	f7ff fdac 	bl	200062f0 <dpow_1>
20006798:	e72a      	b.n	200065f0 <dpow_0+0x88>
2000679a:	0010      	movs	r0, r2
2000679c:	e749      	b.n	20006632 <dpow_0+0xca>
2000679e:	480d      	ldr	r0, [pc, #52]	; (200067d4 <dpow_0+0x26c>)
200067a0:	e74c      	b.n	2000663c <dpow_0+0xd4>
200067a2:	2000      	movs	r0, #0
200067a4:	2100      	movs	r1, #0
200067a6:	e723      	b.n	200065f0 <dpow_0+0x88>
200067a8:	0030      	movs	r0, r6
200067aa:	0039      	movs	r1, r7
200067ac:	e7cd      	b.n	2000674a <dpow_0+0x1e2>
200067ae:	0030      	movs	r0, r6
200067b0:	0039      	movs	r1, r7
200067b2:	e71d      	b.n	200065f0 <dpow_0+0x88>
200067b4:	490c      	ldr	r1, [pc, #48]	; (200067e8 <dpow_0+0x280>)
200067b6:	e71b      	b.n	200065f0 <dpow_0+0x88>
200067b8:	0030      	movs	r0, r6
200067ba:	0039      	movs	r1, r7
200067bc:	e7bb      	b.n	20006736 <dpow_0+0x1ce>
200067be:	0030      	movs	r0, r6
200067c0:	0039      	movs	r1, r7
200067c2:	e7ae      	b.n	20006722 <dpow_0+0x1ba>
200067c4:	0030      	movs	r0, r6
200067c6:	0039      	movs	r1, r7
200067c8:	e7a0      	b.n	2000670c <dpow_0+0x1a4>
200067ca:	0030      	movs	r0, r6
200067cc:	0039      	movs	r1, r7
200067ce:	e792      	b.n	200066f6 <dpow_0+0x18e>
200067d0:	fffffc01 	.word	0xfffffc01
200067d4:	000007ff 	.word	0x000007ff
200067d8:	fffff800 	.word	0xfffff800
200067dc:	000003ff 	.word	0x000003ff
200067e0:	000007fe 	.word	0x000007fe
200067e4:	3ff00000 	.word	0x3ff00000
200067e8:	7ff00000 	.word	0x7ff00000

200067ec <__wrap_ldexp>:
200067ec:	004b      	lsls	r3, r1, #1
200067ee:	b530      	push	{r4, r5, lr}
200067f0:	0d5b      	lsrs	r3, r3, #21
200067f2:	d010      	beq.n	20006816 <__wrap_ldexp+0x2a>
200067f4:	4c0e      	ldr	r4, [pc, #56]	; (20006830 <__wrap_ldexp+0x44>)
200067f6:	42a3      	cmp	r3, r4
200067f8:	d00d      	beq.n	20006816 <__wrap_ldexp+0x2a>
200067fa:	18d3      	adds	r3, r2, r3
200067fc:	2b00      	cmp	r3, #0
200067fe:	dd0b      	ble.n	20006818 <__wrap_ldexp+0x2c>
20006800:	4c0c      	ldr	r4, [pc, #48]	; (20006834 <__wrap_ldexp+0x48>)
20006802:	42a3      	cmp	r3, r4
20006804:	dd0e      	ble.n	20006824 <__wrap_ldexp+0x38>
20006806:	480c      	ldr	r0, [pc, #48]	; (20006838 <__wrap_ldexp+0x4c>)
20006808:	0fc9      	lsrs	r1, r1, #31
2000680a:	07c9      	lsls	r1, r1, #31
2000680c:	4308      	orrs	r0, r1
2000680e:	0005      	movs	r5, r0
20006810:	2400      	movs	r4, #0
20006812:	0029      	movs	r1, r5
20006814:	0020      	movs	r0, r4
20006816:	bd30      	pop	{r4, r5, pc}
20006818:	2400      	movs	r4, #0
2000681a:	0fc9      	lsrs	r1, r1, #31
2000681c:	07cd      	lsls	r5, r1, #31
2000681e:	0020      	movs	r0, r4
20006820:	0029      	movs	r1, r5
20006822:	e7f8      	b.n	20006816 <__wrap_ldexp+0x2a>
20006824:	2400      	movs	r4, #0
20006826:	0515      	lsls	r5, r2, #20
20006828:	1824      	adds	r4, r4, r0
2000682a:	414d      	adcs	r5, r1
2000682c:	e7f7      	b.n	2000681e <__wrap_ldexp+0x32>
2000682e:	46c0      	nop			; (mov r8, r8)
20006830:	000007ff 	.word	0x000007ff
20006834:	000007fe 	.word	0x000007fe
20006838:	7ff00000 	.word	0x7ff00000

2000683c <__wrap_round>:
2000683c:	4a25      	ldr	r2, [pc, #148]	; (200068d4 <__wrap_round+0x98>)
2000683e:	004b      	lsls	r3, r1, #1
20006840:	4694      	mov	ip, r2
20006842:	0d5b      	lsrs	r3, r3, #21
20006844:	4463      	add	r3, ip
20006846:	b5f0      	push	{r4, r5, r6, r7, lr}
20006848:	1c5a      	adds	r2, r3, #1
2000684a:	db24      	blt.n	20006896 <__wrap_round+0x5a>
2000684c:	1c5a      	adds	r2, r3, #1
2000684e:	d03a      	beq.n	200068c6 <__wrap_round+0x8a>
20006850:	2234      	movs	r2, #52	; 0x34
20006852:	1ad2      	subs	r2, r2, r3
20006854:	2a00      	cmp	r2, #0
20006856:	dd1d      	ble.n	20006894 <__wrap_round+0x58>
20006858:	2433      	movs	r4, #51	; 0x33
2000685a:	1ae4      	subs	r4, r4, r3
2000685c:	2320      	movs	r3, #32
2000685e:	425b      	negs	r3, r3
20006860:	18e5      	adds	r5, r4, r3
20006862:	d41e      	bmi.n	200068a2 <__wrap_round+0x66>
20006864:	2601      	movs	r6, #1
20006866:	40ae      	lsls	r6, r5
20006868:	0033      	movs	r3, r6
2000686a:	2601      	movs	r6, #1
2000686c:	40a6      	lsls	r6, r4
2000686e:	0032      	movs	r2, r6
20006870:	1812      	adds	r2, r2, r0
20006872:	414b      	adcs	r3, r1
20006874:	2d00      	cmp	r5, #0
20006876:	db20      	blt.n	200068ba <__wrap_round+0x7e>
20006878:	2602      	movs	r6, #2
2000687a:	40ae      	lsls	r6, r5
2000687c:	0031      	movs	r1, r6
2000687e:	2502      	movs	r5, #2
20006880:	40a5      	lsls	r5, r4
20006882:	0028      	movs	r0, r5
20006884:	0016      	movs	r6, r2
20006886:	2500      	movs	r5, #0
20006888:	4244      	negs	r4, r0
2000688a:	418d      	sbcs	r5, r1
2000688c:	4026      	ands	r6, r4
2000688e:	402b      	ands	r3, r5
20006890:	0030      	movs	r0, r6
20006892:	0019      	movs	r1, r3
20006894:	bdf0      	pop	{r4, r5, r6, r7, pc}
20006896:	2200      	movs	r2, #0
20006898:	0fc9      	lsrs	r1, r1, #31
2000689a:	07cb      	lsls	r3, r1, #31
2000689c:	0010      	movs	r0, r2
2000689e:	0019      	movs	r1, r3
200068a0:	e7f8      	b.n	20006894 <__wrap_round+0x58>
200068a2:	2620      	movs	r6, #32
200068a4:	2701      	movs	r7, #1
200068a6:	1b36      	subs	r6, r6, r4
200068a8:	40f7      	lsrs	r7, r6
200068aa:	2601      	movs	r6, #1
200068ac:	40a6      	lsls	r6, r4
200068ae:	003b      	movs	r3, r7
200068b0:	0032      	movs	r2, r6
200068b2:	1812      	adds	r2, r2, r0
200068b4:	414b      	adcs	r3, r1
200068b6:	2d00      	cmp	r5, #0
200068b8:	dade      	bge.n	20006878 <__wrap_round+0x3c>
200068ba:	2520      	movs	r5, #32
200068bc:	2602      	movs	r6, #2
200068be:	1b2d      	subs	r5, r5, r4
200068c0:	40ee      	lsrs	r6, r5
200068c2:	0031      	movs	r1, r6
200068c4:	e7db      	b.n	2000687e <__wrap_round+0x42>
200068c6:	0fcb      	lsrs	r3, r1, #31
200068c8:	4a03      	ldr	r2, [pc, #12]	; (200068d8 <__wrap_round+0x9c>)
200068ca:	07db      	lsls	r3, r3, #31
200068cc:	431a      	orrs	r2, r3
200068ce:	2000      	movs	r0, #0
200068d0:	0011      	movs	r1, r2
200068d2:	e7df      	b.n	20006894 <__wrap_round+0x58>
200068d4:	fffffc01 	.word	0xfffffc01
200068d8:	3ff00000 	.word	0x3ff00000

200068dc <__wrap_floor>:
200068dc:	b5f0      	push	{r4, r5, r6, r7, lr}
200068de:	46c6      	mov	lr, r8
200068e0:	004b      	lsls	r3, r1, #1
200068e2:	0004      	movs	r4, r0
200068e4:	000d      	movs	r5, r1
200068e6:	b500      	push	{lr}
200068e8:	0d5b      	lsrs	r3, r3, #21
200068ea:	d02d      	beq.n	20006948 <__wrap_floor+0x6c>
200068ec:	4a1d      	ldr	r2, [pc, #116]	; (20006964 <__wrap_floor+0x88>)
200068ee:	189b      	adds	r3, r3, r2
200068f0:	d425      	bmi.n	2000693e <__wrap_floor+0x62>
200068f2:	2634      	movs	r6, #52	; 0x34
200068f4:	1af3      	subs	r3, r6, r3
200068f6:	4698      	mov	r8, r3
200068f8:	2b00      	cmp	r3, #0
200068fa:	dd1d      	ble.n	20006938 <__wrap_floor+0x5c>
200068fc:	2320      	movs	r3, #32
200068fe:	4642      	mov	r2, r8
20006900:	425b      	negs	r3, r3
20006902:	18d7      	adds	r7, r2, r3
20006904:	d428      	bmi.n	20006958 <__wrap_floor+0x7c>
20006906:	3e33      	subs	r6, #51	; 0x33
20006908:	40be      	lsls	r6, r7
2000690a:	0033      	movs	r3, r6
2000690c:	2701      	movs	r7, #1
2000690e:	4646      	mov	r6, r8
20006910:	40b7      	lsls	r7, r6
20006912:	003a      	movs	r2, r7
20006914:	2900      	cmp	r1, #0
20006916:	da06      	bge.n	20006926 <__wrap_floor+0x4a>
20006918:	2401      	movs	r4, #1
2000691a:	4264      	negs	r4, r4
2000691c:	17e5      	asrs	r5, r4, #31
2000691e:	1824      	adds	r4, r4, r0
20006920:	414d      	adcs	r5, r1
20006922:	18a4      	adds	r4, r4, r2
20006924:	415d      	adcs	r5, r3
20006926:	2700      	movs	r7, #0
20006928:	4256      	negs	r6, r2
2000692a:	419f      	sbcs	r7, r3
2000692c:	0023      	movs	r3, r4
2000692e:	4033      	ands	r3, r6
20006930:	0018      	movs	r0, r3
20006932:	002b      	movs	r3, r5
20006934:	403b      	ands	r3, r7
20006936:	0019      	movs	r1, r3
20006938:	bc04      	pop	{r2}
2000693a:	4690      	mov	r8, r2
2000693c:	bdf0      	pop	{r4, r5, r6, r7, pc}
2000693e:	2000      	movs	r0, #0
20006940:	2900      	cmp	r1, #0
20006942:	da07      	bge.n	20006954 <__wrap_floor+0x78>
20006944:	4908      	ldr	r1, [pc, #32]	; (20006968 <__wrap_floor+0x8c>)
20006946:	e7f7      	b.n	20006938 <__wrap_floor+0x5c>
20006948:	2200      	movs	r2, #0
2000694a:	0fc9      	lsrs	r1, r1, #31
2000694c:	07cb      	lsls	r3, r1, #31
2000694e:	0010      	movs	r0, r2
20006950:	0019      	movs	r1, r3
20006952:	e7f1      	b.n	20006938 <__wrap_floor+0x5c>
20006954:	2100      	movs	r1, #0
20006956:	e7ef      	b.n	20006938 <__wrap_floor+0x5c>
20006958:	2720      	movs	r7, #32
2000695a:	2601      	movs	r6, #1
2000695c:	1abf      	subs	r7, r7, r2
2000695e:	40fe      	lsrs	r6, r7
20006960:	0033      	movs	r3, r6
20006962:	e7d3      	b.n	2000690c <__wrap_floor+0x30>
20006964:	fffffc01 	.word	0xfffffc01
20006968:	bff00000 	.word	0xbff00000

2000696c <__wrap_exp2>:
2000696c:	4b26      	ldr	r3, [pc, #152]	; (20006a08 <__wrap_exp2+0x9c>)
2000696e:	b570      	push	{r4, r5, r6, lr}
20006970:	0d0a      	lsrs	r2, r1, #20
20006972:	0005      	movs	r5, r0
20006974:	000c      	movs	r4, r1
20006976:	429a      	cmp	r2, r3
20006978:	d03a      	beq.n	200069f0 <__wrap_exp2+0x84>
2000697a:	2200      	movs	r2, #0
2000697c:	4b23      	ldr	r3, [pc, #140]	; (20006a0c <__wrap_exp2+0xa0>)
2000697e:	f7ff fbb9 	bl	200060f4 <__wrap___aeabi_dcmple>
20006982:	2800      	cmp	r0, #0
20006984:	d134      	bne.n	200069f0 <__wrap_exp2+0x84>
20006986:	2200      	movs	r2, #0
20006988:	0028      	movs	r0, r5
2000698a:	0021      	movs	r1, r4
2000698c:	4b20      	ldr	r3, [pc, #128]	; (20006a10 <__wrap_exp2+0xa4>)
2000698e:	f7ff fbb9 	bl	20006104 <__wrap___aeabi_dcmpge>
20006992:	2800      	cmp	r0, #0
20006994:	d002      	beq.n	2000699c <__wrap_exp2+0x30>
20006996:	2000      	movs	r0, #0
20006998:	491e      	ldr	r1, [pc, #120]	; (20006a14 <__wrap_exp2+0xa8>)
2000699a:	bd70      	pop	{r4, r5, r6, pc}
2000699c:	0028      	movs	r0, r5
2000699e:	0021      	movs	r1, r4
200069a0:	f7ff ff4c 	bl	2000683c <__wrap_round>
200069a4:	f7ff fbe6 	bl	20006174 <__wrap___aeabi_d2iz>
200069a8:	0006      	movs	r6, r0
200069aa:	f7ff fbcb 	bl	20006144 <__wrap___aeabi_i2d>
200069ae:	0002      	movs	r2, r0
200069b0:	000b      	movs	r3, r1
200069b2:	0028      	movs	r0, r5
200069b4:	0021      	movs	r1, r4
200069b6:	f7ff fb1c 	bl	20005ff2 <__wrap___aeabi_dsub>
200069ba:	4b17      	ldr	r3, [pc, #92]	; (20006a18 <__wrap_exp2+0xac>)
200069bc:	4a17      	ldr	r2, [pc, #92]	; (20006a1c <__wrap_exp2+0xb0>)
200069be:	f7ff fb48 	bl	20006052 <__wrap___aeabi_dmul>
200069c2:	f7ff fc07 	bl	200061d4 <__wrap_exp>
200069c6:	004b      	lsls	r3, r1, #1
200069c8:	0004      	movs	r4, r0
200069ca:	000d      	movs	r5, r1
200069cc:	0d5b      	lsrs	r3, r3, #21
200069ce:	d0e4      	beq.n	2000699a <__wrap_exp2+0x2e>
200069d0:	4a13      	ldr	r2, [pc, #76]	; (20006a20 <__wrap_exp2+0xb4>)
200069d2:	4293      	cmp	r3, r2
200069d4:	d0e1      	beq.n	2000699a <__wrap_exp2+0x2e>
200069d6:	18f3      	adds	r3, r6, r3
200069d8:	2b00      	cmp	r3, #0
200069da:	dd0c      	ble.n	200069f6 <__wrap_exp2+0x8a>
200069dc:	4a11      	ldr	r2, [pc, #68]	; (20006a24 <__wrap_exp2+0xb8>)
200069de:	4293      	cmp	r3, r2
200069e0:	dd0d      	ble.n	200069fe <__wrap_exp2+0x92>
200069e2:	0fcb      	lsrs	r3, r1, #31
200069e4:	4a0b      	ldr	r2, [pc, #44]	; (20006a14 <__wrap_exp2+0xa8>)
200069e6:	07db      	lsls	r3, r3, #31
200069e8:	431a      	orrs	r2, r3
200069ea:	2000      	movs	r0, #0
200069ec:	0011      	movs	r1, r2
200069ee:	e7d4      	b.n	2000699a <__wrap_exp2+0x2e>
200069f0:	2000      	movs	r0, #0
200069f2:	2100      	movs	r1, #0
200069f4:	e7d1      	b.n	2000699a <__wrap_exp2+0x2e>
200069f6:	0fcb      	lsrs	r3, r1, #31
200069f8:	2000      	movs	r0, #0
200069fa:	07d9      	lsls	r1, r3, #31
200069fc:	e7cd      	b.n	2000699a <__wrap_exp2+0x2e>
200069fe:	2000      	movs	r0, #0
20006a00:	0531      	lsls	r1, r6, #20
20006a02:	1900      	adds	r0, r0, r4
20006a04:	4169      	adcs	r1, r5
20006a06:	e7c8      	b.n	2000699a <__wrap_exp2+0x2e>
20006a08:	00000fff 	.word	0x00000fff
20006a0c:	c0b00000 	.word	0xc0b00000
20006a10:	40b00000 	.word	0x40b00000
20006a14:	7ff00000 	.word	0x7ff00000
20006a18:	3fe62e42 	.word	0x3fe62e42
20006a1c:	fefa39ef 	.word	0xfefa39ef
20006a20:	000007ff 	.word	0x000007ff
20006a24:	000007fe 	.word	0x000007fe

20006a28 <__wrap_log10>:
20006a28:	b510      	push	{r4, lr}
20006a2a:	f7ff fbdf 	bl	200061ec <__wrap_log>
20006a2e:	4a02      	ldr	r2, [pc, #8]	; (20006a38 <__wrap_log10+0x10>)
20006a30:	4b02      	ldr	r3, [pc, #8]	; (20006a3c <__wrap_log10+0x14>)
20006a32:	f7ff fb0e 	bl	20006052 <__wrap___aeabi_dmul>
20006a36:	bd10      	pop	{r4, pc}
20006a38:	1526e50e 	.word	0x1526e50e
20006a3c:	3fdbcb7b 	.word	0x3fdbcb7b

20006a40 <__wrap_pow>:
20006a40:	b5f0      	push	{r4, r5, r6, r7, lr}
20006a42:	464f      	mov	r7, r9
20006a44:	4646      	mov	r6, r8
20006a46:	46d6      	mov	lr, sl
20006a48:	b5c0      	push	{r6, r7, lr}
20006a4a:	0017      	movs	r7, r2
20006a4c:	001e      	movs	r6, r3
20006a4e:	2200      	movs	r2, #0
20006a50:	4bb4      	ldr	r3, [pc, #720]	; (20006d24 <__wrap_pow+0x2e4>)
20006a52:	0005      	movs	r5, r0
20006a54:	000c      	movs	r4, r1
20006a56:	f7ff fb3f 	bl	200060d8 <__wrap___aeabi_dcmpeq>
20006a5a:	2800      	cmp	r0, #0
20006a5c:	d139      	bne.n	20006ad2 <__wrap_pow+0x92>
20006a5e:	0d33      	lsrs	r3, r6, #20
20006a60:	4699      	mov	r9, r3
20006a62:	055b      	lsls	r3, r3, #21
20006a64:	0d5a      	lsrs	r2, r3, #21
20006a66:	4690      	mov	r8, r2
20006a68:	2b00      	cmp	r3, #0
20006a6a:	d039      	beq.n	20006ae0 <__wrap_pow+0xa0>
20006a6c:	2200      	movs	r2, #0
20006a6e:	0028      	movs	r0, r5
20006a70:	0021      	movs	r1, r4
20006a72:	4bad      	ldr	r3, [pc, #692]	; (20006d28 <__wrap_pow+0x2e8>)
20006a74:	f7ff fb30 	bl	200060d8 <__wrap___aeabi_dcmpeq>
20006a78:	2800      	cmp	r0, #0
20006a7a:	d034      	beq.n	20006ae6 <__wrap_pow+0xa6>
20006a7c:	4bab      	ldr	r3, [pc, #684]	; (20006d2c <__wrap_pow+0x2ec>)
20006a7e:	4598      	cmp	r8, r3
20006a80:	d02e      	beq.n	20006ae0 <__wrap_pow+0xa0>
20006a82:	4599      	cmp	r9, r3
20006a84:	d067      	beq.n	20006b56 <__wrap_pow+0x116>
20006a86:	4baa      	ldr	r3, [pc, #680]	; (20006d30 <__wrap_pow+0x2f0>)
20006a88:	4599      	cmp	r9, r3
20006a8a:	d058      	beq.n	20006b3e <__wrap_pow+0xfe>
20006a8c:	4643      	mov	r3, r8
20006a8e:	4aa9      	ldr	r2, [pc, #676]	; (20006d34 <__wrap_pow+0x2f4>)
20006a90:	189b      	adds	r3, r3, r2
20006a92:	d460      	bmi.n	20006b56 <__wrap_pow+0x116>
20006a94:	48a4      	ldr	r0, [pc, #656]	; (20006d28 <__wrap_pow+0x2e8>)
20006a96:	2234      	movs	r2, #52	; 0x34
20006a98:	1ad3      	subs	r3, r2, r3
20006a9a:	469c      	mov	ip, r3
20006a9c:	2b00      	cmp	r3, #0
20006a9e:	dd10      	ble.n	20006ac2 <__wrap_pow+0x82>
20006aa0:	3a54      	subs	r2, #84	; 0x54
20006aa2:	1899      	adds	r1, r3, r2
20006aa4:	d500      	bpl.n	20006aa8 <__wrap_pow+0x68>
20006aa6:	e0e8      	b.n	20006c7a <__wrap_pow+0x23a>
20006aa8:	321f      	adds	r2, #31
20006aaa:	408a      	lsls	r2, r1
20006aac:	2101      	movs	r1, #1
20006aae:	4663      	mov	r3, ip
20006ab0:	4249      	negs	r1, r1
20006ab2:	4099      	lsls	r1, r3
20006ab4:	003b      	movs	r3, r7
20006ab6:	438b      	bics	r3, r1
20006ab8:	0031      	movs	r1, r6
20006aba:	4391      	bics	r1, r2
20006abc:	430b      	orrs	r3, r1
20006abe:	d000      	beq.n	20006ac2 <__wrap_pow+0x82>
20006ac0:	e0ed      	b.n	20006c9e <__wrap_pow+0x25e>
20006ac2:	0028      	movs	r0, r5
20006ac4:	0021      	movs	r1, r4
20006ac6:	003a      	movs	r2, r7
20006ac8:	0033      	movs	r3, r6
20006aca:	f7ff fd4d 	bl	20006568 <dpow_0>
20006ace:	0005      	movs	r5, r0
20006ad0:	000c      	movs	r4, r1
20006ad2:	0028      	movs	r0, r5
20006ad4:	0021      	movs	r1, r4
20006ad6:	bc1c      	pop	{r2, r3, r4}
20006ad8:	4690      	mov	r8, r2
20006ada:	4699      	mov	r9, r3
20006adc:	46a2      	mov	sl, r4
20006ade:	bdf0      	pop	{r4, r5, r6, r7, pc}
20006ae0:	2500      	movs	r5, #0
20006ae2:	4c90      	ldr	r4, [pc, #576]	; (20006d24 <__wrap_pow+0x2e4>)
20006ae4:	e7f5      	b.n	20006ad2 <__wrap_pow+0x92>
20006ae6:	0d22      	lsrs	r2, r4, #20
20006ae8:	0553      	lsls	r3, r2, #21
20006aea:	0020      	movs	r0, r4
20006aec:	0d59      	lsrs	r1, r3, #21
20006aee:	2b00      	cmp	r3, #0
20006af0:	d128      	bne.n	20006b44 <__wrap_pow+0x104>
20006af2:	4643      	mov	r3, r8
20006af4:	4a8f      	ldr	r2, [pc, #572]	; (20006d34 <__wrap_pow+0x2f4>)
20006af6:	2e00      	cmp	r6, #0
20006af8:	db30      	blt.n	20006b5c <__wrap_pow+0x11c>
20006afa:	189b      	adds	r3, r3, r2
20006afc:	d41f      	bmi.n	20006b3e <__wrap_pow+0xfe>
20006afe:	2134      	movs	r1, #52	; 0x34
20006b00:	1ac9      	subs	r1, r1, r3
20006b02:	d41c      	bmi.n	20006b3e <__wrap_pow+0xfe>
20006b04:	2320      	movs	r3, #32
20006b06:	425b      	negs	r3, r3
20006b08:	185b      	adds	r3, r3, r1
20006b0a:	469c      	mov	ip, r3
20006b0c:	d453      	bmi.n	20006bb6 <__wrap_pow+0x176>
20006b0e:	2301      	movs	r3, #1
20006b10:	4662      	mov	r2, ip
20006b12:	425b      	negs	r3, r3
20006b14:	4093      	lsls	r3, r2
20006b16:	2201      	movs	r2, #1
20006b18:	4252      	negs	r2, r2
20006b1a:	408a      	lsls	r2, r1
20006b1c:	0038      	movs	r0, r7
20006b1e:	4390      	bics	r0, r2
20006b20:	0002      	movs	r2, r0
20006b22:	0030      	movs	r0, r6
20006b24:	4398      	bics	r0, r3
20006b26:	0003      	movs	r3, r0
20006b28:	4313      	orrs	r3, r2
20006b2a:	d108      	bne.n	20006b3e <__wrap_pow+0xfe>
20006b2c:	2934      	cmp	r1, #52	; 0x34
20006b2e:	d0d0      	beq.n	20006ad2 <__wrap_pow+0x92>
20006b30:	4663      	mov	r3, ip
20006b32:	2b00      	cmp	r3, #0
20006b34:	da00      	bge.n	20006b38 <__wrap_pow+0xf8>
20006b36:	e090      	b.n	20006c5a <__wrap_pow+0x21a>
20006b38:	40de      	lsrs	r6, r3
20006b3a:	07f3      	lsls	r3, r6, #31
20006b3c:	d4c9      	bmi.n	20006ad2 <__wrap_pow+0x92>
20006b3e:	2500      	movs	r5, #0
20006b40:	2400      	movs	r4, #0
20006b42:	e7c6      	b.n	20006ad2 <__wrap_pow+0x92>
20006b44:	4b79      	ldr	r3, [pc, #484]	; (20006d2c <__wrap_pow+0x2ec>)
20006b46:	469a      	mov	sl, r3
20006b48:	429a      	cmp	r2, r3
20006b4a:	d13d      	bne.n	20006bc8 <__wrap_pow+0x188>
20006b4c:	2500      	movs	r5, #0
20006b4e:	2e00      	cmp	r6, #0
20006b50:	dbf6      	blt.n	20006b40 <__wrap_pow+0x100>
20006b52:	4c79      	ldr	r4, [pc, #484]	; (20006d38 <__wrap_pow+0x2f8>)
20006b54:	e7bd      	b.n	20006ad2 <__wrap_pow+0x92>
20006b56:	2500      	movs	r5, #0
20006b58:	4c77      	ldr	r4, [pc, #476]	; (20006d38 <__wrap_pow+0x2f8>)
20006b5a:	e7ba      	b.n	20006ad2 <__wrap_pow+0x92>
20006b5c:	189b      	adds	r3, r3, r2
20006b5e:	d4fa      	bmi.n	20006b56 <__wrap_pow+0x116>
20006b60:	2234      	movs	r2, #52	; 0x34
20006b62:	1ad3      	subs	r3, r2, r3
20006b64:	d4f7      	bmi.n	20006b56 <__wrap_pow+0x116>
20006b66:	3a54      	subs	r2, #84	; 0x54
20006b68:	1898      	adds	r0, r3, r2
20006b6a:	d41b      	bmi.n	20006ba4 <__wrap_pow+0x164>
20006b6c:	321f      	adds	r2, #31
20006b6e:	4082      	lsls	r2, r0
20006b70:	2101      	movs	r1, #1
20006b72:	4249      	negs	r1, r1
20006b74:	4099      	lsls	r1, r3
20006b76:	003d      	movs	r5, r7
20006b78:	438d      	bics	r5, r1
20006b7a:	0029      	movs	r1, r5
20006b7c:	0035      	movs	r5, r6
20006b7e:	4395      	bics	r5, r2
20006b80:	002a      	movs	r2, r5
20006b82:	430a      	orrs	r2, r1
20006b84:	d1e7      	bne.n	20006b56 <__wrap_pow+0x116>
20006b86:	2b34      	cmp	r3, #52	; 0x34
20006b88:	d004      	beq.n	20006b94 <__wrap_pow+0x154>
20006b8a:	2800      	cmp	r0, #0
20006b8c:	db6d      	blt.n	20006c6a <__wrap_pow+0x22a>
20006b8e:	40c6      	lsrs	r6, r0
20006b90:	07f3      	lsls	r3, r6, #31
20006b92:	d5e0      	bpl.n	20006b56 <__wrap_pow+0x116>
20006b94:	2200      	movs	r2, #0
20006b96:	4968      	ldr	r1, [pc, #416]	; (20006d38 <__wrap_pow+0x2f8>)
20006b98:	0fe4      	lsrs	r4, r4, #31
20006b9a:	07e4      	lsls	r4, r4, #31
20006b9c:	4321      	orrs	r1, r4
20006b9e:	0015      	movs	r5, r2
20006ba0:	000c      	movs	r4, r1
20006ba2:	e796      	b.n	20006ad2 <__wrap_pow+0x92>
20006ba4:	2201      	movs	r2, #1
20006ba6:	2120      	movs	r1, #32
20006ba8:	4252      	negs	r2, r2
20006baa:	0015      	movs	r5, r2
20006bac:	1ac9      	subs	r1, r1, r3
20006bae:	40cd      	lsrs	r5, r1
20006bb0:	409a      	lsls	r2, r3
20006bb2:	432a      	orrs	r2, r5
20006bb4:	e7dc      	b.n	20006b70 <__wrap_pow+0x130>
20006bb6:	2301      	movs	r3, #1
20006bb8:	2220      	movs	r2, #32
20006bba:	425b      	negs	r3, r3
20006bbc:	0018      	movs	r0, r3
20006bbe:	1a52      	subs	r2, r2, r1
20006bc0:	40d0      	lsrs	r0, r2
20006bc2:	408b      	lsls	r3, r1
20006bc4:	4303      	orrs	r3, r0
20006bc6:	e7a6      	b.n	20006b16 <__wrap_pow+0xd6>
20006bc8:	4b59      	ldr	r3, [pc, #356]	; (20006d30 <__wrap_pow+0x2f0>)
20006bca:	429a      	cmp	r2, r3
20006bcc:	d000      	beq.n	20006bd0 <__wrap_pow+0x190>
20006bce:	e099      	b.n	20006d04 <__wrap_pow+0x2c4>
20006bd0:	4643      	mov	r3, r8
20006bd2:	4a58      	ldr	r2, [pc, #352]	; (20006d34 <__wrap_pow+0x2f4>)
20006bd4:	2e00      	cmp	r6, #0
20006bd6:	db1e      	blt.n	20006c16 <__wrap_pow+0x1d6>
20006bd8:	189b      	adds	r3, r3, r2
20006bda:	d4bc      	bmi.n	20006b56 <__wrap_pow+0x116>
20006bdc:	2234      	movs	r2, #52	; 0x34
20006bde:	1ad3      	subs	r3, r2, r3
20006be0:	d4b9      	bmi.n	20006b56 <__wrap_pow+0x116>
20006be2:	3a54      	subs	r2, #84	; 0x54
20006be4:	1898      	adds	r0, r3, r2
20006be6:	d46f      	bmi.n	20006cc8 <__wrap_pow+0x288>
20006be8:	321f      	adds	r2, #31
20006bea:	4082      	lsls	r2, r0
20006bec:	2101      	movs	r1, #1
20006bee:	4249      	negs	r1, r1
20006bf0:	4099      	lsls	r1, r3
20006bf2:	003c      	movs	r4, r7
20006bf4:	438c      	bics	r4, r1
20006bf6:	0021      	movs	r1, r4
20006bf8:	0034      	movs	r4, r6
20006bfa:	4394      	bics	r4, r2
20006bfc:	0022      	movs	r2, r4
20006bfe:	430a      	orrs	r2, r1
20006c00:	d1a9      	bne.n	20006b56 <__wrap_pow+0x116>
20006c02:	2b34      	cmp	r3, #52	; 0x34
20006c04:	d079      	beq.n	20006cfa <__wrap_pow+0x2ba>
20006c06:	2800      	cmp	r0, #0
20006c08:	db6f      	blt.n	20006cea <__wrap_pow+0x2aa>
20006c0a:	40c6      	lsrs	r6, r0
20006c0c:	2500      	movs	r5, #0
20006c0e:	07f3      	lsls	r3, r6, #31
20006c10:	d59f      	bpl.n	20006b52 <__wrap_pow+0x112>
20006c12:	4c4a      	ldr	r4, [pc, #296]	; (20006d3c <__wrap_pow+0x2fc>)
20006c14:	e75d      	b.n	20006ad2 <__wrap_pow+0x92>
20006c16:	189b      	adds	r3, r3, r2
20006c18:	d491      	bmi.n	20006b3e <__wrap_pow+0xfe>
20006c1a:	2234      	movs	r2, #52	; 0x34
20006c1c:	1ad3      	subs	r3, r2, r3
20006c1e:	d48e      	bmi.n	20006b3e <__wrap_pow+0xfe>
20006c20:	3a54      	subs	r2, #84	; 0x54
20006c22:	1898      	adds	r0, r3, r2
20006c24:	d447      	bmi.n	20006cb6 <__wrap_pow+0x276>
20006c26:	321f      	adds	r2, #31
20006c28:	4082      	lsls	r2, r0
20006c2a:	2101      	movs	r1, #1
20006c2c:	4249      	negs	r1, r1
20006c2e:	4099      	lsls	r1, r3
20006c30:	003c      	movs	r4, r7
20006c32:	438c      	bics	r4, r1
20006c34:	0021      	movs	r1, r4
20006c36:	0034      	movs	r4, r6
20006c38:	4394      	bics	r4, r2
20006c3a:	0022      	movs	r2, r4
20006c3c:	430a      	orrs	r2, r1
20006c3e:	d000      	beq.n	20006c42 <__wrap_pow+0x202>
20006c40:	e77d      	b.n	20006b3e <__wrap_pow+0xfe>
20006c42:	2b34      	cmp	r3, #52	; 0x34
20006c44:	d05c      	beq.n	20006d00 <__wrap_pow+0x2c0>
20006c46:	2800      	cmp	r0, #0
20006c48:	db47      	blt.n	20006cda <__wrap_pow+0x29a>
20006c4a:	40c6      	lsrs	r6, r0
20006c4c:	2500      	movs	r5, #0
20006c4e:	07f3      	lsls	r3, r6, #31
20006c50:	d400      	bmi.n	20006c54 <__wrap_pow+0x214>
20006c52:	e775      	b.n	20006b40 <__wrap_pow+0x100>
20006c54:	2480      	movs	r4, #128	; 0x80
20006c56:	0624      	lsls	r4, r4, #24
20006c58:	e73b      	b.n	20006ad2 <__wrap_pow+0x92>
20006c5a:	2320      	movs	r3, #32
20006c5c:	1a5b      	subs	r3, r3, r1
20006c5e:	409e      	lsls	r6, r3
20006c60:	0033      	movs	r3, r6
20006c62:	003e      	movs	r6, r7
20006c64:	40ce      	lsrs	r6, r1
20006c66:	431e      	orrs	r6, r3
20006c68:	e767      	b.n	20006b3a <__wrap_pow+0xfa>
20006c6a:	2220      	movs	r2, #32
20006c6c:	1ad2      	subs	r2, r2, r3
20006c6e:	4096      	lsls	r6, r2
20006c70:	0032      	movs	r2, r6
20006c72:	003e      	movs	r6, r7
20006c74:	40de      	lsrs	r6, r3
20006c76:	4316      	orrs	r6, r2
20006c78:	e78a      	b.n	20006b90 <__wrap_pow+0x150>
20006c7a:	2201      	movs	r2, #1
20006c7c:	2120      	movs	r1, #32
20006c7e:	4252      	negs	r2, r2
20006c80:	1ac9      	subs	r1, r1, r3
20006c82:	0013      	movs	r3, r2
20006c84:	40cb      	lsrs	r3, r1
20006c86:	0019      	movs	r1, r3
20006c88:	4663      	mov	r3, ip
20006c8a:	409a      	lsls	r2, r3
20006c8c:	430a      	orrs	r2, r1
20006c8e:	e70d      	b.n	20006aac <__wrap_pow+0x6c>
20006c90:	4599      	cmp	r9, r3
20006c92:	d040      	beq.n	20006d16 <__wrap_pow+0x2d6>
20006c94:	4643      	mov	r3, r8
20006c96:	4a27      	ldr	r2, [pc, #156]	; (20006d34 <__wrap_pow+0x2f4>)
20006c98:	189b      	adds	r3, r3, r2
20006c9a:	d400      	bmi.n	20006c9e <__wrap_pow+0x25e>
20006c9c:	e6fb      	b.n	20006a96 <__wrap_pow+0x56>
20006c9e:	2800      	cmp	r0, #0
20006ca0:	da00      	bge.n	20006ca4 <__wrap_pow+0x264>
20006ca2:	e758      	b.n	20006b56 <__wrap_pow+0x116>
20006ca4:	0028      	movs	r0, r5
20006ca6:	0021      	movs	r1, r4
20006ca8:	003a      	movs	r2, r7
20006caa:	0033      	movs	r3, r6
20006cac:	f7ff fb20 	bl	200062f0 <dpow_1>
20006cb0:	0005      	movs	r5, r0
20006cb2:	000c      	movs	r4, r1
20006cb4:	e70d      	b.n	20006ad2 <__wrap_pow+0x92>
20006cb6:	2201      	movs	r2, #1
20006cb8:	2120      	movs	r1, #32
20006cba:	4252      	negs	r2, r2
20006cbc:	0014      	movs	r4, r2
20006cbe:	1ac9      	subs	r1, r1, r3
20006cc0:	40cc      	lsrs	r4, r1
20006cc2:	409a      	lsls	r2, r3
20006cc4:	4322      	orrs	r2, r4
20006cc6:	e7b0      	b.n	20006c2a <__wrap_pow+0x1ea>
20006cc8:	2201      	movs	r2, #1
20006cca:	2120      	movs	r1, #32
20006ccc:	4252      	negs	r2, r2
20006cce:	0014      	movs	r4, r2
20006cd0:	1ac9      	subs	r1, r1, r3
20006cd2:	40cc      	lsrs	r4, r1
20006cd4:	409a      	lsls	r2, r3
20006cd6:	4322      	orrs	r2, r4
20006cd8:	e788      	b.n	20006bec <__wrap_pow+0x1ac>
20006cda:	2220      	movs	r2, #32
20006cdc:	1ad2      	subs	r2, r2, r3
20006cde:	4096      	lsls	r6, r2
20006ce0:	0032      	movs	r2, r6
20006ce2:	003e      	movs	r6, r7
20006ce4:	40de      	lsrs	r6, r3
20006ce6:	4316      	orrs	r6, r2
20006ce8:	e7b0      	b.n	20006c4c <__wrap_pow+0x20c>
20006cea:	2220      	movs	r2, #32
20006cec:	1ad2      	subs	r2, r2, r3
20006cee:	4096      	lsls	r6, r2
20006cf0:	0032      	movs	r2, r6
20006cf2:	003e      	movs	r6, r7
20006cf4:	40de      	lsrs	r6, r3
20006cf6:	4316      	orrs	r6, r2
20006cf8:	e788      	b.n	20006c0c <__wrap_pow+0x1cc>
20006cfa:	2500      	movs	r5, #0
20006cfc:	4c0f      	ldr	r4, [pc, #60]	; (20006d3c <__wrap_pow+0x2fc>)
20006cfe:	e6e8      	b.n	20006ad2 <__wrap_pow+0x92>
20006d00:	2500      	movs	r5, #0
20006d02:	e7a7      	b.n	20006c54 <__wrap_pow+0x214>
20006d04:	45d1      	cmp	r9, sl
20006d06:	d1c3      	bne.n	20006c90 <__wrap_pow+0x250>
20006d08:	4b0d      	ldr	r3, [pc, #52]	; (20006d40 <__wrap_pow+0x300>)
20006d0a:	2500      	movs	r5, #0
20006d0c:	4299      	cmp	r1, r3
20006d0e:	dd00      	ble.n	20006d12 <__wrap_pow+0x2d2>
20006d10:	e71f      	b.n	20006b52 <__wrap_pow+0x112>
20006d12:	2400      	movs	r4, #0
20006d14:	e6dd      	b.n	20006ad2 <__wrap_pow+0x92>
20006d16:	2500      	movs	r5, #0
20006d18:	4b09      	ldr	r3, [pc, #36]	; (20006d40 <__wrap_pow+0x300>)
20006d1a:	002c      	movs	r4, r5
20006d1c:	4299      	cmp	r1, r3
20006d1e:	dd00      	ble.n	20006d22 <__wrap_pow+0x2e2>
20006d20:	e6d7      	b.n	20006ad2 <__wrap_pow+0x92>
20006d22:	e716      	b.n	20006b52 <__wrap_pow+0x112>
20006d24:	3ff00000 	.word	0x3ff00000
20006d28:	bff00000 	.word	0xbff00000
20006d2c:	000007ff 	.word	0x000007ff
20006d30:	00000fff 	.word	0x00000fff
20006d34:	fffffc01 	.word	0xfffffc01
20006d38:	7ff00000 	.word	0x7ff00000
20006d3c:	fff00000 	.word	0xfff00000
20006d40:	000003fe 	.word	0x000003fe

20006d44 <double_table_shim_on_use_helper>:
20006d44:	b507      	push	{r0, r1, r2, lr}
20006d46:	4660      	mov	r0, ip
20006d48:	8801      	ldrh	r1, [r0, #0]
20006d4a:	0a0a      	lsrs	r2, r1, #8
20006d4c:	3002      	adds	r0, #2
20006d4e:	2adf      	cmp	r2, #223	; 0xdf
20006d50:	d1fa      	bne.n	20006d48 <double_table_shim_on_use_helper+0x4>
20006d52:	b2c9      	uxtb	r1, r1
20006d54:	0882      	lsrs	r2, r0, #2
20006d56:	d304      	bcc.n	20006d62 <double_table_shim_on_use_helper+0x1e>
20006d58:	8802      	ldrh	r2, [r0, #0]
20006d5a:	8840      	ldrh	r0, [r0, #2]
20006d5c:	0400      	lsls	r0, r0, #16
20006d5e:	4310      	orrs	r0, r2
20006d60:	e000      	b.n	20006d64 <double_table_shim_on_use_helper+0x20>
20006d62:	6800      	ldr	r0, [r0, #0]
20006d64:	4a01      	ldr	r2, [pc, #4]	; (20006d6c <double_table_shim_on_use_helper+0x28>)
20006d66:	5050      	str	r0, [r2, r1]
20006d68:	9003      	str	r0, [sp, #12]
20006d6a:	bd07      	pop	{r0, r1, r2, pc}
20006d6c:	2001485c 	.word	0x2001485c

20006d70 <drsub_shim>:
20006d70:	b40f      	push	{r0, r1, r2, r3}
20006d72:	bc03      	pop	{r0, r1}
20006d74:	bc0c      	pop	{r2, r3}

20006d76 <dsub_shim>:
20006d76:	b5f0      	push	{r4, r5, r6, r7, lr}
20006d78:	2401      	movs	r4, #1
20006d7a:	07e4      	lsls	r4, r4, #31
20006d7c:	4063      	eors	r3, r4
20006d7e:	e000      	b.n	20006d82 <da_entry>

20006d80 <dadd_shim>:
20006d80:	b5f0      	push	{r4, r5, r6, r7, lr}

20006d82 <da_entry>:
20006d82:	0d0c      	lsrs	r4, r1, #20
20006d84:	0fcf      	lsrs	r7, r1, #31
20006d86:	1e66      	subs	r6, r4, #1
20006d88:	0536      	lsls	r6, r6, #20
20006d8a:	1b89      	subs	r1, r1, r6
20006d8c:	0564      	lsls	r4, r4, #21
20006d8e:	d303      	bcc.n	20006d98 <l7_1>
20006d90:	43c9      	mvns	r1, r1
20006d92:	4240      	negs	r0, r0
20006d94:	d300      	bcc.n	20006d98 <l7_1>
20006d96:	3101      	adds	r1, #1

20006d98 <l7_1>:
20006d98:	0d64      	lsrs	r4, r4, #21
20006d9a:	d003      	beq.n	20006da4 <l7_2>
20006d9c:	1c66      	adds	r6, r4, #1
20006d9e:	0af6      	lsrs	r6, r6, #11
20006da0:	d007      	beq.n	20006db2 <l7_3>
20006da2:	1be4      	subs	r4, r4, r7

20006da4 <l7_2>:
20006da4:	2000      	movs	r0, #0
20006da6:	007f      	lsls	r7, r7, #1
20006da8:	1c79      	adds	r1, r7, #1
20006daa:	0789      	lsls	r1, r1, #30
20006dac:	1289      	asrs	r1, r1, #10
20006dae:	3c80      	subs	r4, #128	; 0x80
20006db0:	0324      	lsls	r4, r4, #12

20006db2 <l7_3>:
20006db2:	0d1d      	lsrs	r5, r3, #20
20006db4:	0fdf      	lsrs	r7, r3, #31
20006db6:	1e6e      	subs	r6, r5, #1
20006db8:	0536      	lsls	r6, r6, #20
20006dba:	1b9b      	subs	r3, r3, r6
20006dbc:	056d      	lsls	r5, r5, #21
20006dbe:	d303      	bcc.n	20006dc8 <l8_1>
20006dc0:	43db      	mvns	r3, r3
20006dc2:	4252      	negs	r2, r2
20006dc4:	d300      	bcc.n	20006dc8 <l8_1>
20006dc6:	3301      	adds	r3, #1

20006dc8 <l8_1>:
20006dc8:	0d6d      	lsrs	r5, r5, #21
20006dca:	d003      	beq.n	20006dd4 <l8_2>
20006dcc:	1c6e      	adds	r6, r5, #1
20006dce:	0af6      	lsrs	r6, r6, #11
20006dd0:	d007      	beq.n	20006de2 <l8_3>
20006dd2:	1bed      	subs	r5, r5, r7

20006dd4 <l8_2>:
20006dd4:	2200      	movs	r2, #0
20006dd6:	007f      	lsls	r7, r7, #1
20006dd8:	1c7b      	adds	r3, r7, #1
20006dda:	079b      	lsls	r3, r3, #30
20006ddc:	129b      	asrs	r3, r3, #10
20006dde:	3d80      	subs	r5, #128	; 0x80
20006de0:	032d      	lsls	r5, r5, #12

20006de2 <l8_3>:
20006de2:	1b2f      	subs	r7, r5, r4
20006de4:	1b66      	subs	r6, r4, r5
20006de6:	d458      	bmi.n	20006e9a <da_ygtx>
20006de8:	46a4      	mov	ip, r4
20006dea:	2e20      	cmp	r6, #32
20006dec:	da46      	bge.n	20006e7c <da_xrgty>
20006dee:	3720      	adds	r7, #32
20006df0:	0014      	movs	r4, r2
20006df2:	40bc      	lsls	r4, r7

20006df4 <da_xgty0>:
20006df4:	001d      	movs	r5, r3
20006df6:	40bd      	lsls	r5, r7
20006df8:	40f2      	lsrs	r2, r6
20006dfa:	4133      	asrs	r3, r6
20006dfc:	432a      	orrs	r2, r5

20006dfe <da_add>:
20006dfe:	1880      	adds	r0, r0, r2
20006e00:	4159      	adcs	r1, r3

20006e02 <da_pack>:
20006e02:	0fcb      	lsrs	r3, r1, #31
20006e04:	d005      	beq.n	20006e12 <da_pack+0x10>
20006e06:	43c9      	mvns	r1, r1
20006e08:	43c0      	mvns	r0, r0
20006e0a:	2200      	movs	r2, #0
20006e0c:	4264      	negs	r4, r4
20006e0e:	4150      	adcs	r0, r2
20006e10:	4151      	adcs	r1, r2
20006e12:	4662      	mov	r2, ip
20006e14:	0d4d      	lsrs	r5, r1, #21
20006e16:	d128      	bne.n	20006e6a <da_0>
20006e18:	0d0d      	lsrs	r5, r1, #20
20006e1a:	d107      	bne.n	20006e2c <da_1>
20006e1c:	2800      	cmp	r0, #0
20006e1e:	d01f      	beq.n	20006e60 <da_5>

20006e20 <da_2>:
20006e20:	1924      	adds	r4, r4, r4
20006e22:	4140      	adcs	r0, r0
20006e24:	4149      	adcs	r1, r1
20006e26:	3a01      	subs	r2, #1
20006e28:	0d0d      	lsrs	r5, r1, #20
20006e2a:	d0f9      	beq.n	20006e20 <da_2>

20006e2c <da_1>:
20006e2c:	0064      	lsls	r4, r4, #1
20006e2e:	d306      	bcc.n	20006e3e <da_3>

20006e30 <da_4>:
20006e30:	3001      	adds	r0, #1
20006e32:	d300      	bcc.n	20006e36 <da_4+0x6>
20006e34:	3101      	adds	r1, #1
20006e36:	2c00      	cmp	r4, #0
20006e38:	d101      	bne.n	20006e3e <da_3>
20006e3a:	0840      	lsrs	r0, r0, #1
20006e3c:	0040      	lsls	r0, r0, #1

20006e3e <da_3>:
20006e3e:	3a01      	subs	r2, #1
20006e40:	d40b      	bmi.n	20006e5a <da_6>
20006e42:	1c94      	adds	r4, r2, #2
20006e44:	0ae4      	lsrs	r4, r4, #11
20006e46:	d104      	bne.n	20006e52 <da_7>
20006e48:	0512      	lsls	r2, r2, #20
20006e4a:	4411      	add	r1, r2
20006e4c:	07db      	lsls	r3, r3, #31
20006e4e:	4419      	add	r1, r3
20006e50:	bdf0      	pop	{r4, r5, r6, r7, pc}

20006e52 <da_7>:
20006e52:	07d9      	lsls	r1, r3, #31
20006e54:	4b20      	ldr	r3, [pc, #128]	; (20006ed8 <da_xmgty+0x4>)
20006e56:	4319      	orrs	r1, r3
20006e58:	e000      	b.n	20006e5c <da_6+0x2>

20006e5a <da_6>:
20006e5a:	07d9      	lsls	r1, r3, #31
20006e5c:	2000      	movs	r0, #0
20006e5e:	bdf0      	pop	{r4, r5, r6, r7, pc}

20006e60 <da_5>:
20006e60:	2900      	cmp	r1, #0
20006e62:	d1dd      	bne.n	20006e20 <da_2>
20006e64:	2c00      	cmp	r4, #0
20006e66:	d1db      	bne.n	20006e20 <da_2>
20006e68:	bdf0      	pop	{r4, r5, r6, r7, pc}

20006e6a <da_0>:
20006e6a:	3201      	adds	r2, #1
20006e6c:	07c6      	lsls	r6, r0, #31
20006e6e:	0840      	lsrs	r0, r0, #1
20006e70:	07cd      	lsls	r5, r1, #31
20006e72:	4328      	orrs	r0, r5
20006e74:	0849      	lsrs	r1, r1, #1
20006e76:	2e00      	cmp	r6, #0
20006e78:	d0e1      	beq.n	20006e3e <da_3>
20006e7a:	e7d9      	b.n	20006e30 <da_4>

20006e7c <da_xrgty>:
20006e7c:	2e3c      	cmp	r6, #60	; 0x3c
20006e7e:	da29      	bge.n	20006ed4 <da_xmgty>
20006e80:	3e20      	subs	r6, #32
20006e82:	3740      	adds	r7, #64	; 0x40
20006e84:	0014      	movs	r4, r2
20006e86:	40bc      	lsls	r4, r7
20006e88:	d000      	beq.n	20006e8c <da_xrgty+0x10>
20006e8a:	2401      	movs	r4, #1
20006e8c:	40f2      	lsrs	r2, r6
20006e8e:	4314      	orrs	r4, r2
20006e90:	001a      	movs	r2, r3
20006e92:	40bb      	lsls	r3, r7
20006e94:	431c      	orrs	r4, r3
20006e96:	17d3      	asrs	r3, r2, #31
20006e98:	e7ac      	b.n	20006df4 <da_xgty0>

20006e9a <da_ygtx>:
20006e9a:	46ac      	mov	ip, r5
20006e9c:	2f20      	cmp	r7, #32
20006e9e:	da08      	bge.n	20006eb2 <da_yrgtx>
20006ea0:	3620      	adds	r6, #32
20006ea2:	0004      	movs	r4, r0
20006ea4:	40b4      	lsls	r4, r6

20006ea6 <da_ygtx0>:
20006ea6:	000d      	movs	r5, r1
20006ea8:	40b5      	lsls	r5, r6
20006eaa:	40f8      	lsrs	r0, r7
20006eac:	4139      	asrs	r1, r7
20006eae:	4328      	orrs	r0, r5
20006eb0:	e7a5      	b.n	20006dfe <da_add>

20006eb2 <da_yrgtx>:
20006eb2:	2f3c      	cmp	r7, #60	; 0x3c
20006eb4:	da0c      	bge.n	20006ed0 <da_ymgtx>
20006eb6:	3f20      	subs	r7, #32
20006eb8:	3640      	adds	r6, #64	; 0x40
20006eba:	0004      	movs	r4, r0
20006ebc:	40b4      	lsls	r4, r6
20006ebe:	d000      	beq.n	20006ec2 <da_yrgtx+0x10>
20006ec0:	2401      	movs	r4, #1
20006ec2:	40f8      	lsrs	r0, r7
20006ec4:	4304      	orrs	r4, r0
20006ec6:	0008      	movs	r0, r1
20006ec8:	40b1      	lsls	r1, r6
20006eca:	430c      	orrs	r4, r1
20006ecc:	17c1      	asrs	r1, r0, #31
20006ece:	e7ea      	b.n	20006ea6 <da_ygtx0>

20006ed0 <da_ymgtx>:
20006ed0:	0010      	movs	r0, r2
20006ed2:	0019      	movs	r1, r3

20006ed4 <da_xmgty>:
20006ed4:	2400      	movs	r4, #0
20006ed6:	e794      	b.n	20006e02 <da_pack>
20006ed8:	7ff00000 	.word	0x7ff00000

20006edc <dmul_shim>:
20006edc:	b5f0      	push	{r4, r5, r6, r7, lr}
20006ede:	0d0c      	lsrs	r4, r1, #20
20006ee0:	1e66      	subs	r6, r4, #1
20006ee2:	0536      	lsls	r6, r6, #20
20006ee4:	1b89      	subs	r1, r1, r6
20006ee6:	0ae6      	lsrs	r6, r4, #11
20006ee8:	0564      	lsls	r4, r4, #21
20006eea:	0d64      	lsrs	r4, r4, #21
20006eec:	d002      	beq.n	20006ef4 <l11_1>
20006eee:	1c65      	adds	r5, r4, #1
20006ef0:	0aed      	lsrs	r5, r5, #11
20006ef2:	d004      	beq.n	20006efe <l11_2>

20006ef4 <l11_1>:
20006ef4:	2000      	movs	r0, #0
20006ef6:	2101      	movs	r1, #1
20006ef8:	0509      	lsls	r1, r1, #20
20006efa:	3c80      	subs	r4, #128	; 0x80
20006efc:	0324      	lsls	r4, r4, #12

20006efe <l11_2>:
20006efe:	46a4      	mov	ip, r4
20006f00:	0d1c      	lsrs	r4, r3, #20
20006f02:	1e67      	subs	r7, r4, #1
20006f04:	053f      	lsls	r7, r7, #20
20006f06:	1bdb      	subs	r3, r3, r7
20006f08:	0ae7      	lsrs	r7, r4, #11
20006f0a:	0564      	lsls	r4, r4, #21
20006f0c:	0d64      	lsrs	r4, r4, #21
20006f0e:	d002      	beq.n	20006f16 <l12_1>
20006f10:	1c65      	adds	r5, r4, #1
20006f12:	0aed      	lsrs	r5, r5, #11
20006f14:	d004      	beq.n	20006f20 <l12_2>

20006f16 <l12_1>:
20006f16:	2200      	movs	r2, #0
20006f18:	2301      	movs	r3, #1
20006f1a:	051b      	lsls	r3, r3, #20
20006f1c:	3c80      	subs	r4, #128	; 0x80
20006f1e:	0324      	lsls	r4, r4, #12

20006f20 <l12_2>:
20006f20:	4077      	eors	r7, r6
20006f22:	4464      	add	r4, ip
20006f24:	b497      	push	{r0, r1, r2, r4, r7}
20006f26:	b284      	uxth	r4, r0
20006f28:	b296      	uxth	r6, r2
20006f2a:	4374      	muls	r4, r6
20006f2c:	0c07      	lsrs	r7, r0, #16
20006f2e:	437e      	muls	r6, r7
20006f30:	0c15      	lsrs	r5, r2, #16
20006f32:	436f      	muls	r7, r5
20006f34:	b280      	uxth	r0, r0
20006f36:	4368      	muls	r0, r5
20006f38:	1836      	adds	r6, r6, r0
20006f3a:	d302      	bcc.n	20006f42 <l13_1>
20006f3c:	2001      	movs	r0, #1
20006f3e:	0400      	lsls	r0, r0, #16
20006f40:	183f      	adds	r7, r7, r0

20006f42 <l13_1>:
20006f42:	0430      	lsls	r0, r6, #16
20006f44:	0c35      	lsrs	r5, r6, #16
20006f46:	1900      	adds	r0, r0, r4
20006f48:	417d      	adcs	r5, r7
20006f4a:	4684      	mov	ip, r0
20006f4c:	b288      	uxth	r0, r1
20006f4e:	b29a      	uxth	r2, r3
20006f50:	4350      	muls	r0, r2
20006f52:	0c0c      	lsrs	r4, r1, #16
20006f54:	4362      	muls	r2, r4
20006f56:	0c1f      	lsrs	r7, r3, #16
20006f58:	437c      	muls	r4, r7
20006f5a:	b28e      	uxth	r6, r1
20006f5c:	437e      	muls	r6, r7
20006f5e:	1992      	adds	r2, r2, r6
20006f60:	d302      	bcc.n	20006f68 <l14_1>
20006f62:	2601      	movs	r6, #1
20006f64:	0436      	lsls	r6, r6, #16
20006f66:	19a4      	adds	r4, r4, r6

20006f68 <l14_1>:
20006f68:	0416      	lsls	r6, r2, #16
20006f6a:	0c17      	lsrs	r7, r2, #16
20006f6c:	1836      	adds	r6, r6, r0
20006f6e:	4167      	adcs	r7, r4
20006f70:	bc01      	pop	{r0}
20006f72:	b281      	uxth	r1, r0
20006f74:	b29a      	uxth	r2, r3
20006f76:	4351      	muls	r1, r2
20006f78:	0c04      	lsrs	r4, r0, #16
20006f7a:	4362      	muls	r2, r4
20006f7c:	0c1b      	lsrs	r3, r3, #16
20006f7e:	435c      	muls	r4, r3
20006f80:	b280      	uxth	r0, r0
20006f82:	4358      	muls	r0, r3
20006f84:	1812      	adds	r2, r2, r0
20006f86:	d302      	bcc.n	20006f8e <l15_1>
20006f88:	2001      	movs	r0, #1
20006f8a:	0400      	lsls	r0, r0, #16
20006f8c:	1824      	adds	r4, r4, r0

20006f8e <l15_1>:
20006f8e:	0410      	lsls	r0, r2, #16
20006f90:	0c13      	lsrs	r3, r2, #16
20006f92:	1840      	adds	r0, r0, r1
20006f94:	4163      	adcs	r3, r4
20006f96:	182d      	adds	r5, r5, r0
20006f98:	415e      	adcs	r6, r3
20006f9a:	2000      	movs	r0, #0
20006f9c:	4147      	adcs	r7, r0
20006f9e:	bc06      	pop	{r1, r2}
20006fa0:	b288      	uxth	r0, r1
20006fa2:	b293      	uxth	r3, r2
20006fa4:	4358      	muls	r0, r3
20006fa6:	0c0c      	lsrs	r4, r1, #16
20006fa8:	4363      	muls	r3, r4
20006faa:	0c12      	lsrs	r2, r2, #16
20006fac:	4354      	muls	r4, r2
20006fae:	b289      	uxth	r1, r1
20006fb0:	4351      	muls	r1, r2
20006fb2:	185b      	adds	r3, r3, r1
20006fb4:	d302      	bcc.n	20006fbc <l16_1>
20006fb6:	2101      	movs	r1, #1
20006fb8:	0409      	lsls	r1, r1, #16
20006fba:	1864      	adds	r4, r4, r1

20006fbc <l16_1>:
20006fbc:	0419      	lsls	r1, r3, #16
20006fbe:	0c1a      	lsrs	r2, r3, #16
20006fc0:	1809      	adds	r1, r1, r0
20006fc2:	4162      	adcs	r2, r4
20006fc4:	186d      	adds	r5, r5, r1
20006fc6:	4156      	adcs	r6, r2
20006fc8:	2000      	movs	r0, #0
20006fca:	4147      	adcs	r7, r0
20006fcc:	bc18      	pop	{r3, r4}
20006fce:	02f9      	lsls	r1, r7, #11
20006fd0:	0d72      	lsrs	r2, r6, #21
20006fd2:	4311      	orrs	r1, r2
20006fd4:	02f0      	lsls	r0, r6, #11
20006fd6:	0d6a      	lsrs	r2, r5, #21
20006fd8:	4310      	orrs	r0, r2
20006fda:	02ed      	lsls	r5, r5, #11
20006fdc:	0d0a      	lsrs	r2, r1, #20
20006fde:	d103      	bne.n	20006fe8 <l16_1+0x2c>
20006fe0:	196d      	adds	r5, r5, r5
20006fe2:	4140      	adcs	r0, r0
20006fe4:	4149      	adcs	r1, r1
20006fe6:	3b01      	subs	r3, #1
20006fe8:	4e12      	ldr	r6, [pc, #72]	; (20007034 <dm_1+0xa>)
20006fea:	1b9b      	subs	r3, r3, r6
20006fec:	0076      	lsls	r6, r6, #1
20006fee:	42b3      	cmp	r3, r6
20006ff0:	d20e      	bcs.n	20007010 <dm_0>
20006ff2:	006d      	lsls	r5, r5, #1
20006ff4:	d307      	bcc.n	20007006 <l16_1+0x4a>
20006ff6:	3001      	adds	r0, #1
20006ff8:	2600      	movs	r6, #0
20006ffa:	4171      	adcs	r1, r6
20006ffc:	4666      	mov	r6, ip
20006ffe:	4335      	orrs	r5, r6
20007000:	d101      	bne.n	20007006 <l16_1+0x4a>
20007002:	0840      	lsrs	r0, r0, #1
20007004:	0040      	lsls	r0, r0, #1
20007006:	051b      	lsls	r3, r3, #20
20007008:	18c9      	adds	r1, r1, r3

2000700a <dm_2>:
2000700a:	07e4      	lsls	r4, r4, #31
2000700c:	4421      	add	r1, r4
2000700e:	bdf0      	pop	{r4, r5, r6, r7, pc}

20007010 <dm_0>:
20007010:	da0b      	bge.n	2000702a <dm_1>
20007012:	3301      	adds	r3, #1
20007014:	d106      	bne.n	20007024 <dm_0+0x14>
20007016:	3001      	adds	r0, #1
20007018:	d104      	bne.n	20007024 <dm_0+0x14>
2000701a:	3101      	adds	r1, #1
2000701c:	0d4f      	lsrs	r7, r1, #21
2000701e:	d001      	beq.n	20007024 <dm_0+0x14>
20007020:	0849      	lsrs	r1, r1, #1
20007022:	e7f2      	b.n	2000700a <dm_2>
20007024:	07e1      	lsls	r1, r4, #31
20007026:	2000      	movs	r0, #0
20007028:	bdf0      	pop	{r4, r5, r6, r7, pc}

2000702a <dm_1>:
2000702a:	3601      	adds	r6, #1
2000702c:	0531      	lsls	r1, r6, #20
2000702e:	2000      	movs	r0, #0
20007030:	e7eb      	b.n	2000700a <dm_2>
20007032:	0000      	.short	0x0000
20007034:	000003ff 	.word	0x000003ff

20007038 <ddiv_shim>:
20007038:	b5f0      	push	{r4, r5, r6, r7, lr}

2000703a <ddiv0>:
2000703a:	0d1c      	lsrs	r4, r3, #20
2000703c:	1e67      	subs	r7, r4, #1
2000703e:	053f      	lsls	r7, r7, #20
20007040:	1bdb      	subs	r3, r3, r7
20007042:	0ae7      	lsrs	r7, r4, #11
20007044:	0564      	lsls	r4, r4, #21
20007046:	0d64      	lsrs	r4, r4, #21
20007048:	d002      	beq.n	20007050 <l19_1>
2000704a:	1c66      	adds	r6, r4, #1
2000704c:	0af6      	lsrs	r6, r6, #11
2000704e:	d004      	beq.n	2000705a <l19_2>

20007050 <l19_1>:
20007050:	2200      	movs	r2, #0
20007052:	2301      	movs	r3, #1
20007054:	051b      	lsls	r3, r3, #20
20007056:	3c80      	subs	r4, #128	; 0x80
20007058:	0324      	lsls	r4, r4, #12

2000705a <l19_2>:
2000705a:	25d0      	movs	r5, #208	; 0xd0
2000705c:	062d      	lsls	r5, r5, #24
2000705e:	2600      	movs	r6, #0
20007060:	43f6      	mvns	r6, r6
20007062:	662e      	str	r6, [r5, #96]	; 0x60
20007064:	091e      	lsrs	r6, r3, #4
20007066:	666e      	str	r6, [r5, #100]	; 0x64
20007068:	0fce      	lsrs	r6, r1, #31
2000706a:	19f6      	adds	r6, r6, r7
2000706c:	46b4      	mov	ip, r6
2000706e:	0049      	lsls	r1, r1, #1
20007070:	0d4f      	lsrs	r7, r1, #21
20007072:	d002      	beq.n	2000707a <l19_2+0x20>
20007074:	1c7e      	adds	r6, r7, #1
20007076:	0af6      	lsrs	r6, r6, #11
20007078:	d003      	beq.n	20007082 <l19_2+0x28>
2000707a:	2000      	movs	r0, #0
2000707c:	2100      	movs	r1, #0
2000707e:	3f40      	subs	r7, #64	; 0x40
20007080:	033f      	lsls	r7, r7, #12
20007082:	1b3e      	subs	r6, r7, r4
20007084:	00b6      	lsls	r6, r6, #2
20007086:	44b4      	add	ip, r6
20007088:	3f01      	subs	r7, #1
2000708a:	057f      	lsls	r7, r7, #21
2000708c:	1bc9      	subs	r1, r1, r7
2000708e:	0849      	lsrs	r1, r1, #1
20007090:	6f2e      	ldr	r6, [r5, #112]	; 0x70
20007092:	3601      	adds	r6, #1
20007094:	0876      	lsrs	r6, r6, #1
20007096:	029c      	lsls	r4, r3, #10
20007098:	0d95      	lsrs	r5, r2, #22
2000709a:	4325      	orrs	r5, r4
2000709c:	4375      	muls	r5, r6
2000709e:	13ed      	asrs	r5, r5, #15
200070a0:	4375      	muls	r5, r6
200070a2:	13ad      	asrs	r5, r5, #14
200070a4:	3501      	adds	r5, #1
200070a6:	106d      	asrs	r5, r5, #1
200070a8:	03f6      	lsls	r6, r6, #15
200070aa:	1b76      	subs	r6, r6, r5
200070ac:	b40c      	push	{r2, r3}
200070ae:	02cc      	lsls	r4, r1, #11
200070b0:	0d45      	lsrs	r5, r0, #21
200070b2:	432c      	orrs	r4, r5
200070b4:	b2a2      	uxth	r2, r4
200070b6:	b2b3      	uxth	r3, r6
200070b8:	435a      	muls	r2, r3
200070ba:	0c27      	lsrs	r7, r4, #16
200070bc:	437b      	muls	r3, r7
200070be:	0c35      	lsrs	r5, r6, #16
200070c0:	436f      	muls	r7, r5
200070c2:	b2a4      	uxth	r4, r4
200070c4:	436c      	muls	r4, r5
200070c6:	191b      	adds	r3, r3, r4
200070c8:	d302      	bcc.n	200070d0 <l20_1>
200070ca:	2401      	movs	r4, #1
200070cc:	0424      	lsls	r4, r4, #16
200070ce:	193f      	adds	r7, r7, r4

200070d0 <l20_1>:
200070d0:	041c      	lsls	r4, r3, #16
200070d2:	0c1d      	lsrs	r5, r3, #16
200070d4:	18a4      	adds	r4, r4, r2
200070d6:	417d      	adcs	r5, r7
200070d8:	1924      	adds	r4, r4, r4
200070da:	416d      	adcs	r5, r5
200070dc:	9a00      	ldr	r2, [sp, #0]
200070de:	b291      	uxth	r1, r2
200070e0:	b2ac      	uxth	r4, r5
200070e2:	4361      	muls	r1, r4
200070e4:	0c17      	lsrs	r7, r2, #16
200070e6:	437c      	muls	r4, r7
200070e8:	0c2b      	lsrs	r3, r5, #16
200070ea:	435f      	muls	r7, r3
200070ec:	b292      	uxth	r2, r2
200070ee:	435a      	muls	r2, r3
200070f0:	18a4      	adds	r4, r4, r2
200070f2:	d302      	bcc.n	200070fa <l21_1>
200070f4:	2201      	movs	r2, #1
200070f6:	0412      	lsls	r2, r2, #16
200070f8:	18bf      	adds	r7, r7, r2

200070fa <l21_1>:
200070fa:	0422      	lsls	r2, r4, #16
200070fc:	0c23      	lsrs	r3, r4, #16
200070fe:	1852      	adds	r2, r2, r1
20007100:	417b      	adcs	r3, r7
20007102:	9c01      	ldr	r4, [sp, #4]
20007104:	436c      	muls	r4, r5
20007106:	191b      	adds	r3, r3, r4
20007108:	0e52      	lsrs	r2, r2, #25
2000710a:	01d9      	lsls	r1, r3, #7
2000710c:	430a      	orrs	r2, r1
2000710e:	0144      	lsls	r4, r0, #5
20007110:	1aa0      	subs	r0, r4, r2
20007112:	b281      	uxth	r1, r0
20007114:	b2b2      	uxth	r2, r6
20007116:	4351      	muls	r1, r2
20007118:	1403      	asrs	r3, r0, #16
2000711a:	435a      	muls	r2, r3
2000711c:	0c36      	lsrs	r6, r6, #16
2000711e:	4373      	muls	r3, r6
20007120:	b287      	uxth	r7, r0
20007122:	4377      	muls	r7, r6
20007124:	17d6      	asrs	r6, r2, #31
20007126:	19d2      	adds	r2, r2, r7
20007128:	2700      	movs	r7, #0
2000712a:	417e      	adcs	r6, r7
2000712c:	0436      	lsls	r6, r6, #16
2000712e:	199b      	adds	r3, r3, r6
20007130:	0417      	lsls	r7, r2, #16
20007132:	0c16      	lsrs	r6, r2, #16
20007134:	187f      	adds	r7, r7, r1
20007136:	415e      	adcs	r6, r3
20007138:	1673      	asrs	r3, r6, #25
2000713a:	18ed      	adds	r5, r5, r3
2000713c:	01f3      	lsls	r3, r6, #7
2000713e:	2600      	movs	r6, #0
20007140:	3380      	adds	r3, #128	; 0x80
20007142:	4175      	adcs	r5, r6
20007144:	0fa9      	lsrs	r1, r5, #30
20007146:	d106      	bne.n	20007156 <dd_0>
20007148:	0064      	lsls	r4, r4, #1
2000714a:	0a69      	lsrs	r1, r5, #9
2000714c:	05e8      	lsls	r0, r5, #23
2000714e:	0a5b      	lsrs	r3, r3, #9
20007150:	4318      	orrs	r0, r3
20007152:	d209      	bcs.n	20007168 <dd_1>
20007154:	e02f      	b.n	200071b6 <dd_2>

20007156 <dd_0>:
20007156:	2204      	movs	r2, #4
20007158:	4494      	add	ip, r2
2000715a:	3380      	adds	r3, #128	; 0x80
2000715c:	4175      	adcs	r5, r6
2000715e:	0aa9      	lsrs	r1, r5, #10
20007160:	05a8      	lsls	r0, r5, #22
20007162:	0a9b      	lsrs	r3, r3, #10
20007164:	4318      	orrs	r0, r3
20007166:	d326      	bcc.n	200071b6 <dd_2>

20007168 <dd_1>:
20007168:	4140      	adcs	r0, r0
2000716a:	4149      	adcs	r1, r1
2000716c:	0424      	lsls	r4, r4, #16
2000716e:	9a00      	ldr	r2, [sp, #0]
20007170:	9b01      	ldr	r3, [sp, #4]
20007172:	000d      	movs	r5, r1
20007174:	4355      	muls	r5, r2
20007176:	1b64      	subs	r4, r4, r5
20007178:	4343      	muls	r3, r0
2000717a:	1ae4      	subs	r4, r4, r3
2000717c:	b295      	uxth	r5, r2
2000717e:	b286      	uxth	r6, r0
20007180:	4375      	muls	r5, r6
20007182:	0c17      	lsrs	r7, r2, #16
20007184:	437e      	muls	r6, r7
20007186:	0c03      	lsrs	r3, r0, #16
20007188:	435f      	muls	r7, r3
2000718a:	b292      	uxth	r2, r2
2000718c:	435a      	muls	r2, r3
2000718e:	18b6      	adds	r6, r6, r2
20007190:	d302      	bcc.n	20007198 <l23_1>
20007192:	2201      	movs	r2, #1
20007194:	0412      	lsls	r2, r2, #16
20007196:	18bf      	adds	r7, r7, r2

20007198 <l23_1>:
20007198:	0432      	lsls	r2, r6, #16
2000719a:	0c33      	lsrs	r3, r6, #16
2000719c:	1952      	adds	r2, r2, r5
2000719e:	417b      	adcs	r3, r7
200071a0:	4252      	negs	r2, r2
200071a2:	419c      	sbcs	r4, r3
200071a4:	2c00      	cmp	r4, #0
200071a6:	d402      	bmi.n	200071ae <l23_1+0x16>
200071a8:	2200      	movs	r2, #0
200071aa:	3001      	adds	r0, #1
200071ac:	4151      	adcs	r1, r2
200071ae:	0840      	lsrs	r0, r0, #1
200071b0:	07ca      	lsls	r2, r1, #31
200071b2:	4310      	orrs	r0, r2
200071b4:	0849      	lsrs	r1, r1, #1

200071b6 <dd_2>:
200071b6:	b002      	add	sp, #8
200071b8:	4662      	mov	r2, ip
200071ba:	07d7      	lsls	r7, r2, #31
200071bc:	1092      	asrs	r2, r2, #2
200071be:	4b08      	ldr	r3, [pc, #32]	; (200071e0 <dd_4+0x6>)
200071c0:	18d2      	adds	r2, r2, r3
200071c2:	4b08      	ldr	r3, [pc, #32]	; (200071e4 <dd_4+0xa>)
200071c4:	429a      	cmp	r2, r3
200071c6:	d203      	bcs.n	200071d0 <dd_3>
200071c8:	0512      	lsls	r2, r2, #20
200071ca:	1889      	adds	r1, r1, r2

200071cc <dd_5>:
200071cc:	19c9      	adds	r1, r1, r7
200071ce:	bdf0      	pop	{r4, r5, r6, r7, pc}

200071d0 <dd_3>:
200071d0:	2000      	movs	r0, #0
200071d2:	2a00      	cmp	r2, #0
200071d4:	dc01      	bgt.n	200071da <dd_4>
200071d6:	0039      	movs	r1, r7
200071d8:	bdf0      	pop	{r4, r5, r6, r7, pc}

200071da <dd_4>:
200071da:	3301      	adds	r3, #1
200071dc:	0519      	lsls	r1, r3, #20
200071de:	e7f5      	b.n	200071cc <dd_5>
200071e0:	000003fd 	.word	0x000003fd
200071e4:	000007fe 	.word	0x000007fe

200071e8 <double2uint_shim>:
200071e8:	2200      	movs	r2, #0

200071ea <double2ufix_shim>:
200071ea:	b500      	push	{lr}
200071ec:	3220      	adds	r2, #32
200071ee:	f000 f804 	bl	200071fa <double2ufix64_shim>
200071f2:	0008      	movs	r0, r1
200071f4:	bd00      	pop	{pc}
	...

200071f8 <double2uint64_shim>:
200071f8:	2200      	movs	r2, #0

200071fa <double2ufix64_shim>:
200071fa:	150b      	asrs	r3, r1, #20
200071fc:	d40a      	bmi.n	20007214 <ret_dzero>

200071fe <d2fix>:
200071fe:	b510      	push	{r4, lr}
20007200:	4694      	mov	ip, r2
20007202:	f000 f879 	bl	200072f8 <dunpacks>
20007206:	1414      	asrs	r4, r2, #16
20007208:	3401      	adds	r4, #1
2000720a:	da00      	bge.n	2000720e <d2fix+0x10>
2000720c:	2100      	movs	r1, #0
2000720e:	17cb      	asrs	r3, r1, #31
20007210:	4c14      	ldr	r4, [pc, #80]	; (20007264 <d2fix_a+0x4a>)
20007212:	4720      	bx	r4

20007214 <ret_dzero>:
20007214:	2000      	movs	r0, #0
20007216:	2100      	movs	r1, #0
20007218:	4770      	bx	lr

2000721a <d2fix_a>:
2000721a:	4462      	add	r2, ip
2000721c:	3a34      	subs	r2, #52	; 0x34
2000721e:	d40c      	bmi.n	2000723a <d2fix_a+0x20>
20007220:	2a0c      	cmp	r2, #12
20007222:	da07      	bge.n	20007234 <d2fix_a+0x1a>
20007224:	0004      	movs	r4, r0
20007226:	4091      	lsls	r1, r2
20007228:	4090      	lsls	r0, r2
2000722a:	4252      	negs	r2, r2
2000722c:	3220      	adds	r2, #32
2000722e:	40d4      	lsrs	r4, r2
20007230:	4321      	orrs	r1, r4
20007232:	bd10      	pop	{r4, pc}
20007234:	43d8      	mvns	r0, r3
20007236:	43d9      	mvns	r1, r3
20007238:	bd10      	pop	{r4, pc}
2000723a:	3220      	adds	r2, #32
2000723c:	d407      	bmi.n	2000724e <d2fix_a+0x34>
2000723e:	460c      	mov	r4, r1
20007240:	4094      	lsls	r4, r2
20007242:	4252      	negs	r2, r2
20007244:	3220      	adds	r2, #32
20007246:	4111      	asrs	r1, r2
20007248:	40d0      	lsrs	r0, r2
2000724a:	4320      	orrs	r0, r4
2000724c:	bd10      	pop	{r4, pc}
2000724e:	0008      	movs	r0, r1
20007250:	17c9      	asrs	r1, r1, #31
20007252:	3220      	adds	r2, #32
20007254:	d403      	bmi.n	2000725e <d2fix_a+0x44>
20007256:	4252      	negs	r2, r2
20007258:	3220      	adds	r2, #32
2000725a:	4110      	asrs	r0, r2
2000725c:	bd10      	pop	{r4, pc}
2000725e:	0018      	movs	r0, r3
20007260:	0019      	movs	r1, r3
20007262:	bd10      	pop	{r4, pc}
20007264:	2000721b 	.word	0x2000721b

20007268 <uint2double_shim>:
20007268:	2100      	movs	r1, #0

2000726a <ufix2double_shim>:
2000726a:	000a      	movs	r2, r1
2000726c:	2100      	movs	r1, #0
2000726e:	e004      	b.n	2000727a <ufix642double_shim>

20007270 <int2double_shim>:
20007270:	2100      	movs	r1, #0

20007272 <fix2double_shim>:
20007272:	000a      	movs	r2, r1
20007274:	17c1      	asrs	r1, r0, #31
20007276:	e004      	b.n	20007282 <fix642double_shim>

20007278 <uint642double_shim>:
20007278:	2200      	movs	r2, #0

2000727a <ufix642double_shim>:
2000727a:	2300      	movs	r3, #0
2000727c:	e006      	b.n	2000728c <uf2d>
2000727e:	46c0      	nop			; (mov r8, r8)

20007280 <int642double_shim>:
20007280:	2200      	movs	r2, #0

20007282 <fix642double_shim>:
20007282:	17cb      	asrs	r3, r1, #31
20007284:	4058      	eors	r0, r3
20007286:	4059      	eors	r1, r3
20007288:	1ac0      	subs	r0, r0, r3
2000728a:	4199      	sbcs	r1, r3

2000728c <uf2d>:
2000728c:	b530      	push	{r4, r5, lr}
2000728e:	4c18      	ldr	r4, [pc, #96]	; (200072f0 <uf2d+0x64>)
20007290:	1aa2      	subs	r2, r4, r2
20007292:	2900      	cmp	r1, #0
20007294:	d103      	bne.n	2000729e <uf2d+0x12>
20007296:	0001      	movs	r1, r0
20007298:	d010      	beq.n	200072bc <uf2d+0x30>
2000729a:	2000      	movs	r0, #0
2000729c:	3a20      	subs	r2, #32
2000729e:	154c      	asrs	r4, r1, #21
200072a0:	d112      	bne.n	200072c8 <uf2d+0x3c>
200072a2:	d204      	bcs.n	200072ae <uf2d+0x22>
200072a4:	3a01      	subs	r2, #1
200072a6:	1800      	adds	r0, r0, r0
200072a8:	4149      	adcs	r1, r1
200072aa:	0d4c      	lsrs	r4, r1, #21
200072ac:	d3fa      	bcc.n	200072a4 <uf2d+0x18>
200072ae:	4c11      	ldr	r4, [pc, #68]	; (200072f4 <uf2d+0x68>)
200072b0:	42a2      	cmp	r2, r4
200072b2:	d204      	bcs.n	200072be <uf2d+0x32>
200072b4:	0512      	lsls	r2, r2, #20
200072b6:	1889      	adds	r1, r1, r2
200072b8:	07db      	lsls	r3, r3, #31
200072ba:	18c9      	adds	r1, r1, r3
200072bc:	bd30      	pop	{r4, r5, pc}
200072be:	43d2      	mvns	r2, r2
200072c0:	0d52      	lsrs	r2, r2, #21
200072c2:	2000      	movs	r0, #0
200072c4:	2100      	movs	r1, #0
200072c6:	e7f5      	b.n	200072b4 <uf2d+0x28>
200072c8:	d403      	bmi.n	200072d2 <uf2d+0x46>
200072ca:	3a01      	subs	r2, #1
200072cc:	1800      	adds	r0, r0, r0
200072ce:	4149      	adcs	r1, r1
200072d0:	d5fb      	bpl.n	200072ca <uf2d+0x3e>
200072d2:	320b      	adds	r2, #11
200072d4:	0544      	lsls	r4, r0, #21
200072d6:	0ac0      	lsrs	r0, r0, #11
200072d8:	054d      	lsls	r5, r1, #21
200072da:	4328      	orrs	r0, r5
200072dc:	0ac9      	lsrs	r1, r1, #11
200072de:	0064      	lsls	r4, r4, #1
200072e0:	d003      	beq.n	200072ea <uf2d+0x5e>
200072e2:	2400      	movs	r4, #0
200072e4:	4160      	adcs	r0, r4
200072e6:	4161      	adcs	r1, r4
200072e8:	e7e1      	b.n	200072ae <uf2d+0x22>
200072ea:	d3e0      	bcc.n	200072ae <uf2d+0x22>
200072ec:	0844      	lsrs	r4, r0, #1
200072ee:	e7f8      	b.n	200072e2 <uf2d+0x56>
200072f0:	00000432 	.word	0x00000432
200072f4:	000007fe 	.word	0x000007fe

200072f8 <dunpacks>:
200072f8:	0d0a      	lsrs	r2, r1, #20
200072fa:	0fcc      	lsrs	r4, r1, #31
200072fc:	1e53      	subs	r3, r2, #1
200072fe:	051b      	lsls	r3, r3, #20
20007300:	1ac9      	subs	r1, r1, r3
20007302:	0552      	lsls	r2, r2, #21
20007304:	d303      	bcc.n	2000730e <l59_1>
20007306:	43c9      	mvns	r1, r1
20007308:	4240      	negs	r0, r0
2000730a:	d300      	bcc.n	2000730e <l59_1>
2000730c:	3101      	adds	r1, #1

2000730e <l59_1>:
2000730e:	0d52      	lsrs	r2, r2, #21
20007310:	d003      	beq.n	2000731a <l59_2>
20007312:	1c53      	adds	r3, r2, #1
20007314:	0adb      	lsrs	r3, r3, #11
20007316:	d007      	beq.n	20007328 <l59_3>
20007318:	1b12      	subs	r2, r2, r4

2000731a <l59_2>:
2000731a:	2000      	movs	r0, #0
2000731c:	0064      	lsls	r4, r4, #1
2000731e:	1c61      	adds	r1, r4, #1
20007320:	0789      	lsls	r1, r1, #30
20007322:	1289      	asrs	r1, r1, #10
20007324:	3a80      	subs	r2, #128	; 0x80
20007326:	0312      	lsls	r2, r2, #12

20007328 <l59_3>:
20007328:	4b01      	ldr	r3, [pc, #4]	; (20007330 <l59_3+0x8>)
2000732a:	1ad2      	subs	r2, r2, r3
2000732c:	4770      	bx	lr
2000732e:	0000      	.short	0x0000
20007330:	000003ff 	.word	0x000003ff

20007334 <dreduce>:
20007334:	3202      	adds	r2, #2
20007336:	d425      	bmi.n	20007384 <dreduce+0x50>
20007338:	2a0c      	cmp	r2, #12
2000733a:	da1c      	bge.n	20007376 <dreduce+0x42>
2000733c:	2511      	movs	r5, #17
2000733e:	1aad      	subs	r5, r5, r2
20007340:	000b      	movs	r3, r1
20007342:	412b      	asrs	r3, r5
20007344:	3208      	adds	r2, #8
20007346:	3507      	adds	r5, #7
20007348:	0006      	movs	r6, r0
2000734a:	40ee      	lsrs	r6, r5
2000734c:	4090      	lsls	r0, r2
2000734e:	4091      	lsls	r1, r2
20007350:	4331      	orrs	r1, r6
20007352:	ccf0      	ldmia	r4, {r4, r5, r6, r7}
20007354:	4363      	muls	r3, r4
20007356:	151a      	asrs	r2, r3, #20
20007358:	2300      	movs	r3, #0
2000735a:	415a      	adcs	r2, r3
2000735c:	4355      	muls	r5, r2
2000735e:	4356      	muls	r6, r2
20007360:	4357      	muls	r7, r2
20007362:	02bf      	lsls	r7, r7, #10
20007364:	12f4      	asrs	r4, r6, #11
20007366:	0576      	lsls	r6, r6, #21
20007368:	1976      	adds	r6, r6, r5
2000736a:	4167      	adcs	r7, r4
2000736c:	17ed      	asrs	r5, r5, #31
2000736e:	197f      	adds	r7, r7, r5
20007370:	1b80      	subs	r0, r0, r6
20007372:	41b9      	sbcs	r1, r7
20007374:	4770      	bx	lr
20007376:	220c      	movs	r2, #12
20007378:	2000      	movs	r0, #0
2000737a:	17c9      	asrs	r1, r1, #31
2000737c:	0049      	lsls	r1, r1, #1
2000737e:	3101      	adds	r1, #1
20007380:	0509      	lsls	r1, r1, #20
20007382:	e7db      	b.n	2000733c <dreduce+0x8>
20007384:	0209      	lsls	r1, r1, #8
20007386:	0e03      	lsrs	r3, r0, #24
20007388:	4319      	orrs	r1, r3
2000738a:	0200      	lsls	r0, r0, #8
2000738c:	4253      	negs	r3, r2
2000738e:	3220      	adds	r2, #32
20007390:	d408      	bmi.n	200073a4 <dreduce+0x70>
20007392:	000c      	movs	r4, r1
20007394:	4119      	asrs	r1, r3
20007396:	4094      	lsls	r4, r2
20007398:	40d8      	lsrs	r0, r3
2000739a:	4320      	orrs	r0, r4
2000739c:	2200      	movs	r2, #0
2000739e:	4150      	adcs	r0, r2
200073a0:	4151      	adcs	r1, r2
200073a2:	4770      	bx	lr
200073a4:	0008      	movs	r0, r1
200073a6:	17c9      	asrs	r1, r1, #31
200073a8:	3b20      	subs	r3, #32
200073aa:	3220      	adds	r2, #32
200073ac:	d5f1      	bpl.n	20007392 <dreduce+0x5e>
200073ae:	2000      	movs	r0, #0
200073b0:	2100      	movs	r1, #0
200073b2:	2200      	movs	r2, #0
200073b4:	4770      	bx	lr
	...

200073b8 <dexp_shim>:
200073b8:	b5f0      	push	{r4, r5, r6, r7, lr}
200073ba:	f7ff ff9d 	bl	200072f8 <dunpacks>
200073be:	a454      	add	r4, pc, #336	; (adr r4, 20007510 <dreddata1>)
200073c0:	f7ff ffb8 	bl	20007334 <dreduce>
200073c4:	2900      	cmp	r1, #0
200073c6:	da04      	bge.n	200073d2 <dexp_shim+0x1a>
200073c8:	4c20      	ldr	r4, [pc, #128]	; (2000744c <dexp_shim+0x94>)
200073ca:	4d21      	ldr	r5, [pc, #132]	; (20007450 <dexp_shim+0x98>)
200073cc:	1900      	adds	r0, r0, r4
200073ce:	4169      	adcs	r1, r5
200073d0:	3a01      	subs	r2, #1
200073d2:	b404      	push	{r2}
200073d4:	2701      	movs	r7, #1
200073d6:	a652      	add	r6, pc, #328	; (adr r6, 20007520 <dtab_exp>)
200073d8:	2200      	movs	r2, #0
200073da:	2301      	movs	r3, #1
200073dc:	079b      	lsls	r3, r3, #30
200073de:	ce30      	ldmia	r6!, {r4, r5}
200073e0:	46b4      	mov	ip, r6
200073e2:	1b00      	subs	r0, r0, r4
200073e4:	41a9      	sbcs	r1, r5
200073e6:	d40b      	bmi.n	20007400 <dexp_shim+0x48>
200073e8:	427e      	negs	r6, r7
200073ea:	3620      	adds	r6, #32
200073ec:	001d      	movs	r5, r3
200073ee:	413d      	asrs	r5, r7
200073f0:	001c      	movs	r4, r3
200073f2:	40b4      	lsls	r4, r6
200073f4:	0016      	movs	r6, r2
200073f6:	40fe      	lsrs	r6, r7
200073f8:	4334      	orrs	r4, r6
200073fa:	4162      	adcs	r2, r4
200073fc:	416b      	adcs	r3, r5
200073fe:	e001      	b.n	20007404 <dexp_shim+0x4c>
20007400:	1900      	adds	r0, r0, r4
20007402:	4169      	adcs	r1, r5
20007404:	4666      	mov	r6, ip
20007406:	3701      	adds	r7, #1
20007408:	2f21      	cmp	r7, #33	; 0x21
2000740a:	d1e8      	bne.n	200073de <dexp_shim+0x26>
2000740c:	b285      	uxth	r5, r0
2000740e:	b29e      	uxth	r6, r3
20007410:	4375      	muls	r5, r6
20007412:	1407      	asrs	r7, r0, #16
20007414:	437e      	muls	r6, r7
20007416:	0c19      	lsrs	r1, r3, #16
20007418:	434f      	muls	r7, r1
2000741a:	b284      	uxth	r4, r0
2000741c:	434c      	muls	r4, r1
2000741e:	17f1      	asrs	r1, r6, #31
20007420:	1936      	adds	r6, r6, r4
20007422:	2400      	movs	r4, #0
20007424:	4161      	adcs	r1, r4
20007426:	0409      	lsls	r1, r1, #16
20007428:	187f      	adds	r7, r7, r1
2000742a:	0434      	lsls	r4, r6, #16
2000742c:	0c31      	lsrs	r1, r6, #16
2000742e:	1964      	adds	r4, r4, r5
20007430:	4179      	adcs	r1, r7
20007432:	0fa4      	lsrs	r4, r4, #30
20007434:	0088      	lsls	r0, r1, #2
20007436:	4320      	orrs	r0, r4
20007438:	1789      	asrs	r1, r1, #30
2000743a:	1880      	adds	r0, r0, r2
2000743c:	4159      	adcs	r1, r3
2000743e:	bc04      	pop	{r2}
20007440:	4252      	negs	r2, r2
20007442:	323e      	adds	r2, #62	; 0x3e
20007444:	f7ff ff1d 	bl	20007282 <fix642double_shim>
20007448:	bdf0      	pop	{r4, r5, r6, r7, pc}
2000744a:	0000      	.short	0x0000
2000744c:	f473de6b 	.word	0xf473de6b
20007450:	2c5c85fd 	.word	0x2c5c85fd

20007454 <dln_shim>:
20007454:	b5f0      	push	{r4, r5, r6, r7, lr}
20007456:	004f      	lsls	r7, r1, #1
20007458:	d250      	bcs.n	200074fc <dln_shim+0xa8>
2000745a:	157f      	asrs	r7, r7, #21
2000745c:	d04e      	beq.n	200074fc <dln_shim+0xa8>
2000745e:	3701      	adds	r7, #1
20007460:	d04f      	beq.n	20007502 <dln_shim+0xae>
20007462:	f7ff ff49 	bl	200072f8 <dunpacks>
20007466:	b404      	push	{r2}
20007468:	0249      	lsls	r1, r1, #9
2000746a:	0dc2      	lsrs	r2, r0, #23
2000746c:	4311      	orrs	r1, r2
2000746e:	0240      	lsls	r0, r0, #9
20007470:	2701      	movs	r7, #1
20007472:	a62b      	add	r6, pc, #172	; (adr r6, 20007520 <dtab_exp>)
20007474:	46b4      	mov	ip, r6
20007476:	2200      	movs	r2, #0
20007478:	2300      	movs	r3, #0
2000747a:	427e      	negs	r6, r7
2000747c:	3620      	adds	r6, #32
2000747e:	000d      	movs	r5, r1
20007480:	413d      	asrs	r5, r7
20007482:	000c      	movs	r4, r1
20007484:	40b4      	lsls	r4, r6
20007486:	0006      	movs	r6, r0
20007488:	40fe      	lsrs	r6, r7
2000748a:	4334      	orrs	r4, r6
2000748c:	4144      	adcs	r4, r0
2000748e:	414d      	adcs	r5, r1
20007490:	0fae      	lsrs	r6, r5, #30
20007492:	d105      	bne.n	200074a0 <dln_shim+0x4c>
20007494:	0020      	movs	r0, r4
20007496:	0029      	movs	r1, r5
20007498:	4666      	mov	r6, ip
2000749a:	ce30      	ldmia	r6!, {r4, r5}
2000749c:	1b12      	subs	r2, r2, r4
2000749e:	41ab      	sbcs	r3, r5
200074a0:	2408      	movs	r4, #8
200074a2:	44a4      	add	ip, r4
200074a4:	3701      	adds	r7, #1
200074a6:	2f21      	cmp	r7, #33	; 0x21
200074a8:	d1e7      	bne.n	2000747a <dln_shim+0x26>
200074aa:	0089      	lsls	r1, r1, #2
200074ac:	1089      	asrs	r1, r1, #2
200074ae:	1812      	adds	r2, r2, r0
200074b0:	414b      	adcs	r3, r1
200074b2:	bc80      	pop	{r7}
200074b4:	a417      	add	r4, pc, #92	; (adr r4, 20007514 <dreddata1_plus_4>)
200074b6:	cc13      	ldmia	r4, {r0, r1, r4}
200074b8:	3701      	adds	r7, #1
200074ba:	4378      	muls	r0, r7
200074bc:	4379      	muls	r1, r7
200074be:	437c      	muls	r4, r7
200074c0:	054f      	lsls	r7, r1, #21
200074c2:	12c9      	asrs	r1, r1, #11
200074c4:	17cd      	asrs	r5, r1, #31
200074c6:	19c0      	adds	r0, r0, r7
200074c8:	4169      	adcs	r1, r5
200074ca:	02a7      	lsls	r7, r4, #10
200074cc:	15a4      	asrs	r4, r4, #22
200074ce:	17cd      	asrs	r5, r1, #31
200074d0:	19c9      	adds	r1, r1, r7
200074d2:	416c      	adcs	r4, r5
200074d4:	17dd      	asrs	r5, r3, #31
200074d6:	1880      	adds	r0, r0, r2
200074d8:	4159      	adcs	r1, r3
200074da:	416c      	adcs	r4, r5
200074dc:	223e      	movs	r2, #62	; 0x3e
200074de:	17cd      	asrs	r5, r1, #31
200074e0:	42ac      	cmp	r4, r5
200074e2:	d008      	beq.n	200074f6 <dln_shim+0xa2>
200074e4:	0900      	lsrs	r0, r0, #4
200074e6:	070e      	lsls	r6, r1, #28
200074e8:	4330      	orrs	r0, r6
200074ea:	0909      	lsrs	r1, r1, #4
200074ec:	0726      	lsls	r6, r4, #28
200074ee:	4331      	orrs	r1, r6
200074f0:	1124      	asrs	r4, r4, #4
200074f2:	3a04      	subs	r2, #4
200074f4:	e7f3      	b.n	200074de <dln_shim+0x8a>
200074f6:	f7ff fec4 	bl	20007282 <fix642double_shim>
200074fa:	bdf0      	pop	{r4, r5, r6, r7, pc}
200074fc:	4902      	ldr	r1, [pc, #8]	; (20007508 <dln_shim+0xb4>)
200074fe:	2000      	movs	r0, #0
20007500:	bdf0      	pop	{r4, r5, r6, r7, pc}
20007502:	4902      	ldr	r1, [pc, #8]	; (2000750c <dln_shim+0xb8>)
20007504:	2000      	movs	r0, #0
20007506:	bdf0      	pop	{r4, r5, r6, r7, pc}
20007508:	fff00000 	.word	0xfff00000
2000750c:	7ff00000 	.word	0x7ff00000

20007510 <dreddata1>:
20007510:	0000b8aa 	.word	0x0000b8aa

20007514 <dreddata1_plus_4>:
20007514:	0013de6b 	.word	0x0013de6b
20007518:	000fefa3 	.word	0x000fefa3
2000751c:	000b1721 	.word	0x000b1721

20007520 <dtab_exp>:
20007520:	bf984bf3 	.word	0xbf984bf3
20007524:	19f323ec 	.word	0x19f323ec
20007528:	cd4d10d6 	.word	0xcd4d10d6
2000752c:	0e47fbe3 	.word	0x0e47fbe3
20007530:	8abcb97a 	.word	0x8abcb97a
20007534:	0789c1db 	.word	0x0789c1db
20007538:	022c54cc 	.word	0x022c54cc
2000753c:	03e14618 	.word	0x03e14618
20007540:	e7833005 	.word	0xe7833005
20007544:	01f829b0 	.word	0x01f829b0
20007548:	87e01f1e 	.word	0x87e01f1e
2000754c:	00fe0545 	.word	0x00fe0545
20007550:	ac419e24 	.word	0xac419e24
20007554:	007f80a9 	.word	0x007f80a9
20007558:	45621781 	.word	0x45621781
2000755c:	003fe015 	.word	0x003fe015
20007560:	a9ab10e6 	.word	0xa9ab10e6
20007564:	001ff802 	.word	0x001ff802
20007568:	55455888 	.word	0x55455888
2000756c:	000ffe00 	.word	0x000ffe00
20007570:	0aa9aac4 	.word	0x0aa9aac4
20007574:	0007ff80 	.word	0x0007ff80
20007578:	01554556 	.word	0x01554556
2000757c:	0003ffe0 	.word	0x0003ffe0
20007580:	002aa9ab 	.word	0x002aa9ab
20007584:	0001fff8 	.word	0x0001fff8
20007588:	00055545 	.word	0x00055545
2000758c:	0000fffe 	.word	0x0000fffe
20007590:	8000aaaa 	.word	0x8000aaaa
20007594:	00007fff 	.word	0x00007fff
20007598:	e0001555 	.word	0xe0001555
2000759c:	00003fff 	.word	0x00003fff
200075a0:	f80002ab 	.word	0xf80002ab
200075a4:	00001fff 	.word	0x00001fff
200075a8:	fe000055 	.word	0xfe000055
200075ac:	00000fff 	.word	0x00000fff
200075b0:	ff80000b 	.word	0xff80000b
200075b4:	000007ff 	.word	0x000007ff
200075b8:	ffe00001 	.word	0xffe00001
200075bc:	000003ff 	.word	0x000003ff
200075c0:	fff80000 	.word	0xfff80000
200075c4:	000001ff 	.word	0x000001ff
200075c8:	fffe0000 	.word	0xfffe0000
200075cc:	000000ff 	.word	0x000000ff
200075d0:	ffff8000 	.word	0xffff8000
200075d4:	0000007f 	.word	0x0000007f
200075d8:	ffffe000 	.word	0xffffe000
200075dc:	0000003f 	.word	0x0000003f
200075e0:	fffff800 	.word	0xfffff800
200075e4:	0000001f 	.word	0x0000001f
200075e8:	fffffe00 	.word	0xfffffe00
200075ec:	0000000f 	.word	0x0000000f
200075f0:	ffffff80 	.word	0xffffff80
200075f4:	00000007 	.word	0x00000007
200075f8:	ffffffe0 	.word	0xffffffe0
200075fc:	00000003 	.word	0x00000003
20007600:	fffffff8 	.word	0xfffffff8
20007604:	00000001 	.word	0x00000001
20007608:	fffffffe 	.word	0xfffffffe
2000760c:	00000000 	.word	0x00000000
20007610:	80000000 	.word	0x80000000
20007614:	00000000 	.word	0x00000000
20007618:	40000000 	.word	0x40000000
2000761c:	00000000 	.word	0x00000000

20007620 <__wrap___aeabi_lmul>:
20007620:	4351      	muls	r1, r2
20007622:	4343      	muls	r3, r0
20007624:	18c9      	adds	r1, r1, r3
20007626:	468c      	mov	ip, r1
20007628:	0c11      	lsrs	r1, r2, #16
2000762a:	b283      	uxth	r3, r0
2000762c:	434b      	muls	r3, r1
2000762e:	b410      	push	{r4}
20007630:	0c04      	lsrs	r4, r0, #16
20007632:	4361      	muls	r1, r4
20007634:	b292      	uxth	r2, r2
20007636:	b280      	uxth	r0, r0
20007638:	4350      	muls	r0, r2
2000763a:	4362      	muls	r2, r4
2000763c:	041c      	lsls	r4, r3, #16
2000763e:	0c1b      	lsrs	r3, r3, #16
20007640:	1900      	adds	r0, r0, r4
20007642:	bc10      	pop	{r4}
20007644:	4159      	adcs	r1, r3
20007646:	0413      	lsls	r3, r2, #16
20007648:	0c12      	lsrs	r2, r2, #16
2000764a:	18c0      	adds	r0, r0, r3
2000764c:	4151      	adcs	r1, r2
2000764e:	4461      	add	r1, ip
20007650:	4770      	bx	lr
	...

20007654 <__aeabi_float_init>:
20007654:	2313      	movs	r3, #19
20007656:	b510      	push	{r4, lr}
20007658:	4812      	ldr	r0, [pc, #72]	; (200076a4 <__aeabi_float_init+0x50>)
2000765a:	781c      	ldrb	r4, [r3, #0]
2000765c:	f7fe fa38 	bl	20005ad0 <rom_data_lookup>
20007660:	0001      	movs	r1, r0
20007662:	2c01      	cmp	r4, #1
20007664:	d00a      	beq.n	2000767c <__aeabi_float_init+0x28>
20007666:	dd03      	ble.n	20007670 <__aeabi_float_init+0x1c>
20007668:	2280      	movs	r2, #128	; 0x80
2000766a:	480f      	ldr	r0, [pc, #60]	; (200076a8 <__aeabi_float_init+0x54>)
2000766c:	f000 f848 	bl	20007700 <__wrap___aeabi_memcpy>
20007670:	480e      	ldr	r0, [pc, #56]	; (200076ac <__aeabi_float_init+0x58>)
20007672:	f7fe fa25 	bl	20005ac0 <rom_func_lookup>
20007676:	4b0e      	ldr	r3, [pc, #56]	; (200076b0 <__aeabi_float_init+0x5c>)
20007678:	6018      	str	r0, [r3, #0]
2000767a:	bd10      	pop	{r4, pc}
2000767c:	4c0a      	ldr	r4, [pc, #40]	; (200076a8 <__aeabi_float_init+0x54>)
2000767e:	2254      	movs	r2, #84	; 0x54
20007680:	0020      	movs	r0, r4
20007682:	f000 f83d 	bl	20007700 <__wrap___aeabi_memcpy>
20007686:	4b0b      	ldr	r3, [pc, #44]	; (200076b4 <__aeabi_float_init+0x60>)
20007688:	6563      	str	r3, [r4, #84]	; 0x54
2000768a:	65a3      	str	r3, [r4, #88]	; 0x58
2000768c:	65e3      	str	r3, [r4, #92]	; 0x5c
2000768e:	6623      	str	r3, [r4, #96]	; 0x60
20007690:	6663      	str	r3, [r4, #100]	; 0x64
20007692:	66a3      	str	r3, [r4, #104]	; 0x68
20007694:	66e3      	str	r3, [r4, #108]	; 0x6c
20007696:	6723      	str	r3, [r4, #112]	; 0x70
20007698:	6763      	str	r3, [r4, #116]	; 0x74
2000769a:	67a3      	str	r3, [r4, #120]	; 0x78
2000769c:	67e3      	str	r3, [r4, #124]	; 0x7c
2000769e:	6223      	str	r3, [r4, #32]
200076a0:	61e3      	str	r3, [r4, #28]
200076a2:	e7e5      	b.n	20007670 <__aeabi_float_init+0x1c>
200076a4:	00004653 	.word	0x00004653
200076a8:	2001495c 	.word	0x2001495c
200076ac:	0000334c 	.word	0x0000334c
200076b0:	2000d358 	.word	0x2000d358
200076b4:	200076b9 	.word	0x200076b9

200076b8 <float_table_shim_on_use_helper>:
200076b8:	b507      	push	{r0, r1, r2, lr}
200076ba:	4660      	mov	r0, ip
200076bc:	8801      	ldrh	r1, [r0, #0]
200076be:	0a0a      	lsrs	r2, r1, #8
200076c0:	3002      	adds	r0, #2
200076c2:	2adf      	cmp	r2, #223	; 0xdf
200076c4:	d1fa      	bne.n	200076bc <float_table_shim_on_use_helper+0x4>
200076c6:	b2c9      	uxtb	r1, r1
200076c8:	0882      	lsrs	r2, r0, #2
200076ca:	d304      	bcc.n	200076d6 <float_table_shim_on_use_helper+0x1e>
200076cc:	8802      	ldrh	r2, [r0, #0]
200076ce:	8840      	ldrh	r0, [r0, #2]
200076d0:	0400      	lsls	r0, r0, #16
200076d2:	4310      	orrs	r0, r2
200076d4:	e000      	b.n	200076d8 <float_table_shim_on_use_helper+0x20>
200076d6:	6800      	ldr	r0, [r0, #0]
200076d8:	4a01      	ldr	r2, [pc, #4]	; (200076e0 <float_table_shim_on_use_helper+0x28>)
200076da:	5050      	str	r0, [r2, r1]
200076dc:	9003      	str	r0, [sp, #12]
200076de:	bd07      	pop	{r0, r1, r2, pc}
200076e0:	2001495c 	.word	0x2001495c

200076e4 <__aeabi_mem_init>:
200076e4:	4801      	ldr	r0, [pc, #4]	; (200076ec <__aeabi_mem_init+0x8>)
200076e6:	2104      	movs	r1, #4
200076e8:	4b01      	ldr	r3, [pc, #4]	; (200076f0 <__aeabi_mem_init+0xc>)
200076ea:	4718      	bx	r3
200076ec:	2000c800 	.word	0x2000c800
200076f0:	20005ae1 	.word	0x20005ae1

200076f4 <__wrap_memset>:
200076f4:	4b01      	ldr	r3, [pc, #4]	; (200076fc <__wrap_memset+0x8>)
200076f6:	681b      	ldr	r3, [r3, #0]
200076f8:	4718      	bx	r3
200076fa:	0000      	.short	0x0000
200076fc:	2000c800 	.word	0x2000c800

20007700 <__wrap___aeabi_memcpy>:
20007700:	4b01      	ldr	r3, [pc, #4]	; (20007708 <__wrap___aeabi_memcpy+0x8>)
20007702:	685b      	ldr	r3, [r3, #4]
20007704:	4718      	bx	r3
20007706:	0000      	.short	0x0000
20007708:	2000c800 	.word	0x2000c800

2000770c <stdio_out_chars_no_crlf>:
2000770c:	0003      	movs	r3, r0
2000770e:	b510      	push	{r4, lr}
20007710:	0008      	movs	r0, r1
20007712:	681b      	ldr	r3, [r3, #0]
20007714:	0011      	movs	r1, r2
20007716:	4798      	blx	r3
20007718:	bd10      	pop	{r4, pc}
2000771a:	46c0      	nop			; (mov r8, r8)

2000771c <stdio_out_chars_crlf>:
2000771c:	b5f8      	push	{r3, r4, r5, r6, r7, lr}
2000771e:	4647      	mov	r7, r8
20007720:	46ce      	mov	lr, r9
20007722:	b580      	push	{r7, lr}
20007724:	7c43      	ldrb	r3, [r0, #17]
20007726:	0007      	movs	r7, r0
20007728:	000d      	movs	r5, r1
2000772a:	0016      	movs	r6, r2
2000772c:	2b00      	cmp	r3, #0
2000772e:	d037      	beq.n	200077a0 <stdio_out_chars_crlf+0x84>
20007730:	2400      	movs	r4, #0
20007732:	2000      	movs	r0, #0
20007734:	2a00      	cmp	r2, #0
20007736:	dd1e      	ble.n	20007776 <stdio_out_chars_crlf+0x5a>
20007738:	1e4b      	subs	r3, r1, #1
2000773a:	4698      	mov	r8, r3
2000773c:	4b1b      	ldr	r3, [pc, #108]	; (200077ac <stdio_out_chars_crlf+0x90>)
2000773e:	4699      	mov	r9, r3
20007740:	2c00      	cmp	r4, #0
20007742:	d02b      	beq.n	2000779c <stdio_out_chars_crlf+0x80>
20007744:	4643      	mov	r3, r8
20007746:	5d1b      	ldrb	r3, [r3, r4]
20007748:	3b0d      	subs	r3, #13
2000774a:	425a      	negs	r2, r3
2000774c:	4153      	adcs	r3, r2
2000774e:	b2db      	uxtb	r3, r3
20007750:	5d2a      	ldrb	r2, [r5, r4]
20007752:	2a0a      	cmp	r2, #10
20007754:	d013      	beq.n	2000777e <stdio_out_chars_crlf+0x62>
20007756:	3401      	adds	r4, #1
20007758:	42a6      	cmp	r6, r4
2000775a:	dcf1      	bgt.n	20007740 <stdio_out_chars_crlf+0x24>
2000775c:	4286      	cmp	r6, r0
2000775e:	dd03      	ble.n	20007768 <stdio_out_chars_crlf+0x4c>
20007760:	1a31      	subs	r1, r6, r0
20007762:	683b      	ldr	r3, [r7, #0]
20007764:	1828      	adds	r0, r5, r0
20007766:	4798      	blx	r3
20007768:	19ad      	adds	r5, r5, r6
2000776a:	3d01      	subs	r5, #1
2000776c:	782b      	ldrb	r3, [r5, #0]
2000776e:	3b0d      	subs	r3, #13
20007770:	425a      	negs	r2, r3
20007772:	4153      	adcs	r3, r2
20007774:	743b      	strb	r3, [r7, #16]
20007776:	bc0c      	pop	{r2, r3}
20007778:	4690      	mov	r8, r2
2000777a:	4699      	mov	r9, r3
2000777c:	bdf8      	pop	{r3, r4, r5, r6, r7, pc}
2000777e:	2b00      	cmp	r3, #0
20007780:	d1e9      	bne.n	20007756 <stdio_out_chars_crlf+0x3a>
20007782:	42a0      	cmp	r0, r4
20007784:	da03      	bge.n	2000778e <stdio_out_chars_crlf+0x72>
20007786:	1a21      	subs	r1, r4, r0
20007788:	683b      	ldr	r3, [r7, #0]
2000778a:	1828      	adds	r0, r5, r0
2000778c:	4798      	blx	r3
2000778e:	4648      	mov	r0, r9
20007790:	2102      	movs	r1, #2
20007792:	683b      	ldr	r3, [r7, #0]
20007794:	3401      	adds	r4, #1
20007796:	4798      	blx	r3
20007798:	0020      	movs	r0, r4
2000779a:	e7dd      	b.n	20007758 <stdio_out_chars_crlf+0x3c>
2000779c:	7c3b      	ldrb	r3, [r7, #16]
2000779e:	e7d7      	b.n	20007750 <stdio_out_chars_crlf+0x34>
200077a0:	6803      	ldr	r3, [r0, #0]
200077a2:	0011      	movs	r1, r2
200077a4:	0028      	movs	r0, r5
200077a6:	4798      	blx	r3
200077a8:	e7e5      	b.n	20007776 <stdio_out_chars_crlf+0x5a>
200077aa:	46c0      	nop			; (mov r8, r8)
200077ac:	2000c2a4 	.word	0x2000c2a4

200077b0 <stdio_buffered_printer>:
200077b0:	b5f0      	push	{r4, r5, r6, r7, lr}
200077b2:	46c6      	mov	lr, r8
200077b4:	000c      	movs	r4, r1
200077b6:	6809      	ldr	r1, [r1, #0]
200077b8:	0006      	movs	r6, r0
200077ba:	b500      	push	{lr}
200077bc:	2980      	cmp	r1, #128	; 0x80
200077be:	d006      	beq.n	200077ce <stdio_buffered_printer+0x1e>
200077c0:	1c4b      	adds	r3, r1, #1
200077c2:	6023      	str	r3, [r4, #0]
200077c4:	1864      	adds	r4, r4, r1
200077c6:	7126      	strb	r6, [r4, #4]
200077c8:	bc04      	pop	{r2}
200077ca:	4690      	mov	r8, r2
200077cc:	bdf0      	pop	{r4, r5, r6, r7, pc}
200077ce:	4b0f      	ldr	r3, [pc, #60]	; (2000780c <stdio_buffered_printer+0x5c>)
200077d0:	681d      	ldr	r5, [r3, #0]
200077d2:	2d00      	cmp	r5, #0
200077d4:	d016      	beq.n	20007804 <stdio_buffered_printer+0x54>
200077d6:	1d23      	adds	r3, r4, #4
200077d8:	4698      	mov	r8, r3
200077da:	4f0d      	ldr	r7, [pc, #52]	; (20007810 <stdio_buffered_printer+0x60>)
200077dc:	e002      	b.n	200077e4 <stdio_buffered_printer+0x34>
200077de:	68ed      	ldr	r5, [r5, #12]
200077e0:	2d00      	cmp	r5, #0
200077e2:	d00f      	beq.n	20007804 <stdio_buffered_printer+0x54>
200077e4:	682b      	ldr	r3, [r5, #0]
200077e6:	2b00      	cmp	r3, #0
200077e8:	d0f9      	beq.n	200077de <stdio_buffered_printer+0x2e>
200077ea:	683b      	ldr	r3, [r7, #0]
200077ec:	2b00      	cmp	r3, #0
200077ee:	d001      	beq.n	200077f4 <stdio_buffered_printer+0x44>
200077f0:	42ab      	cmp	r3, r5
200077f2:	d1f4      	bne.n	200077de <stdio_buffered_printer+0x2e>
200077f4:	0028      	movs	r0, r5
200077f6:	4641      	mov	r1, r8
200077f8:	6822      	ldr	r2, [r4, #0]
200077fa:	f7ff ff8f 	bl	2000771c <stdio_out_chars_crlf>
200077fe:	68ed      	ldr	r5, [r5, #12]
20007800:	2d00      	cmp	r5, #0
20007802:	d1ef      	bne.n	200077e4 <stdio_buffered_printer+0x34>
20007804:	2301      	movs	r3, #1
20007806:	2100      	movs	r1, #0
20007808:	e7db      	b.n	200077c2 <stdio_buffered_printer+0x12>
2000780a:	46c0      	nop			; (mov r8, r8)
2000780c:	2000cf14 	.word	0x2000cf14
20007810:	2000cf1c 	.word	0x2000cf1c

20007814 <stdio_put_string>:
20007814:	b5f0      	push	{r4, r5, r6, r7, lr}
20007816:	4657      	mov	r7, sl
20007818:	464e      	mov	r6, r9
2000781a:	4645      	mov	r5, r8
2000781c:	46de      	mov	lr, fp
2000781e:	001c      	movs	r4, r3
20007820:	23d0      	movs	r3, #208	; 0xd0
20007822:	b5e0      	push	{r5, r6, r7, lr}
20007824:	061b      	lsls	r3, r3, #24
20007826:	681f      	ldr	r7, [r3, #0]
20007828:	4b35      	ldr	r3, [pc, #212]	; (20007900 <stdio_put_string+0xec>)
2000782a:	b083      	sub	sp, #12
2000782c:	0006      	movs	r6, r0
2000782e:	000d      	movs	r5, r1
20007830:	0018      	movs	r0, r3
20007832:	a901      	add	r1, sp, #4
20007834:	4691      	mov	r9, r2
20007836:	469a      	mov	sl, r3
20007838:	f003 f87e 	bl	2000a938 <mutex_try_enter>
2000783c:	4680      	mov	r8, r0
2000783e:	2800      	cmp	r0, #0
20007840:	d108      	bne.n	20007854 <stdio_put_string+0x40>
20007842:	9b01      	ldr	r3, [sp, #4]
20007844:	b27f      	sxtb	r7, r7
20007846:	429f      	cmp	r7, r3
20007848:	d004      	beq.n	20007854 <stdio_put_string+0x40>
2000784a:	4650      	mov	r0, sl
2000784c:	f003 f850 	bl	2000a8f0 <mutex_enter_blocking>
20007850:	2301      	movs	r3, #1
20007852:	4698      	mov	r8, r3
20007854:	1c6b      	adds	r3, r5, #1
20007856:	d103      	bne.n	20007860 <stdio_put_string+0x4c>
20007858:	0030      	movs	r0, r6
2000785a:	f003 f807 	bl	2000a86c <strlen>
2000785e:	0005      	movs	r5, r0
20007860:	2c00      	cmp	r4, #0
20007862:	d12a      	bne.n	200078ba <stdio_put_string+0xa6>
20007864:	4f27      	ldr	r7, [pc, #156]	; (20007904 <stdio_put_string+0xf0>)
20007866:	4b28      	ldr	r3, [pc, #160]	; (20007908 <stdio_put_string+0xf4>)
20007868:	681c      	ldr	r4, [r3, #0]
2000786a:	2c00      	cmp	r4, #0
2000786c:	d018      	beq.n	200078a0 <stdio_put_string+0x8c>
2000786e:	464b      	mov	r3, r9
20007870:	2b00      	cmp	r3, #0
20007872:	d124      	bne.n	200078be <stdio_put_string+0xaa>
20007874:	4b25      	ldr	r3, [pc, #148]	; (2000790c <stdio_put_string+0xf8>)
20007876:	4699      	mov	r9, r3
20007878:	e002      	b.n	20007880 <stdio_put_string+0x6c>
2000787a:	68e4      	ldr	r4, [r4, #12]
2000787c:	2c00      	cmp	r4, #0
2000787e:	d00f      	beq.n	200078a0 <stdio_put_string+0x8c>
20007880:	6823      	ldr	r3, [r4, #0]
20007882:	2b00      	cmp	r3, #0
20007884:	d0f9      	beq.n	2000787a <stdio_put_string+0x66>
20007886:	464b      	mov	r3, r9
20007888:	681b      	ldr	r3, [r3, #0]
2000788a:	2b00      	cmp	r3, #0
2000788c:	d001      	beq.n	20007892 <stdio_put_string+0x7e>
2000788e:	42a3      	cmp	r3, r4
20007890:	d1f3      	bne.n	2000787a <stdio_put_string+0x66>
20007892:	0020      	movs	r0, r4
20007894:	002a      	movs	r2, r5
20007896:	0031      	movs	r1, r6
20007898:	47b8      	blx	r7
2000789a:	68e4      	ldr	r4, [r4, #12]
2000789c:	2c00      	cmp	r4, #0
2000789e:	d1ef      	bne.n	20007880 <stdio_put_string+0x6c>
200078a0:	4643      	mov	r3, r8
200078a2:	2b00      	cmp	r3, #0
200078a4:	d128      	bne.n	200078f8 <stdio_put_string+0xe4>
200078a6:	1e68      	subs	r0, r5, #1
200078a8:	4185      	sbcs	r5, r0
200078aa:	b2e8      	uxtb	r0, r5
200078ac:	b003      	add	sp, #12
200078ae:	bc3c      	pop	{r2, r3, r4, r5}
200078b0:	4690      	mov	r8, r2
200078b2:	4699      	mov	r9, r3
200078b4:	46a2      	mov	sl, r4
200078b6:	46ab      	mov	fp, r5
200078b8:	bdf0      	pop	{r4, r5, r6, r7, pc}
200078ba:	4f15      	ldr	r7, [pc, #84]	; (20007910 <stdio_put_string+0xfc>)
200078bc:	e7d3      	b.n	20007866 <stdio_put_string+0x52>
200078be:	4b13      	ldr	r3, [pc, #76]	; (2000790c <stdio_put_string+0xf8>)
200078c0:	4699      	mov	r9, r3
200078c2:	230a      	movs	r3, #10
200078c4:	469b      	mov	fp, r3
200078c6:	e002      	b.n	200078ce <stdio_put_string+0xba>
200078c8:	68e4      	ldr	r4, [r4, #12]
200078ca:	2c00      	cmp	r4, #0
200078cc:	d0e8      	beq.n	200078a0 <stdio_put_string+0x8c>
200078ce:	6823      	ldr	r3, [r4, #0]
200078d0:	2b00      	cmp	r3, #0
200078d2:	d0f9      	beq.n	200078c8 <stdio_put_string+0xb4>
200078d4:	464b      	mov	r3, r9
200078d6:	681b      	ldr	r3, [r3, #0]
200078d8:	2b00      	cmp	r3, #0
200078da:	d001      	beq.n	200078e0 <stdio_put_string+0xcc>
200078dc:	42a3      	cmp	r3, r4
200078de:	d1f3      	bne.n	200078c8 <stdio_put_string+0xb4>
200078e0:	002a      	movs	r2, r5
200078e2:	0031      	movs	r1, r6
200078e4:	0020      	movs	r0, r4
200078e6:	47b8      	blx	r7
200078e8:	465a      	mov	r2, fp
200078ea:	466b      	mov	r3, sp
200078ec:	0020      	movs	r0, r4
200078ee:	711a      	strb	r2, [r3, #4]
200078f0:	a901      	add	r1, sp, #4
200078f2:	2201      	movs	r2, #1
200078f4:	47b8      	blx	r7
200078f6:	e7e7      	b.n	200078c8 <stdio_put_string+0xb4>
200078f8:	4650      	mov	r0, sl
200078fa:	f003 f88d 	bl	2000aa18 <mutex_exit>
200078fe:	e7d2      	b.n	200078a6 <stdio_put_string+0x92>
20007900:	2000c86c 	.word	0x2000c86c
20007904:	2000771d 	.word	0x2000771d
20007908:	2000cf14 	.word	0x2000cf14
2000790c:	2000cf1c 	.word	0x2000cf1c
20007910:	2000770d 	.word	0x2000770d

20007914 <__wrap_putchar>:
20007914:	b5f0      	push	{r4, r5, r6, r7, lr}
20007916:	4647      	mov	r7, r8
20007918:	46ce      	mov	lr, r9
2000791a:	b580      	push	{r7, lr}
2000791c:	b083      	sub	sp, #12
2000791e:	466b      	mov	r3, sp
20007920:	1cdf      	adds	r7, r3, #3
20007922:	23d0      	movs	r3, #208	; 0xd0
20007924:	7038      	strb	r0, [r7, #0]
20007926:	061b      	lsls	r3, r3, #24
20007928:	681c      	ldr	r4, [r3, #0]
2000792a:	4b20      	ldr	r3, [pc, #128]	; (200079ac <__wrap_putchar+0x98>)
2000792c:	0006      	movs	r6, r0
2000792e:	a901      	add	r1, sp, #4
20007930:	0018      	movs	r0, r3
20007932:	4698      	mov	r8, r3
20007934:	f003 f800 	bl	2000a938 <mutex_try_enter>
20007938:	1e05      	subs	r5, r0, #0
2000793a:	d022      	beq.n	20007982 <__wrap_putchar+0x6e>
2000793c:	4b1c      	ldr	r3, [pc, #112]	; (200079b0 <__wrap_putchar+0x9c>)
2000793e:	681c      	ldr	r4, [r3, #0]
20007940:	2c00      	cmp	r4, #0
20007942:	d02a      	beq.n	2000799a <__wrap_putchar+0x86>
20007944:	4b1b      	ldr	r3, [pc, #108]	; (200079b4 <__wrap_putchar+0xa0>)
20007946:	4699      	mov	r9, r3
20007948:	e002      	b.n	20007950 <__wrap_putchar+0x3c>
2000794a:	68e4      	ldr	r4, [r4, #12]
2000794c:	2c00      	cmp	r4, #0
2000794e:	d010      	beq.n	20007972 <__wrap_putchar+0x5e>
20007950:	6823      	ldr	r3, [r4, #0]
20007952:	2b00      	cmp	r3, #0
20007954:	d0f9      	beq.n	2000794a <__wrap_putchar+0x36>
20007956:	464b      	mov	r3, r9
20007958:	681b      	ldr	r3, [r3, #0]
2000795a:	2b00      	cmp	r3, #0
2000795c:	d001      	beq.n	20007962 <__wrap_putchar+0x4e>
2000795e:	42a3      	cmp	r3, r4
20007960:	d1f3      	bne.n	2000794a <__wrap_putchar+0x36>
20007962:	0020      	movs	r0, r4
20007964:	2201      	movs	r2, #1
20007966:	0039      	movs	r1, r7
20007968:	f7ff fed8 	bl	2000771c <stdio_out_chars_crlf>
2000796c:	68e4      	ldr	r4, [r4, #12]
2000796e:	2c00      	cmp	r4, #0
20007970:	d1ee      	bne.n	20007950 <__wrap_putchar+0x3c>
20007972:	2d00      	cmp	r5, #0
20007974:	d111      	bne.n	2000799a <__wrap_putchar+0x86>
20007976:	0030      	movs	r0, r6
20007978:	b003      	add	sp, #12
2000797a:	bc0c      	pop	{r2, r3}
2000797c:	4690      	mov	r8, r2
2000797e:	4699      	mov	r9, r3
20007980:	bdf0      	pop	{r4, r5, r6, r7, pc}
20007982:	9b01      	ldr	r3, [sp, #4]
20007984:	b264      	sxtb	r4, r4
20007986:	429c      	cmp	r4, r3
20007988:	d00b      	beq.n	200079a2 <__wrap_putchar+0x8e>
2000798a:	4640      	mov	r0, r8
2000798c:	f002 ffb0 	bl	2000a8f0 <mutex_enter_blocking>
20007990:	4b07      	ldr	r3, [pc, #28]	; (200079b0 <__wrap_putchar+0x9c>)
20007992:	2501      	movs	r5, #1
20007994:	681c      	ldr	r4, [r3, #0]
20007996:	2c00      	cmp	r4, #0
20007998:	d1d4      	bne.n	20007944 <__wrap_putchar+0x30>
2000799a:	4640      	mov	r0, r8
2000799c:	f003 f83c 	bl	2000aa18 <mutex_exit>
200079a0:	e7e9      	b.n	20007976 <__wrap_putchar+0x62>
200079a2:	4b03      	ldr	r3, [pc, #12]	; (200079b0 <__wrap_putchar+0x9c>)
200079a4:	681c      	ldr	r4, [r3, #0]
200079a6:	2c00      	cmp	r4, #0
200079a8:	d1cc      	bne.n	20007944 <__wrap_putchar+0x30>
200079aa:	e7e4      	b.n	20007976 <__wrap_putchar+0x62>
200079ac:	2000c86c 	.word	0x2000c86c
200079b0:	2000cf14 	.word	0x2000cf14
200079b4:	2000cf1c 	.word	0x2000cf1c

200079b8 <__wrap_puts>:
200079b8:	b570      	push	{r4, r5, r6, lr}
200079ba:	0004      	movs	r4, r0
200079bc:	f002 ff56 	bl	2000a86c <strlen>
200079c0:	2300      	movs	r3, #0
200079c2:	0001      	movs	r1, r0
200079c4:	0005      	movs	r5, r0
200079c6:	2201      	movs	r2, #1
200079c8:	0020      	movs	r0, r4
200079ca:	f7ff ff23 	bl	20007814 <stdio_put_string>
200079ce:	4b08      	ldr	r3, [pc, #32]	; (200079f0 <__wrap_puts+0x38>)
200079d0:	681c      	ldr	r4, [r3, #0]
200079d2:	2c00      	cmp	r4, #0
200079d4:	d006      	beq.n	200079e4 <__wrap_puts+0x2c>
200079d6:	6863      	ldr	r3, [r4, #4]
200079d8:	2b00      	cmp	r3, #0
200079da:	d005      	beq.n	200079e8 <__wrap_puts+0x30>
200079dc:	4798      	blx	r3
200079de:	68e4      	ldr	r4, [r4, #12]
200079e0:	2c00      	cmp	r4, #0
200079e2:	d1f8      	bne.n	200079d6 <__wrap_puts+0x1e>
200079e4:	0028      	movs	r0, r5
200079e6:	bd70      	pop	{r4, r5, r6, pc}
200079e8:	68e4      	ldr	r4, [r4, #12]
200079ea:	2c00      	cmp	r4, #0
200079ec:	d1f3      	bne.n	200079d6 <__wrap_puts+0x1e>
200079ee:	e7f9      	b.n	200079e4 <__wrap_puts+0x2c>
200079f0:	2000cf14 	.word	0x2000cf14

200079f4 <stdio_set_driver_enabled>:
200079f4:	4a0a      	ldr	r2, [pc, #40]	; (20007a20 <stdio_set_driver_enabled+0x2c>)
200079f6:	6813      	ldr	r3, [r2, #0]
200079f8:	2b00      	cmp	r3, #0
200079fa:	d105      	bne.n	20007a08 <stdio_set_driver_enabled+0x14>
200079fc:	e00c      	b.n	20007a18 <stdio_set_driver_enabled+0x24>
200079fe:	001a      	movs	r2, r3
20007a00:	68db      	ldr	r3, [r3, #12]
20007a02:	320c      	adds	r2, #12
20007a04:	2b00      	cmp	r3, #0
20007a06:	d007      	beq.n	20007a18 <stdio_set_driver_enabled+0x24>
20007a08:	4298      	cmp	r0, r3
20007a0a:	d1f8      	bne.n	200079fe <stdio_set_driver_enabled+0xa>
20007a0c:	2900      	cmp	r1, #0
20007a0e:	d102      	bne.n	20007a16 <stdio_set_driver_enabled+0x22>
20007a10:	68c3      	ldr	r3, [r0, #12]
20007a12:	6013      	str	r3, [r2, #0]
20007a14:	60c1      	str	r1, [r0, #12]
20007a16:	4770      	bx	lr
20007a18:	2900      	cmp	r1, #0
20007a1a:	d0fc      	beq.n	20007a16 <stdio_set_driver_enabled+0x22>
20007a1c:	6010      	str	r0, [r2, #0]
20007a1e:	e7fa      	b.n	20007a16 <stdio_set_driver_enabled+0x22>
20007a20:	2000cf14 	.word	0x2000cf14

20007a24 <stdio_flush>:
20007a24:	4b08      	ldr	r3, [pc, #32]	; (20007a48 <stdio_flush+0x24>)
20007a26:	b510      	push	{r4, lr}
20007a28:	681c      	ldr	r4, [r3, #0]
20007a2a:	2c00      	cmp	r4, #0
20007a2c:	d006      	beq.n	20007a3c <stdio_flush+0x18>
20007a2e:	6863      	ldr	r3, [r4, #4]
20007a30:	2b00      	cmp	r3, #0
20007a32:	d004      	beq.n	20007a3e <stdio_flush+0x1a>
20007a34:	4798      	blx	r3
20007a36:	68e4      	ldr	r4, [r4, #12]
20007a38:	2c00      	cmp	r4, #0
20007a3a:	d1f8      	bne.n	20007a2e <stdio_flush+0xa>
20007a3c:	bd10      	pop	{r4, pc}
20007a3e:	68e4      	ldr	r4, [r4, #12]
20007a40:	2c00      	cmp	r4, #0
20007a42:	d1f4      	bne.n	20007a2e <stdio_flush+0xa>
20007a44:	e7fa      	b.n	20007a3c <stdio_flush+0x18>
20007a46:	46c0      	nop			; (mov r8, r8)
20007a48:	2000cf14 	.word	0x2000cf14

20007a4c <__wrap_vprintf>:
20007a4c:	b5f0      	push	{r4, r5, r6, r7, lr}
20007a4e:	4647      	mov	r7, r8
20007a50:	46ce      	mov	lr, r9
20007a52:	23d0      	movs	r3, #208	; 0xd0
20007a54:	b580      	push	{r7, lr}
20007a56:	061b      	lsls	r3, r3, #24
20007a58:	681d      	ldr	r5, [r3, #0]
20007a5a:	4b2e      	ldr	r3, [pc, #184]	; (20007b14 <__wrap_vprintf+0xc8>)
20007a5c:	b0a5      	sub	sp, #148	; 0x94
20007a5e:	0007      	movs	r7, r0
20007a60:	000c      	movs	r4, r1
20007a62:	0018      	movs	r0, r3
20007a64:	a903      	add	r1, sp, #12
20007a66:	4698      	mov	r8, r3
20007a68:	f002 ff66 	bl	2000a938 <mutex_try_enter>
20007a6c:	1e06      	subs	r6, r0, #0
20007a6e:	d107      	bne.n	20007a80 <__wrap_vprintf+0x34>
20007a70:	9b03      	ldr	r3, [sp, #12]
20007a72:	b26d      	sxtb	r5, r5
20007a74:	429d      	cmp	r5, r3
20007a76:	d003      	beq.n	20007a80 <__wrap_vprintf+0x34>
20007a78:	4640      	mov	r0, r8
20007a7a:	f002 ff39 	bl	2000a8f0 <mutex_enter_blocking>
20007a7e:	3601      	adds	r6, #1
20007a80:	2284      	movs	r2, #132	; 0x84
20007a82:	2100      	movs	r1, #0
20007a84:	a803      	add	r0, sp, #12
20007a86:	f7ff fe35 	bl	200076f4 <__wrap_memset>
20007a8a:	0023      	movs	r3, r4
20007a8c:	003a      	movs	r2, r7
20007a8e:	4822      	ldr	r0, [pc, #136]	; (20007b18 <__wrap_vprintf+0xcc>)
20007a90:	a903      	add	r1, sp, #12
20007a92:	f7fd ffe5 	bl	20005a60 <vfctprintf>
20007a96:	9b03      	ldr	r3, [sp, #12]
20007a98:	0007      	movs	r7, r0
20007a9a:	2b00      	cmp	r3, #0
20007a9c:	d114      	bne.n	20007ac8 <__wrap_vprintf+0x7c>
20007a9e:	4b1f      	ldr	r3, [pc, #124]	; (20007b1c <__wrap_vprintf+0xd0>)
20007aa0:	681c      	ldr	r4, [r3, #0]
20007aa2:	2c00      	cmp	r4, #0
20007aa4:	d006      	beq.n	20007ab4 <__wrap_vprintf+0x68>
20007aa6:	6863      	ldr	r3, [r4, #4]
20007aa8:	2b00      	cmp	r3, #0
20007aaa:	d00b      	beq.n	20007ac4 <__wrap_vprintf+0x78>
20007aac:	4798      	blx	r3
20007aae:	68e4      	ldr	r4, [r4, #12]
20007ab0:	2c00      	cmp	r4, #0
20007ab2:	d1f8      	bne.n	20007aa6 <__wrap_vprintf+0x5a>
20007ab4:	2e00      	cmp	r6, #0
20007ab6:	d127      	bne.n	20007b08 <__wrap_vprintf+0xbc>
20007ab8:	0038      	movs	r0, r7
20007aba:	b025      	add	sp, #148	; 0x94
20007abc:	bc0c      	pop	{r2, r3}
20007abe:	4690      	mov	r8, r2
20007ac0:	4699      	mov	r9, r3
20007ac2:	bdf0      	pop	{r4, r5, r6, r7, pc}
20007ac4:	68e4      	ldr	r4, [r4, #12]
20007ac6:	e7ec      	b.n	20007aa2 <__wrap_vprintf+0x56>
20007ac8:	4b14      	ldr	r3, [pc, #80]	; (20007b1c <__wrap_vprintf+0xd0>)
20007aca:	681d      	ldr	r5, [r3, #0]
20007acc:	4699      	mov	r9, r3
20007ace:	2d00      	cmp	r5, #0
20007ad0:	d01e      	beq.n	20007b10 <__wrap_vprintf+0xc4>
20007ad2:	4c13      	ldr	r4, [pc, #76]	; (20007b20 <__wrap_vprintf+0xd4>)
20007ad4:	e002      	b.n	20007adc <__wrap_vprintf+0x90>
20007ad6:	68ed      	ldr	r5, [r5, #12]
20007ad8:	2d00      	cmp	r5, #0
20007ada:	d011      	beq.n	20007b00 <__wrap_vprintf+0xb4>
20007adc:	682b      	ldr	r3, [r5, #0]
20007ade:	2b00      	cmp	r3, #0
20007ae0:	d0f9      	beq.n	20007ad6 <__wrap_vprintf+0x8a>
20007ae2:	6823      	ldr	r3, [r4, #0]
20007ae4:	2b00      	cmp	r3, #0
20007ae6:	d001      	beq.n	20007aec <__wrap_vprintf+0xa0>
20007ae8:	42ab      	cmp	r3, r5
20007aea:	d1f4      	bne.n	20007ad6 <__wrap_vprintf+0x8a>
20007aec:	9b03      	ldr	r3, [sp, #12]
20007aee:	0028      	movs	r0, r5
20007af0:	001a      	movs	r2, r3
20007af2:	a904      	add	r1, sp, #16
20007af4:	9301      	str	r3, [sp, #4]
20007af6:	f7ff fe11 	bl	2000771c <stdio_out_chars_crlf>
20007afa:	68ed      	ldr	r5, [r5, #12]
20007afc:	2d00      	cmp	r5, #0
20007afe:	d1ed      	bne.n	20007adc <__wrap_vprintf+0x90>
20007b00:	464b      	mov	r3, r9
20007b02:	9503      	str	r5, [sp, #12]
20007b04:	681c      	ldr	r4, [r3, #0]
20007b06:	e7cc      	b.n	20007aa2 <__wrap_vprintf+0x56>
20007b08:	4640      	mov	r0, r8
20007b0a:	f002 ff85 	bl	2000aa18 <mutex_exit>
20007b0e:	e7d3      	b.n	20007ab8 <__wrap_vprintf+0x6c>
20007b10:	9503      	str	r5, [sp, #12]
20007b12:	e7cf      	b.n	20007ab4 <__wrap_vprintf+0x68>
20007b14:	2000c86c 	.word	0x2000c86c
20007b18:	200077b1 	.word	0x200077b1
20007b1c:	2000cf14 	.word	0x2000cf14
20007b20:	2000cf1c 	.word	0x2000cf1c

20007b24 <__wrap_printf>:
20007b24:	b40f      	push	{r0, r1, r2, r3}
20007b26:	b500      	push	{lr}
20007b28:	b083      	sub	sp, #12
20007b2a:	a904      	add	r1, sp, #16
20007b2c:	c901      	ldmia	r1!, {r0}
20007b2e:	9101      	str	r1, [sp, #4]
20007b30:	f7ff ff8c 	bl	20007a4c <__wrap_vprintf>
20007b34:	b003      	add	sp, #12
20007b36:	bc08      	pop	{r3}
20007b38:	b004      	add	sp, #16
20007b3a:	4718      	bx	r3

20007b3c <stdio_init_all>:
20007b3c:	b510      	push	{r4, lr}
20007b3e:	f000 f897 	bl	20007c70 <stdio_uart_init>
20007b42:	f000 f9f9 	bl	20007f38 <stdio_usb_init>
20007b46:	bd10      	pop	{r4, pc}

20007b48 <getchar_timeout_us>:
20007b48:	b5f0      	push	{r4, r5, r6, r7, lr}
20007b4a:	46ce      	mov	lr, r9
20007b4c:	4647      	mov	r7, r8
20007b4e:	b580      	push	{r7, lr}
20007b50:	b083      	sub	sp, #12
20007b52:	0006      	movs	r6, r0
20007b54:	f7fb fd6e 	bl	20003634 <time_us_64>
20007b58:	0034      	movs	r4, r6
20007b5a:	0002      	movs	r2, r0
20007b5c:	000b      	movs	r3, r1
20007b5e:	2500      	movs	r5, #0
20007b60:	18a4      	adds	r4, r4, r2
20007b62:	415d      	adcs	r5, r3
20007b64:	42a9      	cmp	r1, r5
20007b66:	d835      	bhi.n	20007bd4 <getchar_timeout_us+0x8c>
20007b68:	d032      	beq.n	20007bd0 <getchar_timeout_us+0x88>
20007b6a:	002f      	movs	r7, r5
20007b6c:	4b1c      	ldr	r3, [pc, #112]	; (20007be0 <getchar_timeout_us+0x98>)
20007b6e:	4699      	mov	r9, r3
20007b70:	4b1c      	ldr	r3, [pc, #112]	; (20007be4 <getchar_timeout_us+0x9c>)
20007b72:	4698      	mov	r8, r3
20007b74:	464b      	mov	r3, r9
20007b76:	681e      	ldr	r6, [r3, #0]
20007b78:	2e00      	cmp	r6, #0
20007b7a:	d103      	bne.n	20007b84 <getchar_timeout_us+0x3c>
20007b7c:	e017      	b.n	20007bae <getchar_timeout_us+0x66>
20007b7e:	68f6      	ldr	r6, [r6, #12]
20007b80:	2e00      	cmp	r6, #0
20007b82:	d014      	beq.n	20007bae <getchar_timeout_us+0x66>
20007b84:	4643      	mov	r3, r8
20007b86:	681b      	ldr	r3, [r3, #0]
20007b88:	2b00      	cmp	r3, #0
20007b8a:	d001      	beq.n	20007b90 <getchar_timeout_us+0x48>
20007b8c:	42b3      	cmp	r3, r6
20007b8e:	d1f6      	bne.n	20007b7e <getchar_timeout_us+0x36>
20007b90:	68b3      	ldr	r3, [r6, #8]
20007b92:	2b00      	cmp	r3, #0
20007b94:	d0f3      	beq.n	20007b7e <getchar_timeout_us+0x36>
20007b96:	2101      	movs	r1, #1
20007b98:	a801      	add	r0, sp, #4
20007b9a:	4798      	blx	r3
20007b9c:	2800      	cmp	r0, #0
20007b9e:	ddee      	ble.n	20007b7e <getchar_timeout_us+0x36>
20007ba0:	466b      	mov	r3, sp
20007ba2:	7918      	ldrb	r0, [r3, #4]
20007ba4:	b003      	add	sp, #12
20007ba6:	bc0c      	pop	{r2, r3}
20007ba8:	4690      	mov	r8, r2
20007baa:	4699      	mov	r9, r3
20007bac:	bdf0      	pop	{r4, r5, r6, r7, pc}
20007bae:	4b0e      	ldr	r3, [pc, #56]	; (20007be8 <getchar_timeout_us+0xa0>)
20007bb0:	6a5a      	ldr	r2, [r3, #36]	; 0x24
20007bb2:	42ba      	cmp	r2, r7
20007bb4:	d307      	bcc.n	20007bc6 <getchar_timeout_us+0x7e>
20007bb6:	6a9b      	ldr	r3, [r3, #40]	; 0x28
20007bb8:	42a3      	cmp	r3, r4
20007bba:	d201      	bcs.n	20007bc0 <getchar_timeout_us+0x78>
20007bbc:	42ba      	cmp	r2, r7
20007bbe:	d002      	beq.n	20007bc6 <getchar_timeout_us+0x7e>
20007bc0:	2001      	movs	r0, #1
20007bc2:	4240      	negs	r0, r0
20007bc4:	e7ee      	b.n	20007ba4 <getchar_timeout_us+0x5c>
20007bc6:	2001      	movs	r0, #1
20007bc8:	2100      	movs	r1, #0
20007bca:	f7fb fd3d 	bl	20003648 <busy_wait_us>
20007bce:	e7d1      	b.n	20007b74 <getchar_timeout_us+0x2c>
20007bd0:	42a0      	cmp	r0, r4
20007bd2:	d9ca      	bls.n	20007b6a <getchar_timeout_us+0x22>
20007bd4:	2701      	movs	r7, #1
20007bd6:	2401      	movs	r4, #1
20007bd8:	4264      	negs	r4, r4
20007bda:	17e5      	asrs	r5, r4, #31
20007bdc:	427f      	negs	r7, r7
20007bde:	e7c5      	b.n	20007b6c <getchar_timeout_us+0x24>
20007be0:	2000cf14 	.word	0x2000cf14
20007be4:	2000cf1c 	.word	0x2000cf1c
20007be8:	40054000 	.word	0x40054000

20007bec <stdio_uart_out_chars>:
20007bec:	b5f0      	push	{r4, r5, r6, r7, lr}
20007bee:	1e0d      	subs	r5, r1, #0
20007bf0:	dd15      	ble.n	20007c1e <stdio_uart_out_chars+0x32>
20007bf2:	4b0e      	ldr	r3, [pc, #56]	; (20007c2c <stdio_uart_out_chars+0x40>)
20007bf4:	270d      	movs	r7, #13
20007bf6:	681a      	ldr	r2, [r3, #0]
20007bf8:	4b0d      	ldr	r3, [pc, #52]	; (20007c30 <stdio_uart_out_chars+0x44>)
20007bfa:	1945      	adds	r5, r0, r5
20007bfc:	18d3      	adds	r3, r2, r3
20007bfe:	4259      	negs	r1, r3
20007c00:	414b      	adcs	r3, r1
20007c02:	490c      	ldr	r1, [pc, #48]	; (20007c34 <stdio_uart_out_chars+0x48>)
20007c04:	005b      	lsls	r3, r3, #1
20007c06:	5e5e      	ldrsh	r6, [r3, r1]
20007c08:	2120      	movs	r1, #32
20007c0a:	7804      	ldrb	r4, [r0, #0]
20007c0c:	42a6      	cmp	r6, r4
20007c0e:	d007      	beq.n	20007c20 <stdio_uart_out_chars+0x34>
20007c10:	6993      	ldr	r3, [r2, #24]
20007c12:	4219      	tst	r1, r3
20007c14:	d1fc      	bne.n	20007c10 <stdio_uart_out_chars+0x24>
20007c16:	3001      	adds	r0, #1
20007c18:	6014      	str	r4, [r2, #0]
20007c1a:	42a8      	cmp	r0, r5
20007c1c:	d1f5      	bne.n	20007c0a <stdio_uart_out_chars+0x1e>
20007c1e:	bdf0      	pop	{r4, r5, r6, r7, pc}
20007c20:	6993      	ldr	r3, [r2, #24]
20007c22:	4219      	tst	r1, r3
20007c24:	d1fc      	bne.n	20007c20 <stdio_uart_out_chars+0x34>
20007c26:	6017      	str	r7, [r2, #0]
20007c28:	e7f2      	b.n	20007c10 <stdio_uart_out_chars+0x24>
20007c2a:	46c0      	nop			; (mov r8, r8)
20007c2c:	2000d3a8 	.word	0x2000d3a8
20007c30:	bffc8000 	.word	0xbffc8000
20007c34:	20014858 	.word	0x20014858

20007c38 <stdio_uart_in_chars>:
20007c38:	b530      	push	{r4, r5, lr}
20007c3a:	0005      	movs	r5, r0
20007c3c:	2900      	cmp	r1, #0
20007c3e:	dd12      	ble.n	20007c66 <stdio_uart_in_chars+0x2e>
20007c40:	2000      	movs	r0, #0
20007c42:	2410      	movs	r4, #16
20007c44:	4b09      	ldr	r3, [pc, #36]	; (20007c6c <stdio_uart_in_chars+0x34>)
20007c46:	3d01      	subs	r5, #1
20007c48:	681a      	ldr	r2, [r3, #0]
20007c4a:	6993      	ldr	r3, [r2, #24]
20007c4c:	421c      	tst	r4, r3
20007c4e:	d108      	bne.n	20007c62 <stdio_uart_in_chars+0x2a>
20007c50:	3001      	adds	r0, #1
20007c52:	6993      	ldr	r3, [r2, #24]
20007c54:	421c      	tst	r4, r3
20007c56:	d1fc      	bne.n	20007c52 <stdio_uart_in_chars+0x1a>
20007c58:	6813      	ldr	r3, [r2, #0]
20007c5a:	542b      	strb	r3, [r5, r0]
20007c5c:	4281      	cmp	r1, r0
20007c5e:	d1f4      	bne.n	20007c4a <stdio_uart_in_chars+0x12>
20007c60:	bd30      	pop	{r4, r5, pc}
20007c62:	2800      	cmp	r0, #0
20007c64:	d1fc      	bne.n	20007c60 <stdio_uart_in_chars+0x28>
20007c66:	2003      	movs	r0, #3
20007c68:	4240      	negs	r0, r0
20007c6a:	e7f9      	b.n	20007c60 <stdio_uart_in_chars+0x28>
20007c6c:	2000d3a8 	.word	0x2000d3a8

20007c70 <stdio_uart_init>:
20007c70:	21e1      	movs	r1, #225	; 0xe1
20007c72:	b510      	push	{r4, lr}
20007c74:	4b0b      	ldr	r3, [pc, #44]	; (20007ca4 <stdio_uart_init+0x34>)
20007c76:	480c      	ldr	r0, [pc, #48]	; (20007ca8 <stdio_uart_init+0x38>)
20007c78:	781b      	ldrb	r3, [r3, #0]
20007c7a:	4b0c      	ldr	r3, [pc, #48]	; (20007cac <stdio_uart_init+0x3c>)
20007c7c:	0249      	lsls	r1, r1, #9
20007c7e:	781b      	ldrb	r3, [r3, #0]
20007c80:	4b0b      	ldr	r3, [pc, #44]	; (20007cb0 <stdio_uart_init+0x40>)
20007c82:	6018      	str	r0, [r3, #0]
20007c84:	f7fc f80e 	bl	20003ca4 <uart_init>
20007c88:	2102      	movs	r1, #2
20007c8a:	2000      	movs	r0, #0
20007c8c:	f7fa fc9c 	bl	200025c8 <gpio_set_function>
20007c90:	2102      	movs	r1, #2
20007c92:	2001      	movs	r0, #1
20007c94:	f7fa fc98 	bl	200025c8 <gpio_set_function>
20007c98:	2101      	movs	r1, #1
20007c9a:	4806      	ldr	r0, [pc, #24]	; (20007cb4 <stdio_uart_init+0x44>)
20007c9c:	f7ff feaa 	bl	200079f4 <stdio_set_driver_enabled>
20007ca0:	bd10      	pop	{r4, pc}
20007ca2:	46c0      	nop			; (mov r8, r8)
20007ca4:	10000300 	.word	0x10000300
20007ca8:	40034000 	.word	0x40034000
20007cac:	10000304 	.word	0x10000304
20007cb0:	2000d3a8 	.word	0x2000d3a8
20007cb4:	2000c810 	.word	0x2000c810

20007cb8 <resetd_init>:
20007cb8:	4770      	bx	lr
20007cba:	46c0      	nop			; (mov r8, r8)

20007cbc <resetd_reset>:
20007cbc:	2200      	movs	r2, #0
20007cbe:	4b01      	ldr	r3, [pc, #4]	; (20007cc4 <resetd_reset+0x8>)
20007cc0:	701a      	strb	r2, [r3, #0]
20007cc2:	4770      	bx	lr
20007cc4:	2000d3c7 	.word	0x2000d3c7

20007cc8 <resetd_open>:
20007cc8:	794b      	ldrb	r3, [r1, #5]
20007cca:	2000      	movs	r0, #0
20007ccc:	2bff      	cmp	r3, #255	; 0xff
20007cce:	d10b      	bne.n	20007ce8 <resetd_open+0x20>
20007cd0:	798b      	ldrb	r3, [r1, #6]
20007cd2:	2b00      	cmp	r3, #0
20007cd4:	d108      	bne.n	20007ce8 <resetd_open+0x20>
20007cd6:	79cb      	ldrb	r3, [r1, #7]
20007cd8:	2b01      	cmp	r3, #1
20007cda:	d105      	bne.n	20007ce8 <resetd_open+0x20>
20007cdc:	2a08      	cmp	r2, #8
20007cde:	d903      	bls.n	20007ce8 <resetd_open+0x20>
20007ce0:	788a      	ldrb	r2, [r1, #2]
20007ce2:	4b02      	ldr	r3, [pc, #8]	; (20007cec <resetd_open+0x24>)
20007ce4:	3009      	adds	r0, #9
20007ce6:	701a      	strb	r2, [r3, #0]
20007ce8:	4770      	bx	lr
20007cea:	46c0      	nop			; (mov r8, r8)
20007cec:	2000d3c7 	.word	0x2000d3c7

20007cf0 <resetd_xfer_cb>:
20007cf0:	2001      	movs	r0, #1
20007cf2:	4770      	bx	lr

20007cf4 <resetd_control_xfer_cb>:
20007cf4:	b570      	push	{r4, r5, r6, lr}
20007cf6:	2900      	cmp	r1, #0
20007cf8:	d115      	bne.n	20007d26 <resetd_control_xfer_cb+0x32>
20007cfa:	4915      	ldr	r1, [pc, #84]	; (20007d50 <resetd_control_xfer_cb+0x5c>)
20007cfc:	7953      	ldrb	r3, [r2, #5]
20007cfe:	7910      	ldrb	r0, [r2, #4]
20007d00:	7809      	ldrb	r1, [r1, #0]
20007d02:	021b      	lsls	r3, r3, #8
20007d04:	4303      	orrs	r3, r0
20007d06:	2000      	movs	r0, #0
20007d08:	4299      	cmp	r1, r3
20007d0a:	d000      	beq.n	20007d0e <resetd_control_xfer_cb+0x1a>
20007d0c:	bd70      	pop	{r4, r5, r6, pc}
20007d0e:	7853      	ldrb	r3, [r2, #1]
20007d10:	2b01      	cmp	r3, #1
20007d12:	d00a      	beq.n	20007d2a <resetd_control_xfer_cb+0x36>
20007d14:	2b02      	cmp	r3, #2
20007d16:	d1f9      	bne.n	20007d0c <resetd_control_xfer_cb+0x18>
20007d18:	2000      	movs	r0, #0
20007d1a:	2264      	movs	r2, #100	; 0x64
20007d1c:	2100      	movs	r1, #0
20007d1e:	f7fc fb15 	bl	2000434c <watchdog_reboot>
20007d22:	2001      	movs	r0, #1
20007d24:	e7f2      	b.n	20007d0c <resetd_control_xfer_cb+0x18>
20007d26:	2001      	movs	r0, #1
20007d28:	e7f0      	b.n	20007d0c <resetd_control_xfer_cb+0x18>
20007d2a:	7894      	ldrb	r4, [r2, #2]
20007d2c:	78d2      	ldrb	r2, [r2, #3]
20007d2e:	0005      	movs	r5, r0
20007d30:	0212      	lsls	r2, r2, #8
20007d32:	4314      	orrs	r4, r2
20007d34:	05d2      	lsls	r2, r2, #23
20007d36:	d502      	bpl.n	20007d3e <resetd_control_xfer_cb+0x4a>
20007d38:	0a62      	lsrs	r2, r4, #9
20007d3a:	4093      	lsls	r3, r2
20007d3c:	001d      	movs	r5, r3
20007d3e:	4805      	ldr	r0, [pc, #20]	; (20007d54 <resetd_control_xfer_cb+0x60>)
20007d40:	f7fd febe 	bl	20005ac0 <rom_func_lookup>
20007d44:	217f      	movs	r1, #127	; 0x7f
20007d46:	0003      	movs	r3, r0
20007d48:	4021      	ands	r1, r4
20007d4a:	0028      	movs	r0, r5
20007d4c:	4798      	blx	r3
20007d4e:	46c0      	nop			; (mov r8, r8)
20007d50:	2000d3c7 	.word	0x2000d3c7
20007d54:	00004255 	.word	0x00004255

20007d58 <usbd_app_driver_get_cb>:
20007d58:	2301      	movs	r3, #1
20007d5a:	7003      	strb	r3, [r0, #0]
20007d5c:	4800      	ldr	r0, [pc, #0]	; (20007d60 <usbd_app_driver_get_cb+0x8>)
20007d5e:	4770      	bx	lr
20007d60:	2000c2e8 	.word	0x2000c2e8

20007d64 <tud_cdc_line_coding_cb>:
20007d64:	784a      	ldrb	r2, [r1, #1]
20007d66:	780b      	ldrb	r3, [r1, #0]
20007d68:	0212      	lsls	r2, r2, #8
20007d6a:	431a      	orrs	r2, r3
20007d6c:	788b      	ldrb	r3, [r1, #2]
20007d6e:	b510      	push	{r4, lr}
20007d70:	041b      	lsls	r3, r3, #16
20007d72:	431a      	orrs	r2, r3
20007d74:	78cb      	ldrb	r3, [r1, #3]
20007d76:	061b      	lsls	r3, r3, #24
20007d78:	4313      	orrs	r3, r2
20007d7a:	2296      	movs	r2, #150	; 0x96
20007d7c:	00d2      	lsls	r2, r2, #3
20007d7e:	4293      	cmp	r3, r2
20007d80:	d000      	beq.n	20007d84 <tud_cdc_line_coding_cb+0x20>
20007d82:	bd10      	pop	{r4, pc}
20007d84:	4803      	ldr	r0, [pc, #12]	; (20007d94 <tud_cdc_line_coding_cb+0x30>)
20007d86:	f7fd fe9b 	bl	20005ac0 <rom_func_lookup>
20007d8a:	2100      	movs	r1, #0
20007d8c:	0003      	movs	r3, r0
20007d8e:	0008      	movs	r0, r1
20007d90:	4798      	blx	r3
20007d92:	46c0      	nop			; (mov r8, r8)
20007d94:	00004255 	.word	0x00004255

20007d98 <stdio_usb_in_chars>:
20007d98:	b570      	push	{r4, r5, r6, lr}
20007d9a:	4c18      	ldr	r4, [pc, #96]	; (20007dfc <stdio_usb_in_chars+0x64>)
20007d9c:	b082      	sub	sp, #8
20007d9e:	0006      	movs	r6, r0
20007da0:	000d      	movs	r5, r1
20007da2:	0020      	movs	r0, r4
20007da4:	a901      	add	r1, sp, #4
20007da6:	f002 fdc7 	bl	2000a938 <mutex_try_enter>
20007daa:	2800      	cmp	r0, #0
20007dac:	d108      	bne.n	20007dc0 <stdio_usb_in_chars+0x28>
20007dae:	23d0      	movs	r3, #208	; 0xd0
20007db0:	061b      	lsls	r3, r3, #24
20007db2:	681b      	ldr	r3, [r3, #0]
20007db4:	9a01      	ldr	r2, [sp, #4]
20007db6:	429a      	cmp	r2, r3
20007db8:	d01c      	beq.n	20007df4 <stdio_usb_in_chars+0x5c>
20007dba:	0020      	movs	r0, r4
20007dbc:	f002 fd98 	bl	2000a8f0 <mutex_enter_blocking>
20007dc0:	2000      	movs	r0, #0
20007dc2:	f001 fe1f 	bl	20009a04 <tud_cdc_n_connected>
20007dc6:	2800      	cmp	r0, #0
20007dc8:	d107      	bne.n	20007dda <stdio_usb_in_chars+0x42>
20007dca:	2503      	movs	r5, #3
20007dcc:	426d      	negs	r5, r5
20007dce:	0020      	movs	r0, r4
20007dd0:	f002 fe22 	bl	2000aa18 <mutex_exit>
20007dd4:	0028      	movs	r0, r5
20007dd6:	b002      	add	sp, #8
20007dd8:	bd70      	pop	{r4, r5, r6, pc}
20007dda:	2000      	movs	r0, #0
20007ddc:	f001 fe2a 	bl	20009a34 <tud_cdc_n_available>
20007de0:	2800      	cmp	r0, #0
20007de2:	d0f2      	beq.n	20007dca <stdio_usb_in_chars+0x32>
20007de4:	002a      	movs	r2, r5
20007de6:	0031      	movs	r1, r6
20007de8:	2000      	movs	r0, #0
20007dea:	f001 fe2f 	bl	20009a4c <tud_cdc_n_read>
20007dee:	1e05      	subs	r5, r0, #0
20007df0:	d0eb      	beq.n	20007dca <stdio_usb_in_chars+0x32>
20007df2:	e7ec      	b.n	20007dce <stdio_usb_in_chars+0x36>
20007df4:	2503      	movs	r5, #3
20007df6:	426d      	negs	r5, r5
20007df8:	e7ec      	b.n	20007dd4 <stdio_usb_in_chars+0x3c>
20007dfa:	46c0      	nop			; (mov r8, r8)
20007dfc:	2000d360 	.word	0x2000d360

20007e00 <stdio_usb_out_chars>:
20007e00:	b5f0      	push	{r4, r5, r6, r7, lr}
20007e02:	464f      	mov	r7, r9
20007e04:	46d6      	mov	lr, sl
20007e06:	4646      	mov	r6, r8
20007e08:	b5c0      	push	{r6, r7, lr}
20007e0a:	4b35      	ldr	r3, [pc, #212]	; (20007ee0 <stdio_usb_out_chars+0xe0>)
20007e0c:	b082      	sub	sp, #8
20007e0e:	0007      	movs	r7, r0
20007e10:	000d      	movs	r5, r1
20007e12:	0018      	movs	r0, r3
20007e14:	a901      	add	r1, sp, #4
20007e16:	4699      	mov	r9, r3
20007e18:	f002 fd8e 	bl	2000a938 <mutex_try_enter>
20007e1c:	2800      	cmp	r0, #0
20007e1e:	d108      	bne.n	20007e32 <stdio_usb_out_chars+0x32>
20007e20:	23d0      	movs	r3, #208	; 0xd0
20007e22:	061b      	lsls	r3, r3, #24
20007e24:	681b      	ldr	r3, [r3, #0]
20007e26:	9a01      	ldr	r2, [sp, #4]
20007e28:	429a      	cmp	r2, r3
20007e2a:	d052      	beq.n	20007ed2 <stdio_usb_out_chars+0xd2>
20007e2c:	4648      	mov	r0, r9
20007e2e:	f002 fd5f 	bl	2000a8f0 <mutex_enter_blocking>
20007e32:	2000      	movs	r0, #0
20007e34:	f001 fde6 	bl	20009a04 <tud_cdc_n_connected>
20007e38:	2800      	cmp	r0, #0
20007e3a:	d042      	beq.n	20007ec2 <stdio_usb_out_chars+0xc2>
20007e3c:	2400      	movs	r4, #0
20007e3e:	2d00      	cmp	r5, #0
20007e40:	dd44      	ble.n	20007ecc <stdio_usb_out_chars+0xcc>
20007e42:	4b28      	ldr	r3, [pc, #160]	; (20007ee4 <stdio_usb_out_chars+0xe4>)
20007e44:	469a      	mov	sl, r3
20007e46:	4698      	mov	r8, r3
20007e48:	e011      	b.n	20007e6e <stdio_usb_out_chars+0x6e>
20007e4a:	1939      	adds	r1, r7, r4
20007e4c:	2000      	movs	r0, #0
20007e4e:	f001 fe71 	bl	20009b34 <tud_cdc_n_write>
20007e52:	0006      	movs	r6, r0
20007e54:	f000 fe68 	bl	20008b28 <tud_task>
20007e58:	2000      	movs	r0, #0
20007e5a:	f001 fe2f 	bl	20009abc <tud_cdc_n_write_flush>
20007e5e:	f7fb fbe9 	bl	20003634 <time_us_64>
20007e62:	4643      	mov	r3, r8
20007e64:	6018      	str	r0, [r3, #0]
20007e66:	6059      	str	r1, [r3, #4]
20007e68:	19a4      	adds	r4, r4, r6
20007e6a:	42ac      	cmp	r4, r5
20007e6c:	da2e      	bge.n	20007ecc <stdio_usb_out_chars+0xcc>
20007e6e:	2000      	movs	r0, #0
20007e70:	f001 fe7a 	bl	20009b68 <tud_cdc_n_write_available>
20007e74:	1b2e      	subs	r6, r5, r4
20007e76:	0002      	movs	r2, r0
20007e78:	42b0      	cmp	r0, r6
20007e7a:	dd00      	ble.n	20007e7e <stdio_usb_out_chars+0x7e>
20007e7c:	0032      	movs	r2, r6
20007e7e:	2a00      	cmp	r2, #0
20007e80:	d1e3      	bne.n	20007e4a <stdio_usb_out_chars+0x4a>
20007e82:	f000 fe51 	bl	20008b28 <tud_task>
20007e86:	2000      	movs	r0, #0
20007e88:	f001 fe18 	bl	20009abc <tud_cdc_n_write_flush>
20007e8c:	2000      	movs	r0, #0
20007e8e:	f001 fdb9 	bl	20009a04 <tud_cdc_n_connected>
20007e92:	2800      	cmp	r0, #0
20007e94:	d01a      	beq.n	20007ecc <stdio_usb_out_chars+0xcc>
20007e96:	2000      	movs	r0, #0
20007e98:	f001 fe66 	bl	20009b68 <tud_cdc_n_write_available>
20007e9c:	2800      	cmp	r0, #0
20007e9e:	d1e4      	bne.n	20007e6a <stdio_usb_out_chars+0x6a>
20007ea0:	f7fb fbc8 	bl	20003634 <time_us_64>
20007ea4:	4653      	mov	r3, sl
20007ea6:	000e      	movs	r6, r1
20007ea8:	681a      	ldr	r2, [r3, #0]
20007eaa:	685b      	ldr	r3, [r3, #4]
20007eac:	2100      	movs	r1, #0
20007eae:	4684      	mov	ip, r0
20007eb0:	480d      	ldr	r0, [pc, #52]	; (20007ee8 <stdio_usb_out_chars+0xe8>)
20007eb2:	1812      	adds	r2, r2, r0
20007eb4:	414b      	adcs	r3, r1
20007eb6:	429e      	cmp	r6, r3
20007eb8:	d808      	bhi.n	20007ecc <stdio_usb_out_chars+0xcc>
20007eba:	d1d6      	bne.n	20007e6a <stdio_usb_out_chars+0x6a>
20007ebc:	4594      	cmp	ip, r2
20007ebe:	d9d4      	bls.n	20007e6a <stdio_usb_out_chars+0x6a>
20007ec0:	e004      	b.n	20007ecc <stdio_usb_out_chars+0xcc>
20007ec2:	2000      	movs	r0, #0
20007ec4:	2100      	movs	r1, #0
20007ec6:	4b07      	ldr	r3, [pc, #28]	; (20007ee4 <stdio_usb_out_chars+0xe4>)
20007ec8:	6018      	str	r0, [r3, #0]
20007eca:	6059      	str	r1, [r3, #4]
20007ecc:	4648      	mov	r0, r9
20007ece:	f002 fda3 	bl	2000aa18 <mutex_exit>
20007ed2:	b002      	add	sp, #8
20007ed4:	bc1c      	pop	{r2, r3, r4}
20007ed6:	4690      	mov	r8, r2
20007ed8:	4699      	mov	r9, r3
20007eda:	46a2      	mov	sl, r4
20007edc:	bdf0      	pop	{r4, r5, r6, r7, pc}
20007ede:	46c0      	nop			; (mov r8, r8)
20007ee0:	2000d360 	.word	0x2000d360
20007ee4:	2000c9a0 	.word	0x2000c9a0
20007ee8:	0007a120 	.word	0x0007a120

20007eec <timer_task>:
20007eec:	b510      	push	{r4, lr}
20007eee:	4b04      	ldr	r3, [pc, #16]	; (20007f00 <timer_task+0x14>)
20007ef0:	7818      	ldrb	r0, [r3, #0]
20007ef2:	f7fa fc89 	bl	20002808 <irq_set_pending>
20007ef6:	20fa      	movs	r0, #250	; 0xfa
20007ef8:	2100      	movs	r1, #0
20007efa:	0080      	lsls	r0, r0, #2
20007efc:	bd10      	pop	{r4, pc}
20007efe:	46c0      	nop			; (mov r8, r8)
20007f00:	2000d3c8 	.word	0x2000d3c8

20007f04 <usb_irq>:
20007f04:	b510      	push	{r4, lr}
20007f06:	4b02      	ldr	r3, [pc, #8]	; (20007f10 <usb_irq+0xc>)
20007f08:	7818      	ldrb	r0, [r3, #0]
20007f0a:	f7fa fc7d 	bl	20002808 <irq_set_pending>
20007f0e:	bd10      	pop	{r4, pc}
20007f10:	2000d3c8 	.word	0x2000d3c8

20007f14 <low_priority_worker_irq>:
20007f14:	b510      	push	{r4, lr}
20007f16:	4c07      	ldr	r4, [pc, #28]	; (20007f34 <low_priority_worker_irq+0x20>)
20007f18:	2100      	movs	r1, #0
20007f1a:	0020      	movs	r0, r4
20007f1c:	f002 fd0c 	bl	2000a938 <mutex_try_enter>
20007f20:	2800      	cmp	r0, #0
20007f22:	d100      	bne.n	20007f26 <low_priority_worker_irq+0x12>
20007f24:	bd10      	pop	{r4, pc}
20007f26:	f000 fdff 	bl	20008b28 <tud_task>
20007f2a:	0020      	movs	r0, r4
20007f2c:	f002 fd74 	bl	2000aa18 <mutex_exit>
20007f30:	e7f8      	b.n	20007f24 <low_priority_worker_irq+0x10>
20007f32:	46c0      	nop			; (mov r8, r8)
20007f34:	2000d360 	.word	0x2000d360

20007f38 <stdio_usb_init>:
20007f38:	b5f0      	push	{r4, r5, r6, r7, lr}
20007f3a:	4b24      	ldr	r3, [pc, #144]	; (20007fcc <stdio_usb_init+0x94>)
20007f3c:	b085      	sub	sp, #20
20007f3e:	781b      	ldrb	r3, [r3, #0]
20007f40:	f002 f822 	bl	20009f88 <tusb_init>
20007f44:	4822      	ldr	r0, [pc, #136]	; (20007fd0 <stdio_usb_init+0x98>)
20007f46:	f7fb fe83 	bl	20003c50 <mutex_init>
20007f4a:	2001      	movs	r0, #1
20007f4c:	f7fa fed4 	bl	20002cf8 <user_irq_claim_unused>
20007f50:	23ff      	movs	r3, #255	; 0xff
20007f52:	4c20      	ldr	r4, [pc, #128]	; (20007fd4 <stdio_usb_init+0x9c>)
20007f54:	4920      	ldr	r1, [pc, #128]	; (20007fd8 <stdio_usb_init+0xa0>)
20007f56:	7020      	strb	r0, [r4, #0]
20007f58:	4018      	ands	r0, r3
20007f5a:	f7fa fc7b 	bl	20002854 <irq_set_exclusive_handler>
20007f5e:	7820      	ldrb	r0, [r4, #0]
20007f60:	2101      	movs	r1, #1
20007f62:	f7fa fc23 	bl	200027ac <irq_set_enabled>
20007f66:	2005      	movs	r0, #5
20007f68:	f7fa fc56 	bl	20002818 <irq_has_shared_handler>
20007f6c:	1e04      	subs	r4, r0, #0
20007f6e:	d00c      	beq.n	20007f8a <stdio_usb_init+0x52>
20007f70:	2200      	movs	r2, #0
20007f72:	2005      	movs	r0, #5
20007f74:	4919      	ldr	r1, [pc, #100]	; (20007fdc <stdio_usb_init+0xa4>)
20007f76:	f7fa fc97 	bl	200028a8 <irq_add_shared_handler>
20007f7a:	2101      	movs	r1, #1
20007f7c:	4818      	ldr	r0, [pc, #96]	; (20007fe0 <stdio_usb_init+0xa8>)
20007f7e:	f7ff fd39 	bl	200079f4 <stdio_set_driver_enabled>
20007f82:	2401      	movs	r4, #1
20007f84:	0020      	movs	r0, r4
20007f86:	b005      	add	sp, #20
20007f88:	bdf0      	pop	{r4, r5, r6, r7, pc}
20007f8a:	f7fb f935 	bl	200031f8 <alarm_pool_get_default>
20007f8e:	0005      	movs	r5, r0
20007f90:	f7fb fb50 	bl	20003634 <time_us_64>
20007f94:	22fa      	movs	r2, #250	; 0xfa
20007f96:	0006      	movs	r6, r0
20007f98:	000f      	movs	r7, r1
20007f9a:	2300      	movs	r3, #0
20007f9c:	0092      	lsls	r2, r2, #2
20007f9e:	1992      	adds	r2, r2, r6
20007fa0:	417b      	adcs	r3, r7
20007fa2:	4299      	cmp	r1, r3
20007fa4:	d80e      	bhi.n	20007fc4 <stdio_usb_init+0x8c>
20007fa6:	d00b      	beq.n	20007fc0 <stdio_usb_init+0x88>
20007fa8:	2101      	movs	r1, #1
20007faa:	9102      	str	r1, [sp, #8]
20007fac:	2100      	movs	r1, #0
20007fae:	9101      	str	r1, [sp, #4]
20007fb0:	490c      	ldr	r1, [pc, #48]	; (20007fe4 <stdio_usb_init+0xac>)
20007fb2:	0028      	movs	r0, r5
20007fb4:	9100      	str	r1, [sp, #0]
20007fb6:	f7fb f923 	bl	20003200 <alarm_pool_add_alarm_at>
20007fba:	2800      	cmp	r0, #0
20007fbc:	d0e2      	beq.n	20007f84 <stdio_usb_init+0x4c>
20007fbe:	e7dc      	b.n	20007f7a <stdio_usb_init+0x42>
20007fc0:	4290      	cmp	r0, r2
20007fc2:	d9f1      	bls.n	20007fa8 <stdio_usb_init+0x70>
20007fc4:	2201      	movs	r2, #1
20007fc6:	4252      	negs	r2, r2
20007fc8:	17d3      	asrs	r3, r2, #31
20007fca:	e7ed      	b.n	20007fa8 <stdio_usb_init+0x70>
20007fcc:	10000308 	.word	0x10000308
20007fd0:	2000d360 	.word	0x2000d360
20007fd4:	2000d3c8 	.word	0x2000d3c8
20007fd8:	20007f15 	.word	0x20007f15
20007fdc:	20007f05 	.word	0x20007f05
20007fe0:	2000c824 	.word	0x2000c824
20007fe4:	20007eed 	.word	0x20007eed

20007fe8 <tud_descriptor_device_cb>:
20007fe8:	4800      	ldr	r0, [pc, #0]	; (20007fec <tud_descriptor_device_cb+0x4>)
20007fea:	4770      	bx	lr
20007fec:	2000c3a0 	.word	0x2000c3a0

20007ff0 <tud_descriptor_configuration_cb>:
20007ff0:	4800      	ldr	r0, [pc, #0]	; (20007ff4 <tud_descriptor_configuration_cb+0x4>)
20007ff2:	4770      	bx	lr
20007ff4:	2000c34c 	.word	0x2000c34c

20007ff8 <tud_descriptor_string_cb>:
20007ff8:	b570      	push	{r4, r5, r6, lr}
20007ffa:	0004      	movs	r4, r0
20007ffc:	4816      	ldr	r0, [pc, #88]	; (20008058 <tud_descriptor_string_cb+0x60>)
20007ffe:	7803      	ldrb	r3, [r0, #0]
20008000:	2b00      	cmp	r3, #0
20008002:	d020      	beq.n	20008046 <tud_descriptor_string_cb+0x4e>
20008004:	2c00      	cmp	r4, #0
20008006:	d106      	bne.n	20008016 <tud_descriptor_string_cb+0x1e>
20008008:	24c1      	movs	r4, #193	; 0xc1
2000800a:	4814      	ldr	r0, [pc, #80]	; (2000805c <tud_descriptor_string_cb+0x64>)
2000800c:	4b14      	ldr	r3, [pc, #80]	; (20008060 <tud_descriptor_string_cb+0x68>)
2000800e:	00a4      	lsls	r4, r4, #2
20008010:	8043      	strh	r3, [r0, #2]
20008012:	8004      	strh	r4, [r0, #0]
20008014:	bd70      	pop	{r4, r5, r6, pc}
20008016:	2c05      	cmp	r4, #5
20008018:	d81c      	bhi.n	20008054 <tud_descriptor_string_cb+0x5c>
2000801a:	4b12      	ldr	r3, [pc, #72]	; (20008064 <tud_descriptor_string_cb+0x6c>)
2000801c:	480f      	ldr	r0, [pc, #60]	; (2000805c <tud_descriptor_string_cb+0x64>)
2000801e:	00a4      	lsls	r4, r4, #2
20008020:	58e5      	ldr	r5, [r4, r3]
20008022:	1c81      	adds	r1, r0, #2
20008024:	2300      	movs	r3, #0
20008026:	e004      	b.n	20008032 <tud_descriptor_string_cb+0x3a>
20008028:	3301      	adds	r3, #1
2000802a:	800a      	strh	r2, [r1, #0]
2000802c:	3102      	adds	r1, #2
2000802e:	2b13      	cmp	r3, #19
20008030:	d00d      	beq.n	2000804e <tud_descriptor_string_cb+0x56>
20008032:	5cea      	ldrb	r2, [r5, r3]
20008034:	b2dc      	uxtb	r4, r3
20008036:	2a00      	cmp	r2, #0
20008038:	d1f6      	bne.n	20008028 <tud_descriptor_string_cb+0x30>
2000803a:	23c0      	movs	r3, #192	; 0xc0
2000803c:	3401      	adds	r4, #1
2000803e:	0064      	lsls	r4, r4, #1
20008040:	009b      	lsls	r3, r3, #2
20008042:	431c      	orrs	r4, r3
20008044:	e7e5      	b.n	20008012 <tud_descriptor_string_cb+0x1a>
20008046:	2111      	movs	r1, #17
20008048:	f002 fa30 	bl	2000a4ac <pico_get_unique_board_id_string>
2000804c:	e7da      	b.n	20008004 <tud_descriptor_string_cb+0xc>
2000804e:	24ca      	movs	r4, #202	; 0xca
20008050:	00a4      	lsls	r4, r4, #2
20008052:	e7de      	b.n	20008012 <tud_descriptor_string_cb+0x1a>
20008054:	2000      	movs	r0, #0
20008056:	e7dd      	b.n	20008014 <tud_descriptor_string_cb+0x1c>
20008058:	2000d3ac 	.word	0x2000d3ac
2000805c:	2000ceec 	.word	0x2000ceec
20008060:	00000409 	.word	0x00000409
20008064:	2000c3b4 	.word	0x2000c3b4

20008068 <dcd_rp2040_irq>:
20008068:	b5f0      	push	{r4, r5, r6, r7, lr}
2000806a:	2398      	movs	r3, #152	; 0x98
2000806c:	4657      	mov	r7, sl
2000806e:	4645      	mov	r5, r8
20008070:	46de      	mov	lr, fp
20008072:	464e      	mov	r6, r9
20008074:	4a6c      	ldr	r2, [pc, #432]	; (20008228 <dcd_rp2040_irq+0x1c0>)
20008076:	b5e0      	push	{r5, r6, r7, lr}
20008078:	58d7      	ldr	r7, [r2, r3]
2000807a:	2580      	movs	r5, #128	; 0x80
2000807c:	003c      	movs	r4, r7
2000807e:	026d      	lsls	r5, r5, #9
20008080:	3b88      	subs	r3, #136	; 0x88
20008082:	469a      	mov	sl, r3
20008084:	b083      	sub	sp, #12
20008086:	402c      	ands	r4, r5
20008088:	422f      	tst	r7, r5
2000808a:	d00f      	beq.n	200080ac <dcd_rp2040_irq+0x44>
2000808c:	2201      	movs	r2, #1
2000808e:	2123      	movs	r1, #35	; 0x23
20008090:	4b66      	ldr	r3, [pc, #408]	; (2000822c <dcd_rp2040_irq+0x1c4>)
20008092:	2000      	movs	r0, #0
20008094:	545a      	strb	r2, [r3, r1]
20008096:	70da      	strb	r2, [r3, #3]
20008098:	4965      	ldr	r1, [pc, #404]	; (20008230 <dcd_rp2040_irq+0x1c8>)
2000809a:	f001 fa75 	bl	20009588 <dcd_event_setup_received>
2000809e:	2280      	movs	r2, #128	; 0x80
200080a0:	4b64      	ldr	r3, [pc, #400]	; (20008234 <dcd_rp2040_irq+0x1cc>)
200080a2:	0292      	lsls	r2, r2, #10
200080a4:	651a      	str	r2, [r3, #80]	; 0x50
200080a6:	4b64      	ldr	r3, [pc, #400]	; (20008238 <dcd_rp2040_irq+0x1d0>)
200080a8:	002c      	movs	r4, r5
200080aa:	469a      	mov	sl, r3
200080ac:	06fb      	lsls	r3, r7, #27
200080ae:	d417      	bmi.n	200080e0 <dcd_rp2040_irq+0x78>
200080b0:	2380      	movs	r3, #128	; 0x80
200080b2:	015b      	lsls	r3, r3, #5
200080b4:	421f      	tst	r7, r3
200080b6:	d145      	bne.n	20008144 <dcd_rp2040_irq+0xdc>
200080b8:	2380      	movs	r3, #128	; 0x80
200080ba:	01db      	lsls	r3, r3, #7
200080bc:	421f      	tst	r7, r3
200080be:	d000      	beq.n	200080c2 <dcd_rp2040_irq+0x5a>
200080c0:	e088      	b.n	200081d4 <dcd_rp2040_irq+0x16c>
200080c2:	2380      	movs	r3, #128	; 0x80
200080c4:	021b      	lsls	r3, r3, #8
200080c6:	421f      	tst	r7, r3
200080c8:	d000      	beq.n	200080cc <dcd_rp2040_irq+0x64>
200080ca:	e091      	b.n	200081f0 <dcd_rp2040_irq+0x188>
200080cc:	42bc      	cmp	r4, r7
200080ce:	d000      	beq.n	200080d2 <dcd_rp2040_irq+0x6a>
200080d0:	e0a5      	b.n	2000821e <dcd_rp2040_irq+0x1b6>
200080d2:	b003      	add	sp, #12
200080d4:	bc3c      	pop	{r2, r3, r4, r5}
200080d6:	4690      	mov	r8, r2
200080d8:	4699      	mov	r9, r3
200080da:	46a2      	mov	sl, r4
200080dc:	46ab      	mov	fp, r5
200080de:	bdf0      	pop	{r4, r5, r6, r7, pc}
200080e0:	4b51      	ldr	r3, [pc, #324]	; (20008228 <dcd_rp2040_irq+0x1c0>)
200080e2:	6d9b      	ldr	r3, [r3, #88]	; 0x58
200080e4:	4698      	mov	r8, r3
200080e6:	2b00      	cmp	r3, #0
200080e8:	d027      	beq.n	2000813a <dcd_rp2040_irq+0xd2>
200080ea:	4b52      	ldr	r3, [pc, #328]	; (20008234 <dcd_rp2040_irq+0x1cc>)
200080ec:	2500      	movs	r5, #0
200080ee:	469b      	mov	fp, r3
200080f0:	2301      	movs	r3, #1
200080f2:	4699      	mov	r9, r3
200080f4:	4643      	mov	r3, r8
200080f6:	2601      	movs	r6, #1
200080f8:	46b8      	mov	r8, r7
200080fa:	001f      	movs	r7, r3
200080fc:	e004      	b.n	20008108 <dcd_rp2040_irq+0xa0>
200080fe:	3501      	adds	r5, #1
20008100:	0076      	lsls	r6, r6, #1
20008102:	b2ed      	uxtb	r5, r5
20008104:	2d20      	cmp	r5, #32
20008106:	d017      	beq.n	20008138 <dcd_rp2040_irq+0xd0>
20008108:	4237      	tst	r7, r6
2000810a:	d0f8      	beq.n	200080fe <dcd_rp2040_irq+0x96>
2000810c:	465b      	mov	r3, fp
2000810e:	659e      	str	r6, [r3, #88]	; 0x58
20008110:	464b      	mov	r3, r9
20008112:	086c      	lsrs	r4, r5, #1
20008114:	43ab      	bics	r3, r5
20008116:	0064      	lsls	r4, r4, #1
20008118:	18e4      	adds	r4, r4, r3
2000811a:	4b44      	ldr	r3, [pc, #272]	; (2000822c <dcd_rp2040_irq+0x1c4>)
2000811c:	0164      	lsls	r4, r4, #5
2000811e:	469c      	mov	ip, r3
20008120:	4464      	add	r4, ip
20008122:	0020      	movs	r0, r4
20008124:	f000 fb8c 	bl	20008840 <hw_endpoint_xfer_continue>
20008128:	2800      	cmp	r0, #0
2000812a:	d16c      	bne.n	20008206 <dcd_rp2040_irq+0x19e>
2000812c:	3501      	adds	r5, #1
2000812e:	43b7      	bics	r7, r6
20008130:	b2ed      	uxtb	r5, r5
20008132:	0076      	lsls	r6, r6, #1
20008134:	2f00      	cmp	r7, #0
20008136:	d1e5      	bne.n	20008104 <dcd_rp2040_irq+0x9c>
20008138:	4647      	mov	r7, r8
2000813a:	2380      	movs	r3, #128	; 0x80
2000813c:	015b      	lsls	r3, r3, #5
2000813e:	4654      	mov	r4, sl
20008140:	421f      	tst	r7, r3
20008142:	d0b9      	beq.n	200080b8 <dcd_rp2040_irq+0x50>
20008144:	431c      	orrs	r4, r3
20008146:	2300      	movs	r3, #0
20008148:	4a37      	ldr	r2, [pc, #220]	; (20008228 <dcd_rp2040_irq+0x1c0>)
2000814a:	2100      	movs	r1, #0
2000814c:	6013      	str	r3, [r2, #0]
2000814e:	4a38      	ldr	r2, [pc, #224]	; (20008230 <dcd_rp2040_irq+0x1c8>)
20008150:	483a      	ldr	r0, [pc, #232]	; (2000823c <dcd_rp2040_irq+0x1d4>)
20008152:	6093      	str	r3, [r2, #8]
20008154:	60d3      	str	r3, [r2, #12]
20008156:	4a3a      	ldr	r2, [pc, #232]	; (20008240 <dcd_rp2040_irq+0x1d8>)
20008158:	6093      	str	r3, [r2, #8]
2000815a:	60d3      	str	r3, [r2, #12]
2000815c:	4a39      	ldr	r2, [pc, #228]	; (20008244 <dcd_rp2040_irq+0x1dc>)
2000815e:	6093      	str	r3, [r2, #8]
20008160:	60d3      	str	r3, [r2, #12]
20008162:	4a39      	ldr	r2, [pc, #228]	; (20008248 <dcd_rp2040_irq+0x1e0>)
20008164:	6093      	str	r3, [r2, #8]
20008166:	60d3      	str	r3, [r2, #12]
20008168:	4a38      	ldr	r2, [pc, #224]	; (2000824c <dcd_rp2040_irq+0x1e4>)
2000816a:	6093      	str	r3, [r2, #8]
2000816c:	60d3      	str	r3, [r2, #12]
2000816e:	4a38      	ldr	r2, [pc, #224]	; (20008250 <dcd_rp2040_irq+0x1e8>)
20008170:	6093      	str	r3, [r2, #8]
20008172:	60d3      	str	r3, [r2, #12]
20008174:	4a37      	ldr	r2, [pc, #220]	; (20008254 <dcd_rp2040_irq+0x1ec>)
20008176:	6093      	str	r3, [r2, #8]
20008178:	60d3      	str	r3, [r2, #12]
2000817a:	4a37      	ldr	r2, [pc, #220]	; (20008258 <dcd_rp2040_irq+0x1f0>)
2000817c:	6093      	str	r3, [r2, #8]
2000817e:	60d3      	str	r3, [r2, #12]
20008180:	4a36      	ldr	r2, [pc, #216]	; (2000825c <dcd_rp2040_irq+0x1f4>)
20008182:	6093      	str	r3, [r2, #8]
20008184:	60d3      	str	r3, [r2, #12]
20008186:	4a36      	ldr	r2, [pc, #216]	; (20008260 <dcd_rp2040_irq+0x1f8>)
20008188:	6093      	str	r3, [r2, #8]
2000818a:	60d3      	str	r3, [r2, #12]
2000818c:	4a35      	ldr	r2, [pc, #212]	; (20008264 <dcd_rp2040_irq+0x1fc>)
2000818e:	6093      	str	r3, [r2, #8]
20008190:	60d3      	str	r3, [r2, #12]
20008192:	4a35      	ldr	r2, [pc, #212]	; (20008268 <dcd_rp2040_irq+0x200>)
20008194:	6093      	str	r3, [r2, #8]
20008196:	60d3      	str	r3, [r2, #12]
20008198:	4a34      	ldr	r2, [pc, #208]	; (2000826c <dcd_rp2040_irq+0x204>)
2000819a:	6093      	str	r3, [r2, #8]
2000819c:	60d3      	str	r3, [r2, #12]
2000819e:	4a34      	ldr	r2, [pc, #208]	; (20008270 <dcd_rp2040_irq+0x208>)
200081a0:	6093      	str	r3, [r2, #8]
200081a2:	60d3      	str	r3, [r2, #12]
200081a4:	4a33      	ldr	r2, [pc, #204]	; (20008274 <dcd_rp2040_irq+0x20c>)
200081a6:	6093      	str	r3, [r2, #8]
200081a8:	60d3      	str	r3, [r2, #12]
200081aa:	22f0      	movs	r2, #240	; 0xf0
200081ac:	0092      	lsls	r2, r2, #2
200081ae:	f7ff faa1 	bl	200076f4 <__wrap_memset>
200081b2:	4b31      	ldr	r3, [pc, #196]	; (20008278 <dcd_rp2040_irq+0x210>)
200081b4:	4a31      	ldr	r2, [pc, #196]	; (2000827c <dcd_rp2040_irq+0x214>)
200081b6:	2100      	movs	r1, #0
200081b8:	601a      	str	r2, [r3, #0]
200081ba:	2000      	movs	r0, #0
200081bc:	2201      	movs	r2, #1
200081be:	f001 f9b9 	bl	20009534 <dcd_event_bus_reset>
200081c2:	2280      	movs	r2, #128	; 0x80
200081c4:	4b1b      	ldr	r3, [pc, #108]	; (20008234 <dcd_rp2040_irq+0x1cc>)
200081c6:	0312      	lsls	r2, r2, #12
200081c8:	651a      	str	r2, [r3, #80]	; 0x50
200081ca:	2380      	movs	r3, #128	; 0x80
200081cc:	01db      	lsls	r3, r3, #7
200081ce:	421f      	tst	r7, r3
200081d0:	d100      	bne.n	200081d4 <dcd_rp2040_irq+0x16c>
200081d2:	e776      	b.n	200080c2 <dcd_rp2040_irq+0x5a>
200081d4:	2201      	movs	r2, #1
200081d6:	2104      	movs	r1, #4
200081d8:	2000      	movs	r0, #0
200081da:	431c      	orrs	r4, r3
200081dc:	f001 f91a 	bl	20009414 <dcd_event_bus_signal>
200081e0:	2210      	movs	r2, #16
200081e2:	4b14      	ldr	r3, [pc, #80]	; (20008234 <dcd_rp2040_irq+0x1cc>)
200081e4:	651a      	str	r2, [r3, #80]	; 0x50
200081e6:	2380      	movs	r3, #128	; 0x80
200081e8:	021b      	lsls	r3, r3, #8
200081ea:	421f      	tst	r7, r3
200081ec:	d100      	bne.n	200081f0 <dcd_rp2040_irq+0x188>
200081ee:	e76d      	b.n	200080cc <dcd_rp2040_irq+0x64>
200081f0:	2201      	movs	r2, #1
200081f2:	2105      	movs	r1, #5
200081f4:	2000      	movs	r0, #0
200081f6:	431c      	orrs	r4, r3
200081f8:	f001 f90c 	bl	20009414 <dcd_event_bus_signal>
200081fc:	2280      	movs	r2, #128	; 0x80
200081fe:	4b0d      	ldr	r3, [pc, #52]	; (20008234 <dcd_rp2040_irq+0x1cc>)
20008200:	0112      	lsls	r2, r2, #4
20008202:	651a      	str	r2, [r3, #80]	; 0x50
20008204:	e762      	b.n	200080cc <dcd_rp2040_irq+0x64>
20008206:	464b      	mov	r3, r9
20008208:	8aa2      	ldrh	r2, [r4, #20]
2000820a:	78a1      	ldrb	r1, [r4, #2]
2000820c:	2000      	movs	r0, #0
2000820e:	9300      	str	r3, [sp, #0]
20008210:	2300      	movs	r3, #0
20008212:	f001 f9e1 	bl	200095d8 <dcd_event_xfer_complete>
20008216:	0020      	movs	r0, r4
20008218:	f000 fa50 	bl	200086bc <hw_endpoint_reset_transfer>
2000821c:	e786      	b.n	2000812c <dcd_rp2040_irq+0xc4>
2000821e:	0021      	movs	r1, r4
20008220:	4817      	ldr	r0, [pc, #92]	; (20008280 <dcd_rp2040_irq+0x218>)
20008222:	4079      	eors	r1, r7
20008224:	f7fb fe2a 	bl	20003e7c <panic>
20008228:	50110000 	.word	0x50110000
2000822c:	2000cf20 	.word	0x2000cf20
20008230:	50100000 	.word	0x50100000
20008234:	50113000 	.word	0x50113000
20008238:	00010010 	.word	0x00010010
2000823c:	2000cf60 	.word	0x2000cf60
20008240:	50100008 	.word	0x50100008
20008244:	50100010 	.word	0x50100010
20008248:	50100018 	.word	0x50100018
2000824c:	50100020 	.word	0x50100020
20008250:	50100028 	.word	0x50100028
20008254:	50100030 	.word	0x50100030
20008258:	50100038 	.word	0x50100038
2000825c:	50100040 	.word	0x50100040
20008260:	50100048 	.word	0x50100048
20008264:	50100050 	.word	0x50100050
20008268:	50100058 	.word	0x50100058
2000826c:	50100060 	.word	0x50100060
20008270:	50100068 	.word	0x50100068
20008274:	50100070 	.word	0x50100070
20008278:	2000d338 	.word	0x2000d338
2000827c:	50100180 	.word	0x50100180
20008280:	2000c3cc 	.word	0x2000c3cc

20008284 <dcd_int_enable>:
20008284:	b510      	push	{r4, lr}
20008286:	2101      	movs	r1, #1
20008288:	2005      	movs	r0, #5
2000828a:	f7fa fa8f 	bl	200027ac <irq_set_enabled>
2000828e:	bd10      	pop	{r4, pc}

20008290 <dcd_set_address>:
20008290:	b510      	push	{r4, lr}
20008292:	2200      	movs	r2, #0
20008294:	2100      	movs	r1, #0
20008296:	4802      	ldr	r0, [pc, #8]	; (200082a0 <dcd_set_address+0x10>)
20008298:	f000 fa36 	bl	20008708 <hw_endpoint_xfer_start>
2000829c:	bd10      	pop	{r4, pc}
2000829e:	46c0      	nop			; (mov r8, r8)
200082a0:	2000cf40 	.word	0x2000cf40

200082a4 <dcd_connect>:
200082a4:	2280      	movs	r2, #128	; 0x80
200082a6:	4b02      	ldr	r3, [pc, #8]	; (200082b0 <dcd_connect+0xc>)
200082a8:	0252      	lsls	r2, r2, #9
200082aa:	64da      	str	r2, [r3, #76]	; 0x4c
200082ac:	4770      	bx	lr
200082ae:	46c0      	nop			; (mov r8, r8)
200082b0:	50112000 	.word	0x50112000

200082b4 <dcd_init>:
200082b4:	b5f0      	push	{r4, r5, r6, r7, lr}
200082b6:	46c6      	mov	lr, r8
200082b8:	b500      	push	{lr}
200082ba:	0006      	movs	r6, r0
200082bc:	f000 f9d8 	bl	20008670 <rp2040_usb_init>
200082c0:	230c      	movs	r3, #12
200082c2:	4d36      	ldr	r5, [pc, #216]	; (2000839c <dcd_init+0xe8>)
200082c4:	2005      	movs	r0, #5
200082c6:	67ab      	str	r3, [r5, #120]	; 0x78
200082c8:	4935      	ldr	r1, [pc, #212]	; (200083a0 <dcd_init+0xec>)
200082ca:	f7fa fac3 	bl	20002854 <irq_set_exclusive_handler>
200082ce:	2340      	movs	r3, #64	; 0x40
200082d0:	4698      	mov	r8, r3
200082d2:	4c34      	ldr	r4, [pc, #208]	; (200083a4 <dcd_init+0xf0>)
200082d4:	2240      	movs	r2, #64	; 0x40
200082d6:	2100      	movs	r1, #0
200082d8:	0020      	movs	r0, r4
200082da:	f7ff fa0b 	bl	200076f4 <__wrap_memset>
200082de:	4641      	mov	r1, r8
200082e0:	2300      	movs	r3, #0
200082e2:	2701      	movs	r7, #1
200082e4:	2200      	movs	r2, #0
200082e6:	2021      	movs	r0, #33	; 0x21
200082e8:	83a1      	strh	r1, [r4, #28]
200082ea:	492f      	ldr	r1, [pc, #188]	; (200083a8 <dcd_init+0xf4>)
200082ec:	7067      	strb	r7, [r4, #1]
200082ee:	8063      	strh	r3, [r4, #2]
200082f0:	77a2      	strb	r2, [r4, #30]
200082f2:	60a1      	str	r1, [r4, #8]
200082f4:	600b      	str	r3, [r1, #0]
200082f6:	5422      	strb	r2, [r4, r0]
200082f8:	305f      	adds	r0, #95	; 0x5f
200082fa:	8460      	strh	r0, [r4, #34]	; 0x22
200082fc:	4640      	mov	r0, r8
200082fe:	87a0      	strh	r0, [r4, #60]	; 0x3c
20008300:	3802      	subs	r0, #2
20008302:	5422      	strb	r2, [r4, r0]
20008304:	4929      	ldr	r1, [pc, #164]	; (200083ac <dcd_init+0xf8>)
20008306:	4a2a      	ldr	r2, [pc, #168]	; (200083b0 <dcd_init+0xfc>)
20008308:	6063      	str	r3, [r4, #4]
2000830a:	60e1      	str	r1, [r4, #12]
2000830c:	62a2      	str	r2, [r4, #40]	; 0x28
2000830e:	6013      	str	r3, [r2, #0]
20008310:	4a28      	ldr	r2, [pc, #160]	; (200083b4 <dcd_init+0x100>)
20008312:	6263      	str	r3, [r4, #36]	; 0x24
20008314:	62e1      	str	r1, [r4, #44]	; 0x2c
20008316:	6093      	str	r3, [r2, #8]
20008318:	60d3      	str	r3, [r2, #12]
2000831a:	4a27      	ldr	r2, [pc, #156]	; (200083b8 <dcd_init+0x104>)
2000831c:	0020      	movs	r0, r4
2000831e:	6093      	str	r3, [r2, #8]
20008320:	60d3      	str	r3, [r2, #12]
20008322:	4a26      	ldr	r2, [pc, #152]	; (200083bc <dcd_init+0x108>)
20008324:	2100      	movs	r1, #0
20008326:	6093      	str	r3, [r2, #8]
20008328:	60d3      	str	r3, [r2, #12]
2000832a:	4a25      	ldr	r2, [pc, #148]	; (200083c0 <dcd_init+0x10c>)
2000832c:	3040      	adds	r0, #64	; 0x40
2000832e:	6093      	str	r3, [r2, #8]
20008330:	60d3      	str	r3, [r2, #12]
20008332:	4a24      	ldr	r2, [pc, #144]	; (200083c4 <dcd_init+0x110>)
20008334:	6093      	str	r3, [r2, #8]
20008336:	60d3      	str	r3, [r2, #12]
20008338:	4a23      	ldr	r2, [pc, #140]	; (200083c8 <dcd_init+0x114>)
2000833a:	6093      	str	r3, [r2, #8]
2000833c:	60d3      	str	r3, [r2, #12]
2000833e:	4a23      	ldr	r2, [pc, #140]	; (200083cc <dcd_init+0x118>)
20008340:	6093      	str	r3, [r2, #8]
20008342:	60d3      	str	r3, [r2, #12]
20008344:	4a22      	ldr	r2, [pc, #136]	; (200083d0 <dcd_init+0x11c>)
20008346:	6093      	str	r3, [r2, #8]
20008348:	60d3      	str	r3, [r2, #12]
2000834a:	4a22      	ldr	r2, [pc, #136]	; (200083d4 <dcd_init+0x120>)
2000834c:	6093      	str	r3, [r2, #8]
2000834e:	60d3      	str	r3, [r2, #12]
20008350:	4a21      	ldr	r2, [pc, #132]	; (200083d8 <dcd_init+0x124>)
20008352:	6093      	str	r3, [r2, #8]
20008354:	60d3      	str	r3, [r2, #12]
20008356:	4a21      	ldr	r2, [pc, #132]	; (200083dc <dcd_init+0x128>)
20008358:	6093      	str	r3, [r2, #8]
2000835a:	60d3      	str	r3, [r2, #12]
2000835c:	4a20      	ldr	r2, [pc, #128]	; (200083e0 <dcd_init+0x12c>)
2000835e:	6093      	str	r3, [r2, #8]
20008360:	60d3      	str	r3, [r2, #12]
20008362:	4a20      	ldr	r2, [pc, #128]	; (200083e4 <dcd_init+0x130>)
20008364:	6093      	str	r3, [r2, #8]
20008366:	60d3      	str	r3, [r2, #12]
20008368:	4a1f      	ldr	r2, [pc, #124]	; (200083e8 <dcd_init+0x134>)
2000836a:	6093      	str	r3, [r2, #8]
2000836c:	60d3      	str	r3, [r2, #12]
2000836e:	4a1f      	ldr	r2, [pc, #124]	; (200083ec <dcd_init+0x138>)
20008370:	6093      	str	r3, [r2, #8]
20008372:	60d3      	str	r3, [r2, #12]
20008374:	22f0      	movs	r2, #240	; 0xf0
20008376:	0092      	lsls	r2, r2, #2
20008378:	f7ff f9bc 	bl	200076f4 <__wrap_memset>
2000837c:	4b1c      	ldr	r3, [pc, #112]	; (200083f0 <dcd_init+0x13c>)
2000837e:	4a1d      	ldr	r2, [pc, #116]	; (200083f4 <dcd_init+0x140>)
20008380:	0030      	movs	r0, r6
20008382:	601a      	str	r2, [r3, #0]
20008384:	2380      	movs	r3, #128	; 0x80
20008386:	059b      	lsls	r3, r3, #22
20008388:	642f      	str	r7, [r5, #64]	; 0x40
2000838a:	64eb      	str	r3, [r5, #76]	; 0x4c
2000838c:	2390      	movs	r3, #144	; 0x90
2000838e:	4a1a      	ldr	r2, [pc, #104]	; (200083f8 <dcd_init+0x144>)
20008390:	50ea      	str	r2, [r5, r3]
20008392:	f7ff ff87 	bl	200082a4 <dcd_connect>
20008396:	bc04      	pop	{r2}
20008398:	4690      	mov	r8, r2
2000839a:	bdf0      	pop	{r4, r5, r6, r7, pc}
2000839c:	50110000 	.word	0x50110000
200083a0:	20008069 	.word	0x20008069
200083a4:	2000cf20 	.word	0x2000cf20
200083a8:	50100084 	.word	0x50100084
200083ac:	50100100 	.word	0x50100100
200083b0:	50100080 	.word	0x50100080
200083b4:	50100000 	.word	0x50100000
200083b8:	50100008 	.word	0x50100008
200083bc:	50100010 	.word	0x50100010
200083c0:	50100018 	.word	0x50100018
200083c4:	50100020 	.word	0x50100020
200083c8:	50100028 	.word	0x50100028
200083cc:	50100030 	.word	0x50100030
200083d0:	50100038 	.word	0x50100038
200083d4:	50100040 	.word	0x50100040
200083d8:	50100048 	.word	0x50100048
200083dc:	50100050 	.word	0x50100050
200083e0:	50100058 	.word	0x50100058
200083e4:	50100060 	.word	0x50100060
200083e8:	50100068 	.word	0x50100068
200083ec:	50100070 	.word	0x50100070
200083f0:	2000d338 	.word	0x2000d338
200083f4:	50100180 	.word	0x50100180
200083f8:	0001d010 	.word	0x0001d010

200083fc <dcd_edpt0_status_complete>:
200083fc:	780b      	ldrb	r3, [r1, #0]
200083fe:	065b      	lsls	r3, r3, #25
20008400:	d102      	bne.n	20008408 <dcd_edpt0_status_complete+0xc>
20008402:	784b      	ldrb	r3, [r1, #1]
20008404:	2b05      	cmp	r3, #5
20008406:	d000      	beq.n	2000840a <dcd_edpt0_status_complete+0xe>
20008408:	4770      	bx	lr
2000840a:	788a      	ldrb	r2, [r1, #2]
2000840c:	4b01      	ldr	r3, [pc, #4]	; (20008414 <dcd_edpt0_status_complete+0x18>)
2000840e:	601a      	str	r2, [r3, #0]
20008410:	e7fa      	b.n	20008408 <dcd_edpt0_status_complete+0xc>
20008412:	46c0      	nop			; (mov r8, r8)
20008414:	50110000 	.word	0x50110000

20008418 <dcd_edpt_open>:
20008418:	b5f0      	push	{r4, r5, r6, r7, lr}
2000841a:	46ce      	mov	lr, r9
2000841c:	4647      	mov	r7, r8
2000841e:	2307      	movs	r3, #7
20008420:	b580      	push	{r7, lr}
20008422:	7948      	ldrb	r0, [r1, #5]
20008424:	788e      	ldrb	r6, [r1, #2]
20008426:	790a      	ldrb	r2, [r1, #4]
20008428:	4003      	ands	r3, r0
2000842a:	78c8      	ldrb	r0, [r1, #3]
2000842c:	217f      	movs	r1, #127	; 0x7f
2000842e:	0780      	lsls	r0, r0, #30
20008430:	4031      	ands	r1, r6
20008432:	021b      	lsls	r3, r3, #8
20008434:	09f4      	lsrs	r4, r6, #7
20008436:	4313      	orrs	r3, r2
20008438:	004f      	lsls	r7, r1, #1
2000843a:	0f82      	lsrs	r2, r0, #30
2000843c:	4694      	mov	ip, r2
2000843e:	4691      	mov	r9, r2
20008440:	4d2a      	ldr	r5, [pc, #168]	; (200084ec <dcd_edpt_open+0xd4>)
20008442:	193a      	adds	r2, r7, r4
20008444:	0152      	lsls	r2, r2, #5
20008446:	18aa      	adds	r2, r5, r2
20008448:	7096      	strb	r6, [r2, #2]
2000844a:	2601      	movs	r6, #1
2000844c:	4066      	eors	r6, r4
2000844e:	7056      	strb	r6, [r2, #1]
20008450:	4660      	mov	r0, ip
20008452:	2600      	movs	r6, #0
20008454:	8393      	strh	r3, [r2, #28]
20008456:	70d6      	strb	r6, [r2, #3]
20008458:	7790      	strb	r0, [r2, #30]
2000845a:	00ca      	lsls	r2, r1, #3
2000845c:	2c01      	cmp	r4, #1
2000845e:	d029      	beq.n	200084b4 <dcd_edpt_open+0x9c>
20008460:	4823      	ldr	r0, [pc, #140]	; (200084f0 <dcd_edpt_open+0xd8>)
20008462:	4684      	mov	ip, r0
20008464:	0188      	lsls	r0, r1, #6
20008466:	4462      	add	r2, ip
20008468:	4684      	mov	ip, r0
2000846a:	44ac      	add	ip, r5
2000846c:	4660      	mov	r0, ip
2000846e:	6082      	str	r2, [r0, #8]
20008470:	6016      	str	r6, [r2, #0]
20008472:	2900      	cmp	r1, #0
20008474:	d029      	beq.n	200084ca <dcd_edpt_open+0xb2>
20008476:	4a1f      	ldr	r2, [pc, #124]	; (200084f4 <dcd_edpt_open+0xdc>)
20008478:	00c9      	lsls	r1, r1, #3
2000847a:	4690      	mov	r8, r2
2000847c:	4441      	add	r1, r8
2000847e:	6041      	str	r1, [r0, #4]
20008480:	223f      	movs	r2, #63	; 0x3f
20008482:	333f      	adds	r3, #63	; 0x3f
20008484:	4393      	bics	r3, r2
20008486:	464a      	mov	r2, r9
20008488:	2a02      	cmp	r2, #2
2000848a:	d100      	bne.n	2000848e <dcd_edpt_open+0x76>
2000848c:	005b      	lsls	r3, r3, #1
2000848e:	491a      	ldr	r1, [pc, #104]	; (200084f8 <dcd_edpt_open+0xe0>)
20008490:	193f      	adds	r7, r7, r4
20008492:	680a      	ldr	r2, [r1, #0]
20008494:	017f      	lsls	r7, r7, #5
20008496:	18d3      	adds	r3, r2, r3
20008498:	600b      	str	r3, [r1, #0]
2000849a:	4b18      	ldr	r3, [pc, #96]	; (200084fc <dcd_edpt_open+0xe4>)
2000849c:	19ed      	adds	r5, r5, r7
2000849e:	4053      	eors	r3, r2
200084a0:	60ea      	str	r2, [r5, #12]
200084a2:	464a      	mov	r2, r9
200084a4:	0690      	lsls	r0, r2, #26
200084a6:	4318      	orrs	r0, r3
200084a8:	2380      	movs	r3, #128	; 0x80
200084aa:	061b      	lsls	r3, r3, #24
200084ac:	4318      	orrs	r0, r3
200084ae:	686b      	ldr	r3, [r5, #4]
200084b0:	6018      	str	r0, [r3, #0]
200084b2:	e010      	b.n	200084d6 <dcd_edpt_open+0xbe>
200084b4:	4812      	ldr	r0, [pc, #72]	; (20008500 <dcd_edpt_open+0xe8>)
200084b6:	4684      	mov	ip, r0
200084b8:	0188      	lsls	r0, r1, #6
200084ba:	4462      	add	r2, ip
200084bc:	4684      	mov	ip, r0
200084be:	44ac      	add	ip, r5
200084c0:	4660      	mov	r0, ip
200084c2:	6282      	str	r2, [r0, #40]	; 0x28
200084c4:	6016      	str	r6, [r2, #0]
200084c6:	2900      	cmp	r1, #0
200084c8:	d10a      	bne.n	200084e0 <dcd_edpt_open+0xc8>
200084ca:	2300      	movs	r3, #0
200084cc:	0164      	lsls	r4, r4, #5
200084ce:	192d      	adds	r5, r5, r4
200084d0:	606b      	str	r3, [r5, #4]
200084d2:	4b0c      	ldr	r3, [pc, #48]	; (20008504 <dcd_edpt_open+0xec>)
200084d4:	60eb      	str	r3, [r5, #12]
200084d6:	2001      	movs	r0, #1
200084d8:	bc0c      	pop	{r2, r3}
200084da:	4690      	mov	r8, r2
200084dc:	4699      	mov	r9, r3
200084de:	bdf0      	pop	{r4, r5, r6, r7, pc}
200084e0:	4a06      	ldr	r2, [pc, #24]	; (200084fc <dcd_edpt_open+0xe4>)
200084e2:	00c9      	lsls	r1, r1, #3
200084e4:	4690      	mov	r8, r2
200084e6:	4441      	add	r1, r8
200084e8:	6241      	str	r1, [r0, #36]	; 0x24
200084ea:	e7c9      	b.n	20008480 <dcd_edpt_open+0x68>
200084ec:	2000cf20 	.word	0x2000cf20
200084f0:	50100084 	.word	0x50100084
200084f4:	50100004 	.word	0x50100004
200084f8:	2000d338 	.word	0x2000d338
200084fc:	50100000 	.word	0x50100000
20008500:	50100080 	.word	0x50100080
20008504:	50100100 	.word	0x50100100

20008508 <dcd_edpt_close_all>:
20008508:	2300      	movs	r3, #0
2000850a:	4a1c      	ldr	r2, [pc, #112]	; (2000857c <dcd_edpt_close_all+0x74>)
2000850c:	b510      	push	{r4, lr}
2000850e:	6093      	str	r3, [r2, #8]
20008510:	60d3      	str	r3, [r2, #12]
20008512:	4a1b      	ldr	r2, [pc, #108]	; (20008580 <dcd_edpt_close_all+0x78>)
20008514:	2100      	movs	r1, #0
20008516:	6093      	str	r3, [r2, #8]
20008518:	60d3      	str	r3, [r2, #12]
2000851a:	4a1a      	ldr	r2, [pc, #104]	; (20008584 <dcd_edpt_close_all+0x7c>)
2000851c:	481a      	ldr	r0, [pc, #104]	; (20008588 <dcd_edpt_close_all+0x80>)
2000851e:	6093      	str	r3, [r2, #8]
20008520:	60d3      	str	r3, [r2, #12]
20008522:	4a1a      	ldr	r2, [pc, #104]	; (2000858c <dcd_edpt_close_all+0x84>)
20008524:	6093      	str	r3, [r2, #8]
20008526:	60d3      	str	r3, [r2, #12]
20008528:	4a19      	ldr	r2, [pc, #100]	; (20008590 <dcd_edpt_close_all+0x88>)
2000852a:	6093      	str	r3, [r2, #8]
2000852c:	60d3      	str	r3, [r2, #12]
2000852e:	4a19      	ldr	r2, [pc, #100]	; (20008594 <dcd_edpt_close_all+0x8c>)
20008530:	6093      	str	r3, [r2, #8]
20008532:	60d3      	str	r3, [r2, #12]
20008534:	4a18      	ldr	r2, [pc, #96]	; (20008598 <dcd_edpt_close_all+0x90>)
20008536:	6093      	str	r3, [r2, #8]
20008538:	60d3      	str	r3, [r2, #12]
2000853a:	4a18      	ldr	r2, [pc, #96]	; (2000859c <dcd_edpt_close_all+0x94>)
2000853c:	6093      	str	r3, [r2, #8]
2000853e:	60d3      	str	r3, [r2, #12]
20008540:	4a17      	ldr	r2, [pc, #92]	; (200085a0 <dcd_edpt_close_all+0x98>)
20008542:	6093      	str	r3, [r2, #8]
20008544:	60d3      	str	r3, [r2, #12]
20008546:	4a17      	ldr	r2, [pc, #92]	; (200085a4 <dcd_edpt_close_all+0x9c>)
20008548:	6093      	str	r3, [r2, #8]
2000854a:	60d3      	str	r3, [r2, #12]
2000854c:	4a16      	ldr	r2, [pc, #88]	; (200085a8 <dcd_edpt_close_all+0xa0>)
2000854e:	6093      	str	r3, [r2, #8]
20008550:	60d3      	str	r3, [r2, #12]
20008552:	4a16      	ldr	r2, [pc, #88]	; (200085ac <dcd_edpt_close_all+0xa4>)
20008554:	6093      	str	r3, [r2, #8]
20008556:	60d3      	str	r3, [r2, #12]
20008558:	4a15      	ldr	r2, [pc, #84]	; (200085b0 <dcd_edpt_close_all+0xa8>)
2000855a:	6093      	str	r3, [r2, #8]
2000855c:	60d3      	str	r3, [r2, #12]
2000855e:	4a15      	ldr	r2, [pc, #84]	; (200085b4 <dcd_edpt_close_all+0xac>)
20008560:	6093      	str	r3, [r2, #8]
20008562:	60d3      	str	r3, [r2, #12]
20008564:	4a14      	ldr	r2, [pc, #80]	; (200085b8 <dcd_edpt_close_all+0xb0>)
20008566:	6093      	str	r3, [r2, #8]
20008568:	60d3      	str	r3, [r2, #12]
2000856a:	22f0      	movs	r2, #240	; 0xf0
2000856c:	0092      	lsls	r2, r2, #2
2000856e:	f7ff f8c1 	bl	200076f4 <__wrap_memset>
20008572:	4b12      	ldr	r3, [pc, #72]	; (200085bc <dcd_edpt_close_all+0xb4>)
20008574:	4a12      	ldr	r2, [pc, #72]	; (200085c0 <dcd_edpt_close_all+0xb8>)
20008576:	601a      	str	r2, [r3, #0]
20008578:	bd10      	pop	{r4, pc}
2000857a:	46c0      	nop			; (mov r8, r8)
2000857c:	50100000 	.word	0x50100000
20008580:	50100008 	.word	0x50100008
20008584:	50100010 	.word	0x50100010
20008588:	2000cf60 	.word	0x2000cf60
2000858c:	50100018 	.word	0x50100018
20008590:	50100020 	.word	0x50100020
20008594:	50100028 	.word	0x50100028
20008598:	50100030 	.word	0x50100030
2000859c:	50100038 	.word	0x50100038
200085a0:	50100040 	.word	0x50100040
200085a4:	50100048 	.word	0x50100048
200085a8:	50100050 	.word	0x50100050
200085ac:	50100058 	.word	0x50100058
200085b0:	50100060 	.word	0x50100060
200085b4:	50100068 	.word	0x50100068
200085b8:	50100070 	.word	0x50100070
200085bc:	2000d338 	.word	0x2000d338
200085c0:	50100180 	.word	0x50100180

200085c4 <dcd_edpt_xfer>:
200085c4:	b510      	push	{r4, lr}
200085c6:	207f      	movs	r0, #127	; 0x7f
200085c8:	000c      	movs	r4, r1
200085ca:	4020      	ands	r0, r4
200085cc:	0040      	lsls	r0, r0, #1
200085ce:	09e4      	lsrs	r4, r4, #7
200085d0:	0011      	movs	r1, r2
200085d2:	1900      	adds	r0, r0, r4
200085d4:	001a      	movs	r2, r3
200085d6:	4b03      	ldr	r3, [pc, #12]	; (200085e4 <dcd_edpt_xfer+0x20>)
200085d8:	0140      	lsls	r0, r0, #5
200085da:	18c0      	adds	r0, r0, r3
200085dc:	f000 f894 	bl	20008708 <hw_endpoint_xfer_start>
200085e0:	2001      	movs	r0, #1
200085e2:	bd10      	pop	{r4, pc}
200085e4:	2000cf20 	.word	0x2000cf20

200085e8 <dcd_edpt_stall>:
200085e8:	237f      	movs	r3, #127	; 0x7f
200085ea:	0018      	movs	r0, r3
200085ec:	b510      	push	{r4, lr}
200085ee:	4008      	ands	r0, r1
200085f0:	420b      	tst	r3, r1
200085f2:	d00b      	beq.n	2000860c <dcd_edpt_stall+0x24>
200085f4:	09c9      	lsrs	r1, r1, #7
200085f6:	2280      	movs	r2, #128	; 0x80
200085f8:	0040      	lsls	r0, r0, #1
200085fa:	1840      	adds	r0, r0, r1
200085fc:	4906      	ldr	r1, [pc, #24]	; (20008618 <dcd_edpt_stall+0x30>)
200085fe:	0140      	lsls	r0, r0, #5
20008600:	1840      	adds	r0, r0, r1
20008602:	0112      	lsls	r2, r2, #4
20008604:	2100      	movs	r1, #0
20008606:	f000 f85f 	bl	200086c8 <_hw_endpoint_buffer_control_update32>
2000860a:	bd10      	pop	{r4, pc}
2000860c:	2302      	movs	r3, #2
2000860e:	4a03      	ldr	r2, [pc, #12]	; (2000861c <dcd_edpt_stall+0x34>)
20008610:	09c9      	lsrs	r1, r1, #7
20008612:	1a5b      	subs	r3, r3, r1
20008614:	6693      	str	r3, [r2, #104]	; 0x68
20008616:	e7ee      	b.n	200085f6 <dcd_edpt_stall+0xe>
20008618:	2000cf20 	.word	0x2000cf20
2000861c:	50112000 	.word	0x50112000

20008620 <dcd_edpt_clear_stall>:
20008620:	237f      	movs	r3, #127	; 0x7f
20008622:	0018      	movs	r0, r3
20008624:	b510      	push	{r4, lr}
20008626:	4008      	ands	r0, r1
20008628:	420b      	tst	r3, r1
2000862a:	d100      	bne.n	2000862e <dcd_edpt_clear_stall+0xe>
2000862c:	bd10      	pop	{r4, pc}
2000862e:	2300      	movs	r3, #0
20008630:	0040      	lsls	r0, r0, #1
20008632:	09c9      	lsrs	r1, r1, #7
20008634:	1841      	adds	r1, r0, r1
20008636:	4804      	ldr	r0, [pc, #16]	; (20008648 <dcd_edpt_clear_stall+0x28>)
20008638:	0149      	lsls	r1, r1, #5
2000863a:	1840      	adds	r0, r0, r1
2000863c:	2200      	movs	r2, #0
2000863e:	4903      	ldr	r1, [pc, #12]	; (2000864c <dcd_edpt_clear_stall+0x2c>)
20008640:	70c3      	strb	r3, [r0, #3]
20008642:	f000 f841 	bl	200086c8 <_hw_endpoint_buffer_control_update32>
20008646:	e7f1      	b.n	2000862c <dcd_edpt_clear_stall+0xc>
20008648:	2000cf20 	.word	0x2000cf20
2000864c:	fffff7ff 	.word	0xfffff7ff

20008650 <_hw_endpoint_buffer_control_update32.part.0>:
20008650:	217f      	movs	r1, #127	; 0x7f
20008652:	b510      	push	{r4, lr}
20008654:	7880      	ldrb	r0, [r0, #2]
20008656:	4a04      	ldr	r2, [pc, #16]	; (20008668 <_hw_endpoint_buffer_control_update32.part.0+0x18>)
20008658:	09c3      	lsrs	r3, r0, #7
2000865a:	009b      	lsls	r3, r3, #2
2000865c:	4001      	ands	r1, r0
2000865e:	589a      	ldr	r2, [r3, r2]
20008660:	4802      	ldr	r0, [pc, #8]	; (2000866c <_hw_endpoint_buffer_control_update32.part.0+0x1c>)
20008662:	f7fb fc0b 	bl	20003e7c <panic>
20008666:	46c0      	nop			; (mov r8, r8)
20008668:	2000c838 	.word	0x2000c838
2000866c:	2000c3e0 	.word	0x2000c3e0

20008670 <rp2040_usb_init>:
20008670:	2280      	movs	r2, #128	; 0x80
20008672:	4b0d      	ldr	r3, [pc, #52]	; (200086a8 <rp2040_usb_init+0x38>)
20008674:	0452      	lsls	r2, r2, #17
20008676:	b510      	push	{r4, lr}
20008678:	601a      	str	r2, [r3, #0]
2000867a:	4b0c      	ldr	r3, [pc, #48]	; (200086ac <rp2040_usb_init+0x3c>)
2000867c:	490c      	ldr	r1, [pc, #48]	; (200086b0 <rp2040_usb_init+0x40>)
2000867e:	601a      	str	r2, [r3, #0]
20008680:	0010      	movs	r0, r2
20008682:	688b      	ldr	r3, [r1, #8]
20008684:	4398      	bics	r0, r3
20008686:	d1fb      	bne.n	20008680 <rp2040_usb_init+0x10>
20008688:	4c0a      	ldr	r4, [pc, #40]	; (200086b4 <rp2040_usb_init+0x44>)
2000868a:	229c      	movs	r2, #156	; 0x9c
2000868c:	2100      	movs	r1, #0
2000868e:	0020      	movs	r0, r4
20008690:	f7ff f830 	bl	200076f4 <__wrap_memset>
20008694:	2280      	movs	r2, #128	; 0x80
20008696:	2100      	movs	r1, #0
20008698:	0152      	lsls	r2, r2, #5
2000869a:	4807      	ldr	r0, [pc, #28]	; (200086b8 <rp2040_usb_init+0x48>)
2000869c:	f7ff f82a 	bl	200076f4 <__wrap_memset>
200086a0:	2309      	movs	r3, #9
200086a2:	6763      	str	r3, [r4, #116]	; 0x74
200086a4:	bd10      	pop	{r4, pc}
200086a6:	46c0      	nop			; (mov r8, r8)
200086a8:	4000e000 	.word	0x4000e000
200086ac:	4000f000 	.word	0x4000f000
200086b0:	4000c000 	.word	0x4000c000
200086b4:	50110000 	.word	0x50110000
200086b8:	50100000 	.word	0x50100000

200086bc <hw_endpoint_reset_transfer>:
200086bc:	2300      	movs	r3, #0
200086be:	7403      	strb	r3, [r0, #16]
200086c0:	8243      	strh	r3, [r0, #18]
200086c2:	8283      	strh	r3, [r0, #20]
200086c4:	6183      	str	r3, [r0, #24]
200086c6:	4770      	bx	lr

200086c8 <_hw_endpoint_buffer_control_update32>:
200086c8:	b510      	push	{r4, lr}
200086ca:	6883      	ldr	r3, [r0, #8]
200086cc:	2900      	cmp	r1, #0
200086ce:	d001      	beq.n	200086d4 <_hw_endpoint_buffer_control_update32+0xc>
200086d0:	681c      	ldr	r4, [r3, #0]
200086d2:	4021      	ands	r1, r4
200086d4:	2a00      	cmp	r2, #0
200086d6:	d011      	beq.n	200086fc <_hw_endpoint_buffer_control_update32+0x34>
200086d8:	2480      	movs	r4, #128	; 0x80
200086da:	00e4      	lsls	r4, r4, #3
200086dc:	4311      	orrs	r1, r2
200086de:	4222      	tst	r2, r4
200086e0:	d00c      	beq.n	200086fc <_hw_endpoint_buffer_control_update32+0x34>
200086e2:	681a      	ldr	r2, [r3, #0]
200086e4:	4222      	tst	r2, r4
200086e6:	d10b      	bne.n	20008700 <_hw_endpoint_buffer_control_update32+0x38>
200086e8:	4a06      	ldr	r2, [pc, #24]	; (20008704 <_hw_endpoint_buffer_control_update32+0x3c>)
200086ea:	400a      	ands	r2, r1
200086ec:	601a      	str	r2, [r3, #0]
200086ee:	e7ff      	b.n	200086f0 <_hw_endpoint_buffer_control_update32+0x28>
200086f0:	e7ff      	b.n	200086f2 <_hw_endpoint_buffer_control_update32+0x2a>
200086f2:	e7ff      	b.n	200086f4 <_hw_endpoint_buffer_control_update32+0x2c>
200086f4:	e7ff      	b.n	200086f6 <_hw_endpoint_buffer_control_update32+0x2e>
200086f6:	e7ff      	b.n	200086f8 <_hw_endpoint_buffer_control_update32+0x30>
200086f8:	e7ff      	b.n	200086fa <_hw_endpoint_buffer_control_update32+0x32>
200086fa:	6883      	ldr	r3, [r0, #8]
200086fc:	6019      	str	r1, [r3, #0]
200086fe:	bd10      	pop	{r4, pc}
20008700:	f7ff ffa6 	bl	20008650 <_hw_endpoint_buffer_control_update32.part.0>
20008704:	fffffbff 	.word	0xfffffbff

20008708 <hw_endpoint_xfer_start>:
20008708:	b5f0      	push	{r4, r5, r6, r7, lr}
2000870a:	46c6      	mov	lr, r8
2000870c:	2300      	movs	r3, #0
2000870e:	b500      	push	{lr}
20008710:	8283      	strh	r3, [r0, #20]
20008712:	3301      	adds	r3, #1
20008714:	7403      	strb	r3, [r0, #16]
20008716:	6843      	ldr	r3, [r0, #4]
20008718:	0004      	movs	r4, r0
2000871a:	681e      	ldr	r6, [r3, #0]
2000871c:	8b83      	ldrh	r3, [r0, #28]
2000871e:	6181      	str	r1, [r0, #24]
20008720:	1c1f      	adds	r7, r3, #0
20008722:	4293      	cmp	r3, r2
20008724:	d900      	bls.n	20008728 <hw_endpoint_xfer_start+0x20>
20008726:	1c17      	adds	r7, r2, #0
20008728:	2580      	movs	r5, #128	; 0x80
2000872a:	b2bf      	uxth	r7, r7
2000872c:	1bd2      	subs	r2, r2, r7
2000872e:	78e3      	ldrb	r3, [r4, #3]
20008730:	b292      	uxth	r2, r2
20008732:	00ed      	lsls	r5, r5, #3
20008734:	8262      	strh	r2, [r4, #18]
20008736:	433d      	orrs	r5, r7
20008738:	2b00      	cmp	r3, #0
2000873a:	d002      	beq.n	20008742 <hw_endpoint_xfer_start+0x3a>
2000873c:	2590      	movs	r5, #144	; 0x90
2000873e:	01ad      	lsls	r5, r5, #6
20008740:	433d      	orrs	r5, r7
20008742:	2001      	movs	r0, #1
20008744:	4043      	eors	r3, r0
20008746:	70e3      	strb	r3, [r4, #3]
20008748:	7863      	ldrb	r3, [r4, #1]
2000874a:	2b00      	cmp	r3, #0
2000874c:	d051      	beq.n	200087f2 <hw_endpoint_xfer_start+0xea>
2000874e:	2a00      	cmp	r2, #0
20008750:	d11d      	bne.n	2000878e <hw_endpoint_xfer_start+0x86>
20008752:	23a0      	movs	r3, #160	; 0xa0
20008754:	01db      	lsls	r3, r3, #7
20008756:	431d      	orrs	r5, r3
20008758:	4b35      	ldr	r3, [pc, #212]	; (20008830 <hw_endpoint_xfer_start+0x128>)
2000875a:	6c1b      	ldr	r3, [r3, #64]	; 0x40
2000875c:	4b35      	ldr	r3, [pc, #212]	; (20008834 <hw_endpoint_xfer_start+0x12c>)
2000875e:	4033      	ands	r3, r6
20008760:	2680      	movs	r6, #128	; 0x80
20008762:	05b6      	lsls	r6, r6, #22
20008764:	431e      	orrs	r6, r3
20008766:	6863      	ldr	r3, [r4, #4]
20008768:	68a2      	ldr	r2, [r4, #8]
2000876a:	601e      	str	r6, [r3, #0]
2000876c:	6813      	ldr	r3, [r2, #0]
2000876e:	055b      	lsls	r3, r3, #21
20008770:	d45a      	bmi.n	20008828 <hw_endpoint_xfer_start+0x120>
20008772:	4b31      	ldr	r3, [pc, #196]	; (20008838 <hw_endpoint_xfer_start+0x130>)
20008774:	402b      	ands	r3, r5
20008776:	6013      	str	r3, [r2, #0]
20008778:	e7ff      	b.n	2000877a <hw_endpoint_xfer_start+0x72>
2000877a:	e7ff      	b.n	2000877c <hw_endpoint_xfer_start+0x74>
2000877c:	e7ff      	b.n	2000877e <hw_endpoint_xfer_start+0x76>
2000877e:	e7ff      	b.n	20008780 <hw_endpoint_xfer_start+0x78>
20008780:	e7ff      	b.n	20008782 <hw_endpoint_xfer_start+0x7a>
20008782:	e7ff      	b.n	20008784 <hw_endpoint_xfer_start+0x7c>
20008784:	68a3      	ldr	r3, [r4, #8]
20008786:	601d      	str	r5, [r3, #0]
20008788:	bc04      	pop	{r2}
2000878a:	4690      	mov	r8, r2
2000878c:	bdf0      	pop	{r4, r5, r6, r7, pc}
2000878e:	2380      	movs	r3, #128	; 0x80
20008790:	015b      	lsls	r3, r3, #5
20008792:	431d      	orrs	r5, r3
20008794:	4b26      	ldr	r3, [pc, #152]	; (20008830 <hw_endpoint_xfer_start+0x128>)
20008796:	6c1b      	ldr	r3, [r3, #64]	; 0x40
20008798:	079b      	lsls	r3, r3, #30
2000879a:	d403      	bmi.n	200087a4 <hw_endpoint_xfer_start+0x9c>
2000879c:	78a3      	ldrb	r3, [r4, #2]
2000879e:	09db      	lsrs	r3, r3, #7
200087a0:	2b01      	cmp	r3, #1
200087a2:	d1db      	bne.n	2000875c <hw_endpoint_xfer_start+0x54>
200087a4:	8ba3      	ldrh	r3, [r4, #28]
200087a6:	1c19      	adds	r1, r3, #0
200087a8:	4293      	cmp	r3, r2
200087aa:	d900      	bls.n	200087ae <hw_endpoint_xfer_start+0xa6>
200087ac:	1c11      	adds	r1, r2, #0
200087ae:	2780      	movs	r7, #128	; 0x80
200087b0:	b28b      	uxth	r3, r1
200087b2:	00ff      	lsls	r7, r7, #3
200087b4:	1ad2      	subs	r2, r2, r3
200087b6:	4698      	mov	r8, r3
200087b8:	431f      	orrs	r7, r3
200087ba:	78e3      	ldrb	r3, [r4, #3]
200087bc:	b292      	uxth	r2, r2
200087be:	8262      	strh	r2, [r4, #18]
200087c0:	2b00      	cmp	r3, #0
200087c2:	d003      	beq.n	200087cc <hw_endpoint_xfer_start+0xc4>
200087c4:	2790      	movs	r7, #144	; 0x90
200087c6:	4641      	mov	r1, r8
200087c8:	01bf      	lsls	r7, r7, #6
200087ca:	430f      	orrs	r7, r1
200087cc:	2101      	movs	r1, #1
200087ce:	404b      	eors	r3, r1
200087d0:	70e3      	strb	r3, [r4, #3]
200087d2:	7863      	ldrb	r3, [r4, #1]
200087d4:	2b00      	cmp	r3, #0
200087d6:	d019      	beq.n	2000880c <hw_endpoint_xfer_start+0x104>
200087d8:	2a00      	cmp	r2, #0
200087da:	d102      	bne.n	200087e2 <hw_endpoint_xfer_start+0xda>
200087dc:	2380      	movs	r3, #128	; 0x80
200087de:	01db      	lsls	r3, r3, #7
200087e0:	431f      	orrs	r7, r3
200087e2:	4b16      	ldr	r3, [pc, #88]	; (2000883c <hw_endpoint_xfer_start+0x134>)
200087e4:	043f      	lsls	r7, r7, #16
200087e6:	4033      	ands	r3, r6
200087e8:	26a0      	movs	r6, #160	; 0xa0
200087ea:	05f6      	lsls	r6, r6, #23
200087ec:	433d      	orrs	r5, r7
200087ee:	431e      	orrs	r6, r3
200087f0:	e7b9      	b.n	20008766 <hw_endpoint_xfer_start+0x5e>
200087f2:	003a      	movs	r2, r7
200087f4:	68e0      	ldr	r0, [r4, #12]
200087f6:	f7fe ff83 	bl	20007700 <__wrap___aeabi_memcpy>
200087fa:	69a3      	ldr	r3, [r4, #24]
200087fc:	8a62      	ldrh	r2, [r4, #18]
200087fe:	469c      	mov	ip, r3
20008800:	2380      	movs	r3, #128	; 0x80
20008802:	4467      	add	r7, ip
20008804:	021b      	lsls	r3, r3, #8
20008806:	61a7      	str	r7, [r4, #24]
20008808:	431d      	orrs	r5, r3
2000880a:	e7a0      	b.n	2000874e <hw_endpoint_xfer_start+0x46>
2000880c:	68e0      	ldr	r0, [r4, #12]
2000880e:	4642      	mov	r2, r8
20008810:	69a1      	ldr	r1, [r4, #24]
20008812:	3040      	adds	r0, #64	; 0x40
20008814:	f7fe ff74 	bl	20007700 <__wrap___aeabi_memcpy>
20008818:	69a3      	ldr	r3, [r4, #24]
2000881a:	8a62      	ldrh	r2, [r4, #18]
2000881c:	4443      	add	r3, r8
2000881e:	61a3      	str	r3, [r4, #24]
20008820:	2380      	movs	r3, #128	; 0x80
20008822:	021b      	lsls	r3, r3, #8
20008824:	431f      	orrs	r7, r3
20008826:	e7d7      	b.n	200087d8 <hw_endpoint_xfer_start+0xd0>
20008828:	0020      	movs	r0, r4
2000882a:	f7ff ff11 	bl	20008650 <_hw_endpoint_buffer_control_update32.part.0>
2000882e:	46c0      	nop			; (mov r8, r8)
20008830:	50110000 	.word	0x50110000
20008834:	afffffff 	.word	0xafffffff
20008838:	fffffbff 	.word	0xfffffbff
2000883c:	dfffffff 	.word	0xdfffffff

20008840 <hw_endpoint_xfer_continue>:
20008840:	b5f0      	push	{r4, r5, r6, r7, lr}
20008842:	46c6      	mov	lr, r8
20008844:	b500      	push	{lr}
20008846:	7c06      	ldrb	r6, [r0, #16]
20008848:	0004      	movs	r4, r0
2000884a:	2e00      	cmp	r6, #0
2000884c:	d100      	bne.n	20008850 <hw_endpoint_xfer_continue+0x10>
2000884e:	e0d3      	b.n	200089f8 <hw_endpoint_xfer_continue+0x1b8>
20008850:	6883      	ldr	r3, [r0, #8]
20008852:	681a      	ldr	r2, [r3, #0]
20008854:	681d      	ldr	r5, [r3, #0]
20008856:	7843      	ldrb	r3, [r0, #1]
20008858:	05ad      	lsls	r5, r5, #22
2000885a:	0dad      	lsrs	r5, r5, #22
2000885c:	2b00      	cmp	r3, #0
2000885e:	d151      	bne.n	20008904 <hw_endpoint_xfer_continue+0xc4>
20008860:	8a83      	ldrh	r3, [r0, #20]
20008862:	18eb      	adds	r3, r5, r3
20008864:	b29b      	uxth	r3, r3
20008866:	8283      	strh	r3, [r0, #20]
20008868:	8ba1      	ldrh	r1, [r4, #28]
2000886a:	428d      	cmp	r5, r1
2000886c:	d207      	bcs.n	2000887e <hw_endpoint_xfer_continue+0x3e>
2000886e:	2300      	movs	r3, #0
20008870:	8263      	strh	r3, [r4, #18]
20008872:	6863      	ldr	r3, [r4, #4]
20008874:	681b      	ldr	r3, [r3, #0]
20008876:	0030      	movs	r0, r6
20008878:	bc04      	pop	{r2}
2000887a:	4690      	mov	r8, r2
2000887c:	bdf0      	pop	{r4, r5, r6, r7, pc}
2000887e:	6862      	ldr	r2, [r4, #4]
20008880:	6812      	ldr	r2, [r2, #0]
20008882:	0052      	lsls	r2, r2, #1
20008884:	d502      	bpl.n	2000888c <hw_endpoint_xfer_continue+0x4c>
20008886:	428d      	cmp	r5, r1
20008888:	d100      	bne.n	2000888c <hw_endpoint_xfer_continue+0x4c>
2000888a:	e075      	b.n	20008978 <hw_endpoint_xfer_continue+0x138>
2000888c:	8a63      	ldrh	r3, [r4, #18]
2000888e:	2b00      	cmp	r3, #0
20008890:	d0f1      	beq.n	20008876 <hw_endpoint_xfer_continue+0x36>
20008892:	6862      	ldr	r2, [r4, #4]
20008894:	1c1f      	adds	r7, r3, #0
20008896:	6816      	ldr	r6, [r2, #0]
20008898:	428b      	cmp	r3, r1
2000889a:	d900      	bls.n	2000889e <hw_endpoint_xfer_continue+0x5e>
2000889c:	1c0f      	adds	r7, r1, #0
2000889e:	2580      	movs	r5, #128	; 0x80
200088a0:	b2bf      	uxth	r7, r7
200088a2:	1bdb      	subs	r3, r3, r7
200088a4:	78e2      	ldrb	r2, [r4, #3]
200088a6:	b29b      	uxth	r3, r3
200088a8:	00ed      	lsls	r5, r5, #3
200088aa:	8263      	strh	r3, [r4, #18]
200088ac:	433d      	orrs	r5, r7
200088ae:	2a00      	cmp	r2, #0
200088b0:	d002      	beq.n	200088b8 <hw_endpoint_xfer_continue+0x78>
200088b2:	2590      	movs	r5, #144	; 0x90
200088b4:	01ad      	lsls	r5, r5, #6
200088b6:	433d      	orrs	r5, r7
200088b8:	2101      	movs	r1, #1
200088ba:	404a      	eors	r2, r1
200088bc:	70e2      	strb	r2, [r4, #3]
200088be:	7862      	ldrb	r2, [r4, #1]
200088c0:	2a00      	cmp	r2, #0
200088c2:	d068      	beq.n	20008996 <hw_endpoint_xfer_continue+0x156>
200088c4:	2b00      	cmp	r3, #0
200088c6:	d12a      	bne.n	2000891e <hw_endpoint_xfer_continue+0xde>
200088c8:	23a0      	movs	r3, #160	; 0xa0
200088ca:	01db      	lsls	r3, r3, #7
200088cc:	431d      	orrs	r5, r3
200088ce:	4b4f      	ldr	r3, [pc, #316]	; (20008a0c <hw_endpoint_xfer_continue+0x1cc>)
200088d0:	6c1b      	ldr	r3, [r3, #64]	; 0x40
200088d2:	4b4f      	ldr	r3, [pc, #316]	; (20008a10 <hw_endpoint_xfer_continue+0x1d0>)
200088d4:	4033      	ands	r3, r6
200088d6:	2680      	movs	r6, #128	; 0x80
200088d8:	05b6      	lsls	r6, r6, #22
200088da:	431e      	orrs	r6, r3
200088dc:	6863      	ldr	r3, [r4, #4]
200088de:	68a2      	ldr	r2, [r4, #8]
200088e0:	601e      	str	r6, [r3, #0]
200088e2:	6813      	ldr	r3, [r2, #0]
200088e4:	055b      	lsls	r3, r3, #21
200088e6:	d500      	bpl.n	200088ea <hw_endpoint_xfer_continue+0xaa>
200088e8:	e08d      	b.n	20008a06 <hw_endpoint_xfer_continue+0x1c6>
200088ea:	4b4a      	ldr	r3, [pc, #296]	; (20008a14 <hw_endpoint_xfer_continue+0x1d4>)
200088ec:	402b      	ands	r3, r5
200088ee:	6013      	str	r3, [r2, #0]
200088f0:	e7ff      	b.n	200088f2 <hw_endpoint_xfer_continue+0xb2>
200088f2:	e7ff      	b.n	200088f4 <hw_endpoint_xfer_continue+0xb4>
200088f4:	e7ff      	b.n	200088f6 <hw_endpoint_xfer_continue+0xb6>
200088f6:	e7ff      	b.n	200088f8 <hw_endpoint_xfer_continue+0xb8>
200088f8:	e7ff      	b.n	200088fa <hw_endpoint_xfer_continue+0xba>
200088fa:	e7ff      	b.n	200088fc <hw_endpoint_xfer_continue+0xbc>
200088fc:	68a3      	ldr	r3, [r4, #8]
200088fe:	2600      	movs	r6, #0
20008900:	601d      	str	r5, [r3, #0]
20008902:	e7b8      	b.n	20008876 <hw_endpoint_xfer_continue+0x36>
20008904:	002a      	movs	r2, r5
20008906:	68c1      	ldr	r1, [r0, #12]
20008908:	6980      	ldr	r0, [r0, #24]
2000890a:	f7fe fef9 	bl	20007700 <__wrap___aeabi_memcpy>
2000890e:	8aa3      	ldrh	r3, [r4, #20]
20008910:	69a2      	ldr	r2, [r4, #24]
20008912:	18eb      	adds	r3, r5, r3
20008914:	b29b      	uxth	r3, r3
20008916:	1952      	adds	r2, r2, r5
20008918:	82a3      	strh	r3, [r4, #20]
2000891a:	61a2      	str	r2, [r4, #24]
2000891c:	e7a4      	b.n	20008868 <hw_endpoint_xfer_continue+0x28>
2000891e:	2280      	movs	r2, #128	; 0x80
20008920:	0152      	lsls	r2, r2, #5
20008922:	4315      	orrs	r5, r2
20008924:	4a39      	ldr	r2, [pc, #228]	; (20008a0c <hw_endpoint_xfer_continue+0x1cc>)
20008926:	6c12      	ldr	r2, [r2, #64]	; 0x40
20008928:	0792      	lsls	r2, r2, #30
2000892a:	d403      	bmi.n	20008934 <hw_endpoint_xfer_continue+0xf4>
2000892c:	78a2      	ldrb	r2, [r4, #2]
2000892e:	09d2      	lsrs	r2, r2, #7
20008930:	2a01      	cmp	r2, #1
20008932:	d1ce      	bne.n	200088d2 <hw_endpoint_xfer_continue+0x92>
20008934:	8ba2      	ldrh	r2, [r4, #28]
20008936:	1c11      	adds	r1, r2, #0
20008938:	429a      	cmp	r2, r3
2000893a:	d83f      	bhi.n	200089bc <hw_endpoint_xfer_continue+0x17c>
2000893c:	2780      	movs	r7, #128	; 0x80
2000893e:	b28a      	uxth	r2, r1
20008940:	00ff      	lsls	r7, r7, #3
20008942:	1a9b      	subs	r3, r3, r2
20008944:	4690      	mov	r8, r2
20008946:	4317      	orrs	r7, r2
20008948:	78e2      	ldrb	r2, [r4, #3]
2000894a:	b29b      	uxth	r3, r3
2000894c:	8263      	strh	r3, [r4, #18]
2000894e:	2a00      	cmp	r2, #0
20008950:	d12f      	bne.n	200089b2 <hw_endpoint_xfer_continue+0x172>
20008952:	2101      	movs	r1, #1
20008954:	404a      	eors	r2, r1
20008956:	70e2      	strb	r2, [r4, #3]
20008958:	7862      	ldrb	r2, [r4, #1]
2000895a:	2a00      	cmp	r2, #0
2000895c:	d03e      	beq.n	200089dc <hw_endpoint_xfer_continue+0x19c>
2000895e:	2b00      	cmp	r3, #0
20008960:	d102      	bne.n	20008968 <hw_endpoint_xfer_continue+0x128>
20008962:	2380      	movs	r3, #128	; 0x80
20008964:	01db      	lsls	r3, r3, #7
20008966:	431f      	orrs	r7, r3
20008968:	4b2b      	ldr	r3, [pc, #172]	; (20008a18 <hw_endpoint_xfer_continue+0x1d8>)
2000896a:	043f      	lsls	r7, r7, #16
2000896c:	4033      	ands	r3, r6
2000896e:	26a0      	movs	r6, #160	; 0xa0
20008970:	05f6      	lsls	r6, r6, #23
20008972:	433d      	orrs	r5, r7
20008974:	431e      	orrs	r6, r3
20008976:	e7b1      	b.n	200088dc <hw_endpoint_xfer_continue+0x9c>
20008978:	68a2      	ldr	r2, [r4, #8]
2000897a:	6815      	ldr	r5, [r2, #0]
2000897c:	7862      	ldrb	r2, [r4, #1]
2000897e:	01ad      	lsls	r5, r5, #6
20008980:	0dad      	lsrs	r5, r5, #22
20008982:	2a00      	cmp	r2, #0
20008984:	d11c      	bne.n	200089c0 <hw_endpoint_xfer_continue+0x180>
20008986:	18eb      	adds	r3, r5, r3
20008988:	82a3      	strh	r3, [r4, #20]
2000898a:	428d      	cmp	r5, r1
2000898c:	d300      	bcc.n	20008990 <hw_endpoint_xfer_continue+0x150>
2000898e:	e77d      	b.n	2000888c <hw_endpoint_xfer_continue+0x4c>
20008990:	2300      	movs	r3, #0
20008992:	8263      	strh	r3, [r4, #18]
20008994:	e76f      	b.n	20008876 <hw_endpoint_xfer_continue+0x36>
20008996:	003a      	movs	r2, r7
20008998:	69a1      	ldr	r1, [r4, #24]
2000899a:	68e0      	ldr	r0, [r4, #12]
2000899c:	f7fe feb0 	bl	20007700 <__wrap___aeabi_memcpy>
200089a0:	69a3      	ldr	r3, [r4, #24]
200089a2:	469c      	mov	ip, r3
200089a4:	2380      	movs	r3, #128	; 0x80
200089a6:	4467      	add	r7, ip
200089a8:	021b      	lsls	r3, r3, #8
200089aa:	431d      	orrs	r5, r3
200089ac:	61a7      	str	r7, [r4, #24]
200089ae:	8a63      	ldrh	r3, [r4, #18]
200089b0:	e788      	b.n	200088c4 <hw_endpoint_xfer_continue+0x84>
200089b2:	2790      	movs	r7, #144	; 0x90
200089b4:	4641      	mov	r1, r8
200089b6:	01bf      	lsls	r7, r7, #6
200089b8:	430f      	orrs	r7, r1
200089ba:	e7ca      	b.n	20008952 <hw_endpoint_xfer_continue+0x112>
200089bc:	1c19      	adds	r1, r3, #0
200089be:	e7bd      	b.n	2000893c <hw_endpoint_xfer_continue+0xfc>
200089c0:	68e1      	ldr	r1, [r4, #12]
200089c2:	002a      	movs	r2, r5
200089c4:	3140      	adds	r1, #64	; 0x40
200089c6:	69a0      	ldr	r0, [r4, #24]
200089c8:	f7fe fe9a 	bl	20007700 <__wrap___aeabi_memcpy>
200089cc:	8aa3      	ldrh	r3, [r4, #20]
200089ce:	8ba1      	ldrh	r1, [r4, #28]
200089d0:	18eb      	adds	r3, r5, r3
200089d2:	82a3      	strh	r3, [r4, #20]
200089d4:	69a3      	ldr	r3, [r4, #24]
200089d6:	195b      	adds	r3, r3, r5
200089d8:	61a3      	str	r3, [r4, #24]
200089da:	e7d6      	b.n	2000898a <hw_endpoint_xfer_continue+0x14a>
200089dc:	68e0      	ldr	r0, [r4, #12]
200089de:	4642      	mov	r2, r8
200089e0:	69a1      	ldr	r1, [r4, #24]
200089e2:	3040      	adds	r0, #64	; 0x40
200089e4:	f7fe fe8c 	bl	20007700 <__wrap___aeabi_memcpy>
200089e8:	69a3      	ldr	r3, [r4, #24]
200089ea:	4443      	add	r3, r8
200089ec:	61a3      	str	r3, [r4, #24]
200089ee:	2380      	movs	r3, #128	; 0x80
200089f0:	021b      	lsls	r3, r3, #8
200089f2:	431f      	orrs	r7, r3
200089f4:	8a63      	ldrh	r3, [r4, #18]
200089f6:	e7b2      	b.n	2000895e <hw_endpoint_xfer_continue+0x11e>
200089f8:	237f      	movs	r3, #127	; 0x7f
200089fa:	7881      	ldrb	r1, [r0, #2]
200089fc:	4a07      	ldr	r2, [pc, #28]	; (20008a1c <hw_endpoint_xfer_continue+0x1dc>)
200089fe:	4808      	ldr	r0, [pc, #32]	; (20008a20 <hw_endpoint_xfer_continue+0x1e0>)
20008a00:	4019      	ands	r1, r3
20008a02:	f7fb fa3b 	bl	20003e7c <panic>
20008a06:	0020      	movs	r0, r4
20008a08:	f7ff fe22 	bl	20008650 <_hw_endpoint_buffer_control_update32.part.0>
20008a0c:	50110000 	.word	0x50110000
20008a10:	afffffff 	.word	0xafffffff
20008a14:	fffffbff 	.word	0xfffffbff
20008a18:	dfffffff 	.word	0xdfffffff
20008a1c:	2000c838 	.word	0x2000c838
20008a20:	2000c400 	.word	0x2000c400

20008a24 <tud_mounted>:
20008a24:	4b02      	ldr	r3, [pc, #8]	; (20008a30 <tud_mounted+0xc>)
20008a26:	7858      	ldrb	r0, [r3, #1]
20008a28:	1e43      	subs	r3, r0, #1
20008a2a:	4198      	sbcs	r0, r3
20008a2c:	b2c0      	uxtb	r0, r0
20008a2e:	4770      	bx	lr
20008a30:	2000ccfc 	.word	0x2000ccfc

20008a34 <tud_suspended>:
20008a34:	4b02      	ldr	r3, [pc, #8]	; (20008a40 <tud_suspended+0xc>)
20008a36:	7818      	ldrb	r0, [r3, #0]
20008a38:	0740      	lsls	r0, r0, #29
20008a3a:	0fc0      	lsrs	r0, r0, #31
20008a3c:	4770      	bx	lr
20008a3e:	46c0      	nop			; (mov r8, r8)
20008a40:	2000ccfc 	.word	0x2000ccfc

20008a44 <tud_inited>:
20008a44:	4b01      	ldr	r3, [pc, #4]	; (20008a4c <tud_inited+0x8>)
20008a46:	7818      	ldrb	r0, [r3, #0]
20008a48:	4770      	bx	lr
20008a4a:	46c0      	nop			; (mov r8, r8)
20008a4c:	2000d3c3 	.word	0x2000d3c3

20008a50 <tud_init>:
20008a50:	b5f8      	push	{r3, r4, r5, r6, r7, lr}
20008a52:	4647      	mov	r7, r8
20008a54:	46ce      	mov	lr, r9
20008a56:	b580      	push	{r7, lr}
20008a58:	4f29      	ldr	r7, [pc, #164]	; (20008b00 <tud_init+0xb0>)
20008a5a:	0005      	movs	r5, r0
20008a5c:	783b      	ldrb	r3, [r7, #0]
20008a5e:	2b00      	cmp	r3, #0
20008a60:	d004      	beq.n	20008a6c <tud_init+0x1c>
20008a62:	2001      	movs	r0, #1
20008a64:	bc0c      	pop	{r2, r3}
20008a66:	4690      	mov	r8, r2
20008a68:	4699      	mov	r9, r3
20008a6a:	bdf8      	pop	{r3, r4, r5, r6, r7, pc}
20008a6c:	2253      	movs	r2, #83	; 0x53
20008a6e:	2100      	movs	r1, #0
20008a70:	4824      	ldr	r0, [pc, #144]	; (20008b04 <tud_init+0xb4>)
20008a72:	f7fe fe3f 	bl	200076f4 <__wrap_memset>
20008a76:	4c24      	ldr	r4, [pc, #144]	; (20008b08 <tud_init+0xb8>)
20008a78:	0020      	movs	r0, r4
20008a7a:	f7fb f8e9 	bl	20003c50 <mutex_init>
20008a7e:	4b23      	ldr	r3, [pc, #140]	; (20008b0c <tud_init+0xbc>)
20008a80:	601c      	str	r4, [r3, #0]
20008a82:	4c23      	ldr	r4, [pc, #140]	; (20008b10 <tud_init+0xc0>)
20008a84:	0020      	movs	r0, r4
20008a86:	301c      	adds	r0, #28
20008a88:	f7fb f8fe 	bl	20003c88 <critical_section_init>
20008a8c:	0020      	movs	r0, r4
20008a8e:	f001 fcc1 	bl	2000a414 <tu_fifo_clear>
20008a92:	4b20      	ldr	r3, [pc, #128]	; (20008b14 <tud_init+0xc4>)
20008a94:	4e20      	ldr	r6, [pc, #128]	; (20008b18 <tud_init+0xc8>)
20008a96:	601c      	str	r4, [r3, #0]
20008a98:	4b20      	ldr	r3, [pc, #128]	; (20008b1c <tud_init+0xcc>)
20008a9a:	4698      	mov	r8, r3
20008a9c:	2b00      	cmp	r3, #0
20008a9e:	d004      	beq.n	20008aaa <tud_init+0x5a>
20008aa0:	0030      	movs	r0, r6
20008aa2:	f7ff f959 	bl	20007d58 <usbd_app_driver_get_cb>
20008aa6:	4b1e      	ldr	r3, [pc, #120]	; (20008b20 <tud_init+0xd0>)
20008aa8:	6018      	str	r0, [r3, #0]
20008aaa:	4642      	mov	r2, r8
20008aac:	2400      	movs	r4, #0
20008aae:	7833      	ldrb	r3, [r6, #0]
20008ab0:	2a00      	cmp	r2, #0
20008ab2:	d01d      	beq.n	20008af0 <tud_init+0xa0>
20008ab4:	4a1b      	ldr	r2, [pc, #108]	; (20008b24 <tud_init+0xd4>)
20008ab6:	4690      	mov	r8, r2
20008ab8:	4a19      	ldr	r2, [pc, #100]	; (20008b20 <tud_init+0xd0>)
20008aba:	4691      	mov	r9, r2
20008abc:	429c      	cmp	r4, r3
20008abe:	d310      	bcc.n	20008ae2 <tud_init+0x92>
20008ac0:	d11b      	bne.n	20008afa <tud_init+0xaa>
20008ac2:	4643      	mov	r3, r8
20008ac4:	4798      	blx	r3
20008ac6:	3401      	adds	r4, #1
20008ac8:	7833      	ldrb	r3, [r6, #0]
20008aca:	b2e4      	uxtb	r4, r4
20008acc:	42a3      	cmp	r3, r4
20008ace:	d2f5      	bcs.n	20008abc <tud_init+0x6c>
20008ad0:	0028      	movs	r0, r5
20008ad2:	f7ff fbef 	bl	200082b4 <dcd_init>
20008ad6:	0028      	movs	r0, r5
20008ad8:	f7ff fbd4 	bl	20008284 <dcd_int_enable>
20008adc:	2301      	movs	r3, #1
20008ade:	703b      	strb	r3, [r7, #0]
20008ae0:	e7bf      	b.n	20008a62 <tud_init+0x12>
20008ae2:	464a      	mov	r2, r9
20008ae4:	0063      	lsls	r3, r4, #1
20008ae6:	6812      	ldr	r2, [r2, #0]
20008ae8:	191b      	adds	r3, r3, r4
20008aea:	00db      	lsls	r3, r3, #3
20008aec:	589b      	ldr	r3, [r3, r2]
20008aee:	e7e9      	b.n	20008ac4 <tud_init+0x74>
20008af0:	f001 f846 	bl	20009b80 <cdcd_init>
20008af4:	7833      	ldrb	r3, [r6, #0]
20008af6:	2b00      	cmp	r3, #0
20008af8:	d0ea      	beq.n	20008ad0 <tud_init+0x80>
20008afa:	2300      	movs	r3, #0
20008afc:	681b      	ldr	r3, [r3, #0]
20008afe:	deff      	udf	#255	; 0xff
20008b00:	2000d3c3 	.word	0x2000d3c3
20008b04:	2000ccfc 	.word	0x2000ccfc
20008b08:	2000ccb4 	.word	0x2000ccb4
20008b0c:	2000cd50 	.word	0x2000cd50
20008b10:	2000c840 	.word	0x2000c840
20008b14:	2000cd54 	.word	0x2000cd54
20008b18:	2000d3c2 	.word	0x2000d3c2
20008b1c:	20007d59 	.word	0x20007d59
20008b20:	2000c9c4 	.word	0x2000c9c4
20008b24:	20009b81 	.word	0x20009b81

20008b28 <tud_task>:
20008b28:	b5f0      	push	{r4, r5, r6, r7, lr}
20008b2a:	46de      	mov	lr, fp
20008b2c:	4657      	mov	r7, sl
20008b2e:	464e      	mov	r6, r9
20008b30:	4645      	mov	r5, r8
20008b32:	b5e0      	push	{r5, r6, r7, lr}
20008b34:	b08b      	sub	sp, #44	; 0x2c
20008b36:	f001 fa2d 	bl	20009f94 <tusb_inited>
20008b3a:	2800      	cmp	r0, #0
20008b3c:	d100      	bne.n	20008b40 <tud_task+0x18>
20008b3e:	e144      	b.n	20008dca <tud_task+0x2a2>
20008b40:	4bc2      	ldr	r3, [pc, #776]	; (20008e4c <tud_task+0x324>)
20008b42:	4ec3      	ldr	r6, [pc, #780]	; (20008e50 <tud_task+0x328>)
20008b44:	469b      	mov	fp, r3
20008b46:	ac07      	add	r4, sp, #28
20008b48:	6835      	ldr	r5, [r6, #0]
20008b4a:	69ea      	ldr	r2, [r5, #28]
20008b4c:	f3ef 8310 	mrs	r3, PRIMASK
20008b50:	b672      	cpsid	i
20008b52:	6811      	ldr	r1, [r2, #0]
20008b54:	2900      	cmp	r1, #0
20008b56:	d0fc      	beq.n	20008b52 <tud_task+0x2a>
20008b58:	f3bf 8f5f 	dmb	sy
20008b5c:	622b      	str	r3, [r5, #32]
20008b5e:	0021      	movs	r1, r4
20008b60:	0028      	movs	r0, r5
20008b62:	f001 facf 	bl	2000a104 <tu_fifo_read>
20008b66:	69ea      	ldr	r2, [r5, #28]
20008b68:	6a2b      	ldr	r3, [r5, #32]
20008b6a:	f3bf 8f5f 	dmb	sy
20008b6e:	2100      	movs	r1, #0
20008b70:	6011      	str	r1, [r2, #0]
20008b72:	f383 8810 	msr	PRIMASK, r3
20008b76:	2800      	cmp	r0, #0
20008b78:	d100      	bne.n	20008b7c <tud_task+0x54>
20008b7a:	e126      	b.n	20008dca <tud_task+0x2a2>
20008b7c:	7863      	ldrb	r3, [r4, #1]
20008b7e:	2b08      	cmp	r3, #8
20008b80:	d8e2      	bhi.n	20008b48 <tud_task+0x20>
20008b82:	465a      	mov	r2, fp
20008b84:	009b      	lsls	r3, r3, #2
20008b86:	58d3      	ldr	r3, [r2, r3]
20008b88:	469f      	mov	pc, r3
20008b8a:	6863      	ldr	r3, [r4, #4]
20008b8c:	2b00      	cmp	r3, #0
20008b8e:	d0db      	beq.n	20008b48 <tud_task+0x20>
20008b90:	68a0      	ldr	r0, [r4, #8]
20008b92:	4798      	blx	r3
20008b94:	e7d8      	b.n	20008b48 <tud_task+0x20>
20008b96:	227f      	movs	r2, #127	; 0x7f
20008b98:	7921      	ldrb	r1, [r4, #4]
20008b9a:	4bae      	ldr	r3, [pc, #696]	; (20008e54 <tud_task+0x32c>)
20008b9c:	400a      	ands	r2, r1
20008b9e:	0055      	lsls	r5, r2, #1
20008ba0:	09c8      	lsrs	r0, r1, #7
20008ba2:	195b      	adds	r3, r3, r5
20008ba4:	181b      	adds	r3, r3, r0
20008ba6:	0018      	movs	r0, r3
20008ba8:	2701      	movs	r7, #1
20008baa:	3030      	adds	r0, #48	; 0x30
20008bac:	78c5      	ldrb	r5, [r0, #3]
20008bae:	43bd      	bics	r5, r7
20008bb0:	70c5      	strb	r5, [r0, #3]
20008bb2:	78c5      	ldrb	r5, [r0, #3]
20008bb4:	3703      	adds	r7, #3
20008bb6:	43bd      	bics	r5, r7
20008bb8:	70c5      	strb	r5, [r0, #3]
20008bba:	2a00      	cmp	r2, #0
20008bbc:	d100      	bne.n	20008bc0 <tud_task+0x98>
20008bbe:	e10b      	b.n	20008dd8 <tud_task+0x2b0>
20008bc0:	4aa5      	ldr	r2, [pc, #660]	; (20008e58 <tud_task+0x330>)
20008bc2:	7cdb      	ldrb	r3, [r3, #19]
20008bc4:	2a00      	cmp	r2, #0
20008bc6:	d006      	beq.n	20008bd6 <tud_task+0xae>
20008bc8:	4aa4      	ldr	r2, [pc, #656]	; (20008e5c <tud_task+0x334>)
20008bca:	7812      	ldrb	r2, [r2, #0]
20008bcc:	4293      	cmp	r3, r2
20008bce:	d200      	bcs.n	20008bd2 <tud_task+0xaa>
20008bd0:	e191      	b.n	20008ef6 <tud_task+0x3ce>
20008bd2:	1a9b      	subs	r3, r3, r2
20008bd4:	b2db      	uxtb	r3, r3
20008bd6:	2b00      	cmp	r3, #0
20008bd8:	d000      	beq.n	20008bdc <tud_task+0xb4>
20008bda:	e0f6      	b.n	20008dca <tud_task+0x2a2>
20008bdc:	4da0      	ldr	r5, [pc, #640]	; (20008e60 <tud_task+0x338>)
20008bde:	7962      	ldrb	r2, [r4, #5]
20008be0:	7820      	ldrb	r0, [r4, #0]
20008be2:	68a3      	ldr	r3, [r4, #8]
20008be4:	47a8      	blx	r5
20008be6:	e7af      	b.n	20008b48 <tud_task+0x20>
20008be8:	2201      	movs	r2, #1
20008bea:	4f9a      	ldr	r7, [pc, #616]	; (20008e54 <tud_task+0x32c>)
20008bec:	2101      	movs	r1, #1
20008bee:	783b      	ldrb	r3, [r7, #0]
20008bf0:	2004      	movs	r0, #4
20008bf2:	4313      	orrs	r3, r2
20008bf4:	703b      	strb	r3, [r7, #0]
20008bf6:	2333      	movs	r3, #51	; 0x33
20008bf8:	5cfa      	ldrb	r2, [r7, r3]
20008bfa:	438a      	bics	r2, r1
20008bfc:	54fa      	strb	r2, [r7, r3]
20008bfe:	5cfa      	ldrb	r2, [r7, r3]
20008c00:	4382      	bics	r2, r0
20008c02:	54fa      	strb	r2, [r7, r3]
20008c04:	3301      	adds	r3, #1
20008c06:	5cfa      	ldrb	r2, [r7, r3]
20008c08:	438a      	bics	r2, r1
20008c0a:	54fa      	strb	r2, [r7, r3]
20008c0c:	5cfa      	ldrb	r2, [r7, r3]
20008c0e:	4382      	bics	r2, r0
20008c10:	54fa      	strb	r2, [r7, r3]
20008c12:	7823      	ldrb	r3, [r4, #0]
20008c14:	2000      	movs	r0, #0
20008c16:	469a      	mov	sl, r3
20008c18:	f000 fe64 	bl	200098e4 <usbd_control_set_complete_callback>
20008c1c:	2260      	movs	r2, #96	; 0x60
20008c1e:	7923      	ldrb	r3, [r4, #4]
20008c20:	401a      	ands	r2, r3
20008c22:	2a60      	cmp	r2, #96	; 0x60
20008c24:	d00d      	beq.n	20008c42 <tud_task+0x11a>
20008c26:	2a40      	cmp	r2, #64	; 0x40
20008c28:	d100      	bne.n	20008c2c <tud_task+0x104>
20008c2a:	e0f2      	b.n	20008e12 <tud_task+0x2ea>
20008c2c:	06db      	lsls	r3, r3, #27
20008c2e:	0edb      	lsrs	r3, r3, #27
20008c30:	2b01      	cmp	r3, #1
20008c32:	d100      	bne.n	20008c36 <tud_task+0x10e>
20008c34:	e16a      	b.n	20008f0c <tud_task+0x3e4>
20008c36:	2b02      	cmp	r3, #2
20008c38:	d100      	bne.n	20008c3c <tud_task+0x114>
20008c3a:	e121      	b.n	20008e80 <tud_task+0x358>
20008c3c:	2b00      	cmp	r3, #0
20008c3e:	d100      	bne.n	20008c42 <tud_task+0x11a>
20008c40:	e0f6      	b.n	20008e30 <tud_task+0x308>
20008c42:	7820      	ldrb	r0, [r4, #0]
20008c44:	2100      	movs	r1, #0
20008c46:	f7ff fccf 	bl	200085e8 <dcd_edpt_stall>
20008c4a:	2180      	movs	r1, #128	; 0x80
20008c4c:	7820      	ldrb	r0, [r4, #0]
20008c4e:	f7ff fccb 	bl	200085e8 <dcd_edpt_stall>
20008c52:	e779      	b.n	20008b48 <tud_task+0x20>
20008c54:	4b7f      	ldr	r3, [pc, #508]	; (20008e54 <tud_task+0x32c>)
20008c56:	781b      	ldrb	r3, [r3, #0]
20008c58:	07db      	lsls	r3, r3, #31
20008c5a:	d400      	bmi.n	20008c5e <tud_task+0x136>
20008c5c:	e774      	b.n	20008b48 <tud_task+0x20>
20008c5e:	4b81      	ldr	r3, [pc, #516]	; (20008e64 <tud_task+0x33c>)
20008c60:	2b00      	cmp	r3, #0
20008c62:	d100      	bne.n	20008c66 <tud_task+0x13e>
20008c64:	e770      	b.n	20008b48 <tud_task+0x20>
20008c66:	e000      	b.n	20008c6a <tud_task+0x142>
20008c68:	bf00      	nop
20008c6a:	e76d      	b.n	20008b48 <tud_task+0x20>
20008c6c:	4b79      	ldr	r3, [pc, #484]	; (20008e54 <tud_task+0x32c>)
20008c6e:	781a      	ldrb	r2, [r3, #0]
20008c70:	07d2      	lsls	r2, r2, #31
20008c72:	d400      	bmi.n	20008c76 <tud_task+0x14e>
20008c74:	e768      	b.n	20008b48 <tud_task+0x20>
20008c76:	4a7c      	ldr	r2, [pc, #496]	; (20008e68 <tud_task+0x340>)
20008c78:	2a00      	cmp	r2, #0
20008c7a:	d100      	bne.n	20008c7e <tud_task+0x156>
20008c7c:	e764      	b.n	20008b48 <tud_task+0x20>
20008c7e:	7818      	ldrb	r0, [r3, #0]
20008c80:	0700      	lsls	r0, r0, #28
20008c82:	0fc0      	lsrs	r0, r0, #31
20008c84:	e000      	b.n	20008c88 <tud_task+0x160>
20008c86:	bf00      	nop
20008c88:	e75e      	b.n	20008b48 <tud_task+0x20>
20008c8a:	4d74      	ldr	r5, [pc, #464]	; (20008e5c <tud_task+0x334>)
20008c8c:	4a72      	ldr	r2, [pc, #456]	; (20008e58 <tud_task+0x330>)
20008c8e:	2700      	movs	r7, #0
20008c90:	782b      	ldrb	r3, [r5, #0]
20008c92:	2a00      	cmp	r2, #0
20008c94:	d100      	bne.n	20008c98 <tud_task+0x170>
20008c96:	e0b6      	b.n	20008e06 <tud_task+0x2de>
20008c98:	4a74      	ldr	r2, [pc, #464]	; (20008e6c <tud_task+0x344>)
20008c9a:	4690      	mov	r8, r2
20008c9c:	429f      	cmp	r7, r3
20008c9e:	d308      	bcc.n	20008cb2 <tud_task+0x18a>
20008ca0:	429f      	cmp	r7, r3
20008ca2:	d000      	beq.n	20008ca6 <tud_task+0x17e>
20008ca4:	e0b2      	b.n	20008e0c <tud_task+0x2e4>
20008ca6:	3701      	adds	r7, #1
20008ca8:	b2ff      	uxtb	r7, r7
20008caa:	429f      	cmp	r7, r3
20008cac:	d900      	bls.n	20008cb0 <tud_task+0x188>
20008cae:	e74b      	b.n	20008b48 <tud_task+0x20>
20008cb0:	d2f6      	bcs.n	20008ca0 <tud_task+0x178>
20008cb2:	4641      	mov	r1, r8
20008cb4:	6809      	ldr	r1, [r1, #0]
20008cb6:	007a      	lsls	r2, r7, #1
20008cb8:	468c      	mov	ip, r1
20008cba:	19d2      	adds	r2, r2, r7
20008cbc:	00d2      	lsls	r2, r2, #3
20008cbe:	4462      	add	r2, ip
20008cc0:	6952      	ldr	r2, [r2, #20]
20008cc2:	2a00      	cmp	r2, #0
20008cc4:	d0ef      	beq.n	20008ca6 <tud_task+0x17e>
20008cc6:	7820      	ldrb	r0, [r4, #0]
20008cc8:	4790      	blx	r2
20008cca:	3701      	adds	r7, #1
20008ccc:	782b      	ldrb	r3, [r5, #0]
20008cce:	b2ff      	uxtb	r7, r7
20008cd0:	429f      	cmp	r7, r3
20008cd2:	d9e3      	bls.n	20008c9c <tud_task+0x174>
20008cd4:	e738      	b.n	20008b48 <tud_task+0x20>
20008cd6:	7823      	ldrb	r3, [r4, #0]
20008cd8:	4d60      	ldr	r5, [pc, #384]	; (20008e5c <tud_task+0x334>)
20008cda:	4a5f      	ldr	r2, [pc, #380]	; (20008e58 <tud_task+0x330>)
20008cdc:	4698      	mov	r8, r3
20008cde:	2700      	movs	r7, #0
20008ce0:	782b      	ldrb	r3, [r5, #0]
20008ce2:	2a00      	cmp	r2, #0
20008ce4:	d100      	bne.n	20008ce8 <tud_task+0x1c0>
20008ce6:	e086      	b.n	20008df6 <tud_task+0x2ce>
20008ce8:	4a61      	ldr	r2, [pc, #388]	; (20008e70 <tud_task+0x348>)
20008cea:	4691      	mov	r9, r2
20008cec:	4a5f      	ldr	r2, [pc, #380]	; (20008e6c <tud_task+0x344>)
20008cee:	4692      	mov	sl, r2
20008cf0:	002a      	movs	r2, r5
20008cf2:	4645      	mov	r5, r8
20008cf4:	4690      	mov	r8, r2
20008cf6:	42bb      	cmp	r3, r7
20008cf8:	d85e      	bhi.n	20008db8 <tud_task+0x290>
20008cfa:	d000      	beq.n	20008cfe <tud_task+0x1d6>
20008cfc:	e078      	b.n	20008df0 <tud_task+0x2c8>
20008cfe:	464b      	mov	r3, r9
20008d00:	0028      	movs	r0, r5
20008d02:	4798      	blx	r3
20008d04:	4643      	mov	r3, r8
20008d06:	3701      	adds	r7, #1
20008d08:	781b      	ldrb	r3, [r3, #0]
20008d0a:	b2ff      	uxtb	r7, r7
20008d0c:	42bb      	cmp	r3, r7
20008d0e:	d2f2      	bcs.n	20008cf6 <tud_task+0x1ce>
20008d10:	4d50      	ldr	r5, [pc, #320]	; (20008e54 <tud_task+0x32c>)
20008d12:	2253      	movs	r2, #83	; 0x53
20008d14:	2100      	movs	r1, #0
20008d16:	0028      	movs	r0, r5
20008d18:	f7fe fcec 	bl	200076f4 <__wrap_memset>
20008d1c:	2210      	movs	r2, #16
20008d1e:	21ff      	movs	r1, #255	; 0xff
20008d20:	1ce8      	adds	r0, r5, #3
20008d22:	f7fe fce7 	bl	200076f4 <__wrap_memset>
20008d26:	0028      	movs	r0, r5
20008d28:	2220      	movs	r2, #32
20008d2a:	21ff      	movs	r1, #255	; 0xff
20008d2c:	3013      	adds	r0, #19
20008d2e:	f7fe fce1 	bl	200076f4 <__wrap_memset>
20008d32:	f000 fdcd 	bl	200098d0 <usbd_control_reset>
20008d36:	4b4f      	ldr	r3, [pc, #316]	; (20008e74 <tud_task+0x34c>)
20008d38:	2b00      	cmp	r3, #0
20008d3a:	d100      	bne.n	20008d3e <tud_task+0x216>
20008d3c:	e704      	b.n	20008b48 <tud_task+0x20>
20008d3e:	e000      	b.n	20008d42 <tud_task+0x21a>
20008d40:	bf00      	nop
20008d42:	e701      	b.n	20008b48 <tud_task+0x20>
20008d44:	7823      	ldrb	r3, [r4, #0]
20008d46:	4d45      	ldr	r5, [pc, #276]	; (20008e5c <tud_task+0x334>)
20008d48:	4a43      	ldr	r2, [pc, #268]	; (20008e58 <tud_task+0x330>)
20008d4a:	4698      	mov	r8, r3
20008d4c:	2700      	movs	r7, #0
20008d4e:	782b      	ldrb	r3, [r5, #0]
20008d50:	2a00      	cmp	r2, #0
20008d52:	d047      	beq.n	20008de4 <tud_task+0x2bc>
20008d54:	4a46      	ldr	r2, [pc, #280]	; (20008e70 <tud_task+0x348>)
20008d56:	4691      	mov	r9, r2
20008d58:	4a44      	ldr	r2, [pc, #272]	; (20008e6c <tud_task+0x344>)
20008d5a:	4692      	mov	sl, r2
20008d5c:	002a      	movs	r2, r5
20008d5e:	4645      	mov	r5, r8
20008d60:	4690      	mov	r8, r2
20008d62:	429f      	cmp	r7, r3
20008d64:	d31f      	bcc.n	20008da6 <tud_task+0x27e>
20008d66:	d143      	bne.n	20008df0 <tud_task+0x2c8>
20008d68:	464b      	mov	r3, r9
20008d6a:	0028      	movs	r0, r5
20008d6c:	4798      	blx	r3
20008d6e:	4643      	mov	r3, r8
20008d70:	3701      	adds	r7, #1
20008d72:	781b      	ldrb	r3, [r3, #0]
20008d74:	b2ff      	uxtb	r7, r7
20008d76:	42bb      	cmp	r3, r7
20008d78:	d2f3      	bcs.n	20008d62 <tud_task+0x23a>
20008d7a:	4d36      	ldr	r5, [pc, #216]	; (20008e54 <tud_task+0x32c>)
20008d7c:	2253      	movs	r2, #83	; 0x53
20008d7e:	2100      	movs	r1, #0
20008d80:	0028      	movs	r0, r5
20008d82:	f7fe fcb7 	bl	200076f4 <__wrap_memset>
20008d86:	2210      	movs	r2, #16
20008d88:	21ff      	movs	r1, #255	; 0xff
20008d8a:	1ce8      	adds	r0, r5, #3
20008d8c:	f7fe fcb2 	bl	200076f4 <__wrap_memset>
20008d90:	0028      	movs	r0, r5
20008d92:	2220      	movs	r2, #32
20008d94:	21ff      	movs	r1, #255	; 0xff
20008d96:	3013      	adds	r0, #19
20008d98:	f7fe fcac 	bl	200076f4 <__wrap_memset>
20008d9c:	f000 fd98 	bl	200098d0 <usbd_control_reset>
20008da0:	7923      	ldrb	r3, [r4, #4]
20008da2:	70ab      	strb	r3, [r5, #2]
20008da4:	e6d0      	b.n	20008b48 <tud_task+0x20>
20008da6:	4652      	mov	r2, sl
20008da8:	6812      	ldr	r2, [r2, #0]
20008daa:	007b      	lsls	r3, r7, #1
20008dac:	4694      	mov	ip, r2
20008dae:	19db      	adds	r3, r3, r7
20008db0:	00db      	lsls	r3, r3, #3
20008db2:	4463      	add	r3, ip
20008db4:	685b      	ldr	r3, [r3, #4]
20008db6:	e7d8      	b.n	20008d6a <tud_task+0x242>
20008db8:	4652      	mov	r2, sl
20008dba:	6812      	ldr	r2, [r2, #0]
20008dbc:	007b      	lsls	r3, r7, #1
20008dbe:	4694      	mov	ip, r2
20008dc0:	19db      	adds	r3, r3, r7
20008dc2:	00db      	lsls	r3, r3, #3
20008dc4:	4463      	add	r3, ip
20008dc6:	685b      	ldr	r3, [r3, #4]
20008dc8:	e79a      	b.n	20008d00 <tud_task+0x1d8>
20008dca:	b00b      	add	sp, #44	; 0x2c
20008dcc:	bc3c      	pop	{r2, r3, r4, r5}
20008dce:	4690      	mov	r8, r2
20008dd0:	4699      	mov	r9, r3
20008dd2:	46a2      	mov	sl, r4
20008dd4:	46ab      	mov	fp, r5
20008dd6:	bdf0      	pop	{r4, r5, r6, r7, pc}
20008dd8:	7962      	ldrb	r2, [r4, #5]
20008dda:	7820      	ldrb	r0, [r4, #0]
20008ddc:	68a3      	ldr	r3, [r4, #8]
20008dde:	f000 fd95 	bl	2000990c <usbd_control_xfer_cb>
20008de2:	e6b1      	b.n	20008b48 <tud_task+0x20>
20008de4:	4640      	mov	r0, r8
20008de6:	f000 ff09 	bl	20009bfc <cdcd_reset>
20008dea:	782b      	ldrb	r3, [r5, #0]
20008dec:	2b00      	cmp	r3, #0
20008dee:	d0c4      	beq.n	20008d7a <tud_task+0x252>
20008df0:	2300      	movs	r3, #0
20008df2:	685b      	ldr	r3, [r3, #4]
20008df4:	deff      	udf	#255	; 0xff
20008df6:	4640      	mov	r0, r8
20008df8:	f000 ff00 	bl	20009bfc <cdcd_reset>
20008dfc:	782b      	ldrb	r3, [r5, #0]
20008dfe:	2b00      	cmp	r3, #0
20008e00:	d100      	bne.n	20008e04 <tud_task+0x2dc>
20008e02:	e785      	b.n	20008d10 <tud_task+0x1e8>
20008e04:	e7f4      	b.n	20008df0 <tud_task+0x2c8>
20008e06:	2b00      	cmp	r3, #0
20008e08:	d100      	bne.n	20008e0c <tud_task+0x2e4>
20008e0a:	e69d      	b.n	20008b48 <tud_task+0x20>
20008e0c:	2300      	movs	r3, #0
20008e0e:	695b      	ldr	r3, [r3, #20]
20008e10:	deff      	udf	#255	; 0xff
20008e12:	4819      	ldr	r0, [pc, #100]	; (20008e78 <tud_task+0x350>)
20008e14:	2800      	cmp	r0, #0
20008e16:	d100      	bne.n	20008e1a <tud_task+0x2f2>
20008e18:	e713      	b.n	20008c42 <tud_task+0x11a>
20008e1a:	f000 fd63 	bl	200098e4 <usbd_control_set_complete_callback>
20008e1e:	2100      	movs	r1, #0
20008e20:	4650      	mov	r0, sl
20008e22:	aa08      	add	r2, sp, #32
20008e24:	e000      	b.n	20008e28 <tud_task+0x300>
20008e26:	bf00      	nop
20008e28:	2800      	cmp	r0, #0
20008e2a:	d000      	beq.n	20008e2e <tud_task+0x306>
20008e2c:	e68c      	b.n	20008b48 <tud_task+0x20>
20008e2e:	e708      	b.n	20008c42 <tud_task+0x11a>
20008e30:	2a20      	cmp	r2, #32
20008e32:	d100      	bne.n	20008e36 <tud_task+0x30e>
20008e34:	e09f      	b.n	20008f76 <tud_task+0x44e>
20008e36:	2a00      	cmp	r2, #0
20008e38:	d000      	beq.n	20008e3c <tud_task+0x314>
20008e3a:	e702      	b.n	20008c42 <tud_task+0x11a>
20008e3c:	7963      	ldrb	r3, [r4, #5]
20008e3e:	2b09      	cmp	r3, #9
20008e40:	d900      	bls.n	20008e44 <tud_task+0x31c>
20008e42:	e6fe      	b.n	20008c42 <tud_task+0x11a>
20008e44:	4a0d      	ldr	r2, [pc, #52]	; (20008e7c <tud_task+0x354>)
20008e46:	009b      	lsls	r3, r3, #2
20008e48:	58d3      	ldr	r3, [r2, r3]
20008e4a:	469f      	mov	pc, r3
20008e4c:	2000c42c 	.word	0x2000c42c
20008e50:	2000cd54 	.word	0x2000cd54
20008e54:	2000ccfc 	.word	0x2000ccfc
20008e58:	20007d59 	.word	0x20007d59
20008e5c:	2000d3c2 	.word	0x2000d3c2
20008e60:	20009df1 	.word	0x20009df1
	...
20008e6c:	2000c9c4 	.word	0x2000c9c4
20008e70:	20009bfd 	.word	0x20009bfd
	...
20008e7c:	2000c450 	.word	0x2000c450
20008e80:	2370      	movs	r3, #112	; 0x70
20008e82:	7a21      	ldrb	r1, [r4, #8]
20008e84:	420b      	tst	r3, r1
20008e86:	d000      	beq.n	20008e8a <tud_task+0x362>
20008e88:	e6db      	b.n	20008c42 <tud_task+0x11a>
20008e8a:	330f      	adds	r3, #15
20008e8c:	400b      	ands	r3, r1
20008e8e:	005b      	lsls	r3, r3, #1
20008e90:	18f8      	adds	r0, r7, r3
20008e92:	09cd      	lsrs	r5, r1, #7
20008e94:	9300      	str	r3, [sp, #0]
20008e96:	4bcf      	ldr	r3, [pc, #828]	; (200091d4 <tud_task+0x6ac>)
20008e98:	1940      	adds	r0, r0, r5
20008e9a:	7cc0      	ldrb	r0, [r0, #19]
20008e9c:	2b00      	cmp	r3, #0
20008e9e:	d006      	beq.n	20008eae <tud_task+0x386>
20008ea0:	4bcd      	ldr	r3, [pc, #820]	; (200091d8 <tud_task+0x6b0>)
20008ea2:	781b      	ldrb	r3, [r3, #0]
20008ea4:	4298      	cmp	r0, r3
20008ea6:	d200      	bcs.n	20008eaa <tud_task+0x382>
20008ea8:	e088      	b.n	20008fbc <tud_task+0x494>
20008eaa:	1ac0      	subs	r0, r0, r3
20008eac:	b2c0      	uxtb	r0, r0
20008eae:	2800      	cmp	r0, #0
20008eb0:	d17e      	bne.n	20008fb0 <tud_task+0x488>
20008eb2:	2a00      	cmp	r2, #0
20008eb4:	d000      	beq.n	20008eb8 <tud_task+0x390>
20008eb6:	e13a      	b.n	2000912e <tud_task+0x606>
20008eb8:	4bc8      	ldr	r3, [pc, #800]	; (200091dc <tud_task+0x6b4>)
20008eba:	9301      	str	r3, [sp, #4]
20008ebc:	7963      	ldrb	r3, [r4, #5]
20008ebe:	4698      	mov	r8, r3
20008ec0:	2302      	movs	r3, #2
20008ec2:	4642      	mov	r2, r8
20008ec4:	4699      	mov	r9, r3
20008ec6:	439a      	bics	r2, r3
20008ec8:	2a01      	cmp	r2, #1
20008eca:	d100      	bne.n	20008ece <tud_task+0x3a6>
20008ecc:	e133      	b.n	20009136 <tud_task+0x60e>
20008ece:	4643      	mov	r3, r8
20008ed0:	2b00      	cmp	r3, #0
20008ed2:	d000      	beq.n	20008ed6 <tud_task+0x3ae>
20008ed4:	e6b5      	b.n	20008c42 <tud_task+0x11a>
20008ed6:	9b00      	ldr	r3, [sp, #0]
20008ed8:	aa06      	add	r2, sp, #24
20008eda:	18fb      	adds	r3, r7, r3
20008edc:	195d      	adds	r5, r3, r5
20008ede:	3530      	adds	r5, #48	; 0x30
20008ee0:	78eb      	ldrb	r3, [r5, #3]
20008ee2:	3202      	adds	r2, #2
20008ee4:	079b      	lsls	r3, r3, #30
20008ee6:	0fdb      	lsrs	r3, r3, #31
20008ee8:	8013      	strh	r3, [r2, #0]
20008eea:	4650      	mov	r0, sl
20008eec:	2302      	movs	r3, #2
20008eee:	a908      	add	r1, sp, #32
20008ef0:	f000 fc92 	bl	20009818 <tud_control_xfer>
20008ef4:	e628      	b.n	20008b48 <tud_task+0x20>
20008ef6:	005a      	lsls	r2, r3, #1
20008ef8:	18d3      	adds	r3, r2, r3
20008efa:	4ab9      	ldr	r2, [pc, #740]	; (200091e0 <tud_task+0x6b8>)
20008efc:	00db      	lsls	r3, r3, #3
20008efe:	6812      	ldr	r2, [r2, #0]
20008f00:	18d3      	adds	r3, r2, r3
20008f02:	2b00      	cmp	r3, #0
20008f04:	d100      	bne.n	20008f08 <tud_task+0x3e0>
20008f06:	e760      	b.n	20008dca <tud_task+0x2a2>
20008f08:	691d      	ldr	r5, [r3, #16]
20008f0a:	e668      	b.n	20008bde <tud_task+0xb6>
20008f0c:	7a23      	ldrb	r3, [r4, #8]
20008f0e:	2b0f      	cmp	r3, #15
20008f10:	d900      	bls.n	20008f14 <tud_task+0x3ec>
20008f12:	e696      	b.n	20008c42 <tud_task+0x11a>
20008f14:	4aaf      	ldr	r2, [pc, #700]	; (200091d4 <tud_task+0x6ac>)
20008f16:	18fb      	adds	r3, r7, r3
20008f18:	78db      	ldrb	r3, [r3, #3]
20008f1a:	2a00      	cmp	r2, #0
20008f1c:	d005      	beq.n	20008f2a <tud_task+0x402>
20008f1e:	4aae      	ldr	r2, [pc, #696]	; (200091d8 <tud_task+0x6b0>)
20008f20:	7812      	ldrb	r2, [r2, #0]
20008f22:	4293      	cmp	r3, r2
20008f24:	d364      	bcc.n	20008ff0 <tud_task+0x4c8>
20008f26:	1a9b      	subs	r3, r3, r2
20008f28:	b2db      	uxtb	r3, r3
20008f2a:	2b00      	cmp	r3, #0
20008f2c:	d000      	beq.n	20008f30 <tud_task+0x408>
20008f2e:	e688      	b.n	20008c42 <tud_task+0x11a>
20008f30:	48ac      	ldr	r0, [pc, #688]	; (200091e4 <tud_task+0x6bc>)
20008f32:	4daa      	ldr	r5, [pc, #680]	; (200091dc <tud_task+0x6b4>)
20008f34:	f000 fcd6 	bl	200098e4 <usbd_control_set_complete_callback>
20008f38:	2100      	movs	r1, #0
20008f3a:	4650      	mov	r0, sl
20008f3c:	68eb      	ldr	r3, [r5, #12]
20008f3e:	aa08      	add	r2, sp, #32
20008f40:	4798      	blx	r3
20008f42:	2800      	cmp	r0, #0
20008f44:	d000      	beq.n	20008f48 <tud_task+0x420>
20008f46:	e5ff      	b.n	20008b48 <tud_task+0x20>
20008f48:	2260      	movs	r2, #96	; 0x60
20008f4a:	0015      	movs	r5, r2
20008f4c:	7923      	ldrb	r3, [r4, #4]
20008f4e:	401d      	ands	r5, r3
20008f50:	421a      	tst	r2, r3
20008f52:	d000      	beq.n	20008f56 <tud_task+0x42e>
20008f54:	e675      	b.n	20008c42 <tud_task+0x11a>
20008f56:	7963      	ldrb	r3, [r4, #5]
20008f58:	3b0a      	subs	r3, #10
20008f5a:	2b01      	cmp	r3, #1
20008f5c:	d900      	bls.n	20008f60 <tud_task+0x438>
20008f5e:	e670      	b.n	20008c42 <tud_task+0x11a>
20008f60:	f000 fcc0 	bl	200098e4 <usbd_control_set_complete_callback>
20008f64:	7963      	ldrb	r3, [r4, #5]
20008f66:	2b0a      	cmp	r3, #10
20008f68:	d100      	bne.n	20008f6c <tud_task+0x444>
20008f6a:	e145      	b.n	200091f8 <tud_task+0x6d0>
20008f6c:	4650      	mov	r0, sl
20008f6e:	a908      	add	r1, sp, #32
20008f70:	f000 fc3a 	bl	200097e8 <tud_control_status>
20008f74:	e5e8      	b.n	20008b48 <tud_task+0x20>
20008f76:	7a23      	ldrb	r3, [r4, #8]
20008f78:	2b0f      	cmp	r3, #15
20008f7a:	d900      	bls.n	20008f7e <tud_task+0x456>
20008f7c:	e661      	b.n	20008c42 <tud_task+0x11a>
20008f7e:	4a95      	ldr	r2, [pc, #596]	; (200091d4 <tud_task+0x6ac>)
20008f80:	18fb      	adds	r3, r7, r3
20008f82:	78db      	ldrb	r3, [r3, #3]
20008f84:	2a00      	cmp	r2, #0
20008f86:	d006      	beq.n	20008f96 <tud_task+0x46e>
20008f88:	4a93      	ldr	r2, [pc, #588]	; (200091d8 <tud_task+0x6b0>)
20008f8a:	7812      	ldrb	r2, [r2, #0]
20008f8c:	4293      	cmp	r3, r2
20008f8e:	d200      	bcs.n	20008f92 <tud_task+0x46a>
20008f90:	e0f5      	b.n	2000917e <tud_task+0x656>
20008f92:	1a9b      	subs	r3, r3, r2
20008f94:	b2db      	uxtb	r3, r3
20008f96:	2b00      	cmp	r3, #0
20008f98:	d000      	beq.n	20008f9c <tud_task+0x474>
20008f9a:	e652      	b.n	20008c42 <tud_task+0x11a>
20008f9c:	4891      	ldr	r0, [pc, #580]	; (200091e4 <tud_task+0x6bc>)
20008f9e:	4d8f      	ldr	r5, [pc, #572]	; (200091dc <tud_task+0x6b4>)
20008fa0:	f000 fca0 	bl	200098e4 <usbd_control_set_complete_callback>
20008fa4:	2100      	movs	r1, #0
20008fa6:	4650      	mov	r0, sl
20008fa8:	68eb      	ldr	r3, [r5, #12]
20008faa:	aa08      	add	r2, sp, #32
20008fac:	4798      	blx	r3
20008fae:	e73b      	b.n	20008e28 <tud_task+0x300>
20008fb0:	2a00      	cmp	r2, #0
20008fb2:	d000      	beq.n	20008fb6 <tud_task+0x48e>
20008fb4:	e645      	b.n	20008c42 <tud_task+0x11a>
20008fb6:	2300      	movs	r3, #0
20008fb8:	9301      	str	r3, [sp, #4]
20008fba:	e77f      	b.n	20008ebc <tud_task+0x394>
20008fbc:	0043      	lsls	r3, r0, #1
20008fbe:	469c      	mov	ip, r3
20008fc0:	4b87      	ldr	r3, [pc, #540]	; (200091e0 <tud_task+0x6b8>)
20008fc2:	4460      	add	r0, ip
20008fc4:	681b      	ldr	r3, [r3, #0]
20008fc6:	00c0      	lsls	r0, r0, #3
20008fc8:	469c      	mov	ip, r3
20008fca:	0003      	movs	r3, r0
20008fcc:	4463      	add	r3, ip
20008fce:	9301      	str	r3, [sp, #4]
20008fd0:	2a00      	cmp	r2, #0
20008fd2:	d100      	bne.n	20008fd6 <tud_task+0x4ae>
20008fd4:	e772      	b.n	20008ebc <tud_task+0x394>
20008fd6:	2b00      	cmp	r3, #0
20008fd8:	d100      	bne.n	20008fdc <tud_task+0x4b4>
20008fda:	e632      	b.n	20008c42 <tud_task+0x11a>
20008fdc:	68d8      	ldr	r0, [r3, #12]
20008fde:	f000 fc81 	bl	200098e4 <usbd_control_set_complete_callback>
20008fe2:	9b01      	ldr	r3, [sp, #4]
20008fe4:	2100      	movs	r1, #0
20008fe6:	4650      	mov	r0, sl
20008fe8:	68db      	ldr	r3, [r3, #12]
20008fea:	aa08      	add	r2, sp, #32
20008fec:	4798      	blx	r3
20008fee:	e71b      	b.n	20008e28 <tud_task+0x300>
20008ff0:	4a7b      	ldr	r2, [pc, #492]	; (200091e0 <tud_task+0x6b8>)
20008ff2:	005d      	lsls	r5, r3, #1
20008ff4:	18eb      	adds	r3, r5, r3
20008ff6:	6815      	ldr	r5, [r2, #0]
20008ff8:	00db      	lsls	r3, r3, #3
20008ffa:	18ed      	adds	r5, r5, r3
20008ffc:	2d00      	cmp	r5, #0
20008ffe:	d100      	bne.n	20009002 <tud_task+0x4da>
20009000:	e61f      	b.n	20008c42 <tud_task+0x11a>
20009002:	68e8      	ldr	r0, [r5, #12]
20009004:	e796      	b.n	20008f34 <tud_task+0x40c>
20009006:	88e3      	ldrh	r3, [r4, #6]
20009008:	2b01      	cmp	r3, #1
2000900a:	d000      	beq.n	2000900e <tud_task+0x4e6>
2000900c:	e619      	b.n	20008c42 <tud_task+0x11a>
2000900e:	2208      	movs	r2, #8
20009010:	783b      	ldrb	r3, [r7, #0]
20009012:	4650      	mov	r0, sl
20009014:	4393      	bics	r3, r2
20009016:	a908      	add	r1, sp, #32
20009018:	703b      	strb	r3, [r7, #0]
2000901a:	f000 fbe5 	bl	200097e8 <tud_control_status>
2000901e:	e593      	b.n	20008b48 <tud_task+0x20>
20009020:	2002      	movs	r0, #2
20009022:	7839      	ldrb	r1, [r7, #0]
20009024:	ab06      	add	r3, sp, #24
20009026:	1c9a      	adds	r2, r3, #2
20009028:	068b      	lsls	r3, r1, #26
2000902a:	0889      	lsrs	r1, r1, #2
2000902c:	0fdb      	lsrs	r3, r3, #31
2000902e:	4001      	ands	r1, r0
20009030:	430b      	orrs	r3, r1
20009032:	e759      	b.n	20008ee8 <tud_task+0x3c0>
20009034:	79a3      	ldrb	r3, [r4, #6]
20009036:	9301      	str	r3, [sp, #4]
20009038:	001a      	movs	r2, r3
2000903a:	787b      	ldrb	r3, [r7, #1]
2000903c:	429a      	cmp	r2, r3
2000903e:	d007      	beq.n	20009050 <tud_task+0x528>
20009040:	787b      	ldrb	r3, [r7, #1]
20009042:	2b00      	cmp	r3, #0
20009044:	d000      	beq.n	20009048 <tud_task+0x520>
20009046:	e147      	b.n	200092d8 <tud_task+0x7b0>
20009048:	9b01      	ldr	r3, [sp, #4]
2000904a:	2b00      	cmp	r3, #0
2000904c:	d000      	beq.n	20009050 <tud_task+0x528>
2000904e:	e0dc      	b.n	2000920a <tud_task+0x6e2>
20009050:	9b01      	ldr	r3, [sp, #4]
20009052:	4650      	mov	r0, sl
20009054:	a908      	add	r1, sp, #32
20009056:	707b      	strb	r3, [r7, #1]
20009058:	f000 fbc6 	bl	200097e8 <tud_control_status>
2000905c:	e574      	b.n	20008b48 <tud_task+0x20>
2000905e:	787b      	ldrb	r3, [r7, #1]
20009060:	aa06      	add	r2, sp, #24
20009062:	3202      	adds	r2, #2
20009064:	7013      	strb	r3, [r2, #0]
20009066:	4650      	mov	r0, sl
20009068:	2301      	movs	r3, #1
2000906a:	a908      	add	r1, sp, #32
2000906c:	f000 fbd4 	bl	20009818 <tud_control_xfer>
20009070:	e56a      	b.n	20008b48 <tud_task+0x20>
20009072:	88e0      	ldrh	r0, [r4, #6]
20009074:	0a03      	lsrs	r3, r0, #8
20009076:	b2c0      	uxtb	r0, r0
20009078:	2b0f      	cmp	r3, #15
2000907a:	d900      	bls.n	2000907e <tud_task+0x556>
2000907c:	e5e1      	b.n	20008c42 <tud_task+0x11a>
2000907e:	495a      	ldr	r1, [pc, #360]	; (200091e8 <tud_task+0x6c0>)
20009080:	009a      	lsls	r2, r3, #2
20009082:	588a      	ldr	r2, [r1, r2]
20009084:	4697      	mov	pc, r2
20009086:	a808      	add	r0, sp, #32
20009088:	f000 fc32 	bl	200098f0 <usbd_control_set_request>
2000908c:	4650      	mov	r0, sl
2000908e:	79a1      	ldrb	r1, [r4, #6]
20009090:	f7ff f8fe 	bl	20008290 <dcd_set_address>
20009094:	2202      	movs	r2, #2
20009096:	783b      	ldrb	r3, [r7, #0]
20009098:	4313      	orrs	r3, r2
2000909a:	703b      	strb	r3, [r7, #0]
2000909c:	e554      	b.n	20008b48 <tud_task+0x20>
2000909e:	88e3      	ldrh	r3, [r4, #6]
200090a0:	2b01      	cmp	r3, #1
200090a2:	d000      	beq.n	200090a6 <tud_task+0x57e>
200090a4:	e5cd      	b.n	20008c42 <tud_task+0x11a>
200090a6:	2208      	movs	r2, #8
200090a8:	783b      	ldrb	r3, [r7, #0]
200090aa:	4650      	mov	r0, sl
200090ac:	4313      	orrs	r3, r2
200090ae:	a908      	add	r1, sp, #32
200090b0:	703b      	strb	r3, [r7, #0]
200090b2:	f000 fb99 	bl	200097e8 <tud_control_status>
200090b6:	e547      	b.n	20008b48 <tud_task+0x20>
200090b8:	4b4c      	ldr	r3, [pc, #304]	; (200091ec <tud_task+0x6c4>)
200090ba:	2b00      	cmp	r3, #0
200090bc:	d100      	bne.n	200090c0 <tud_task+0x598>
200090be:	e5c0      	b.n	20008c42 <tud_task+0x11a>
200090c0:	e000      	b.n	200090c4 <tud_task+0x59c>
200090c2:	bf00      	nop
200090c4:	0002      	movs	r2, r0
200090c6:	78d3      	ldrb	r3, [r2, #3]
200090c8:	7891      	ldrb	r1, [r2, #2]
200090ca:	021b      	lsls	r3, r3, #8
200090cc:	430b      	orrs	r3, r1
200090ce:	4650      	mov	r0, sl
200090d0:	a908      	add	r1, sp, #32
200090d2:	f000 fba1 	bl	20009818 <tud_control_xfer>
200090d6:	e6a7      	b.n	20008e28 <tud_task+0x300>
200090d8:	4b45      	ldr	r3, [pc, #276]	; (200091f0 <tud_task+0x6c8>)
200090da:	2b00      	cmp	r3, #0
200090dc:	d100      	bne.n	200090e0 <tud_task+0x5b8>
200090de:	e5b0      	b.n	20008c42 <tud_task+0x11a>
200090e0:	e000      	b.n	200090e4 <tud_task+0x5bc>
200090e2:	bf00      	nop
200090e4:	1e02      	subs	r2, r0, #0
200090e6:	d100      	bne.n	200090ea <tud_task+0x5c2>
200090e8:	e5ab      	b.n	20008c42 <tud_task+0x11a>
200090ea:	4650      	mov	r0, sl
200090ec:	7813      	ldrb	r3, [r2, #0]
200090ee:	a908      	add	r1, sp, #32
200090f0:	f000 fb92 	bl	20009818 <tud_control_xfer>
200090f4:	e698      	b.n	20008e28 <tud_task+0x300>
200090f6:	8921      	ldrh	r1, [r4, #8]
200090f8:	f7fe ff7e 	bl	20007ff8 <tud_descriptor_string_cb>
200090fc:	1e02      	subs	r2, r0, #0
200090fe:	d1f4      	bne.n	200090ea <tud_task+0x5c2>
20009100:	e59f      	b.n	20008c42 <tud_task+0x11a>
20009102:	2b02      	cmp	r3, #2
20009104:	d100      	bne.n	20009108 <tud_task+0x5e0>
20009106:	e172      	b.n	200093ee <tud_task+0x8c6>
20009108:	4b3a      	ldr	r3, [pc, #232]	; (200091f4 <tud_task+0x6cc>)
2000910a:	2b00      	cmp	r3, #0
2000910c:	d100      	bne.n	20009110 <tud_task+0x5e8>
2000910e:	e598      	b.n	20008c42 <tud_task+0x11a>
20009110:	e000      	b.n	20009114 <tud_task+0x5ec>
20009112:	bf00      	nop
20009114:	0002      	movs	r2, r0
20009116:	2a00      	cmp	r2, #0
20009118:	d1d5      	bne.n	200090c6 <tud_task+0x59e>
2000911a:	e592      	b.n	20008c42 <tud_task+0x11a>
2000911c:	f7fe ff64 	bl	20007fe8 <tud_descriptor_device_cb>
20009120:	2312      	movs	r3, #18
20009122:	0002      	movs	r2, r0
20009124:	a908      	add	r1, sp, #32
20009126:	4650      	mov	r0, sl
20009128:	f000 fb76 	bl	20009818 <tud_control_xfer>
2000912c:	e67c      	b.n	20008e28 <tud_task+0x300>
2000912e:	4b2b      	ldr	r3, [pc, #172]	; (200091dc <tud_task+0x6b4>)
20009130:	482c      	ldr	r0, [pc, #176]	; (200091e4 <tud_task+0x6bc>)
20009132:	9301      	str	r3, [sp, #4]
20009134:	e753      	b.n	20008fde <tud_task+0x4b6>
20009136:	88e2      	ldrh	r2, [r4, #6]
20009138:	2a00      	cmp	r2, #0
2000913a:	d109      	bne.n	20009150 <tud_task+0x628>
2000913c:	4643      	mov	r3, r8
2000913e:	2b01      	cmp	r3, #1
20009140:	d028      	beq.n	20009194 <tud_task+0x66c>
20009142:	9b00      	ldr	r3, [sp, #0]
20009144:	18fb      	adds	r3, r7, r3
20009146:	195d      	adds	r5, r3, r5
20009148:	3530      	adds	r5, #48	; 0x30
2000914a:	78eb      	ldrb	r3, [r5, #3]
2000914c:	079b      	lsls	r3, r3, #30
2000914e:	d534      	bpl.n	200091ba <tud_task+0x692>
20009150:	9d01      	ldr	r5, [sp, #4]
20009152:	2d00      	cmp	r5, #0
20009154:	d100      	bne.n	20009158 <tud_task+0x630>
20009156:	e4f7      	b.n	20008b48 <tud_task+0x20>
20009158:	68eb      	ldr	r3, [r5, #12]
2000915a:	0018      	movs	r0, r3
2000915c:	9300      	str	r3, [sp, #0]
2000915e:	f000 fbc1 	bl	200098e4 <usbd_control_set_complete_callback>
20009162:	68eb      	ldr	r3, [r5, #12]
20009164:	2100      	movs	r1, #0
20009166:	aa08      	add	r2, sp, #32
20009168:	4650      	mov	r0, sl
2000916a:	4798      	blx	r3
2000916c:	2000      	movs	r0, #0
2000916e:	f000 fbb9 	bl	200098e4 <usbd_control_set_complete_callback>
20009172:	2334      	movs	r3, #52	; 0x34
20009174:	5cfb      	ldrb	r3, [r7, r3]
20009176:	07db      	lsls	r3, r3, #31
20009178:	d500      	bpl.n	2000917c <tud_task+0x654>
2000917a:	e4e5      	b.n	20008b48 <tud_task+0x20>
2000917c:	e6f6      	b.n	20008f6c <tud_task+0x444>
2000917e:	4a18      	ldr	r2, [pc, #96]	; (200091e0 <tud_task+0x6b8>)
20009180:	005d      	lsls	r5, r3, #1
20009182:	18eb      	adds	r3, r5, r3
20009184:	6815      	ldr	r5, [r2, #0]
20009186:	00db      	lsls	r3, r3, #3
20009188:	18ed      	adds	r5, r5, r3
2000918a:	2d00      	cmp	r5, #0
2000918c:	d100      	bne.n	20009190 <tud_task+0x668>
2000918e:	e558      	b.n	20008c42 <tud_task+0x11a>
20009190:	68e8      	ldr	r0, [r5, #12]
20009192:	e705      	b.n	20008fa0 <tud_task+0x478>
20009194:	9b00      	ldr	r3, [sp, #0]
20009196:	18fb      	adds	r3, r7, r3
20009198:	195d      	adds	r5, r3, r5
2000919a:	3530      	adds	r5, #48	; 0x30
2000919c:	78eb      	ldrb	r3, [r5, #3]
2000919e:	079b      	lsls	r3, r3, #30
200091a0:	d5d6      	bpl.n	20009150 <tud_task+0x628>
200091a2:	4650      	mov	r0, sl
200091a4:	f7ff fa3c 	bl	20008620 <dcd_edpt_clear_stall>
200091a8:	464a      	mov	r2, r9
200091aa:	78eb      	ldrb	r3, [r5, #3]
200091ac:	4393      	bics	r3, r2
200091ae:	4642      	mov	r2, r8
200091b0:	70eb      	strb	r3, [r5, #3]
200091b2:	78eb      	ldrb	r3, [r5, #3]
200091b4:	4393      	bics	r3, r2
200091b6:	70eb      	strb	r3, [r5, #3]
200091b8:	e7ca      	b.n	20009150 <tud_task+0x628>
200091ba:	4650      	mov	r0, sl
200091bc:	f7ff fa14 	bl	200085e8 <dcd_edpt_stall>
200091c0:	2202      	movs	r2, #2
200091c2:	78eb      	ldrb	r3, [r5, #3]
200091c4:	4313      	orrs	r3, r2
200091c6:	2201      	movs	r2, #1
200091c8:	70eb      	strb	r3, [r5, #3]
200091ca:	78eb      	ldrb	r3, [r5, #3]
200091cc:	4313      	orrs	r3, r2
200091ce:	70eb      	strb	r3, [r5, #3]
200091d0:	e7be      	b.n	20009150 <tud_task+0x628>
200091d2:	46c0      	nop			; (mov r8, r8)
200091d4:	20007d59 	.word	0x20007d59
200091d8:	2000d3c2 	.word	0x2000d3c2
200091dc:	2000c4b8 	.word	0x2000c4b8
200091e0:	2000c9c4 	.word	0x2000c9c4
200091e4:	20009d0d 	.word	0x20009d0d
200091e8:	2000c478 	.word	0x2000c478
	...
200091f8:	ab06      	add	r3, sp, #24
200091fa:	1c9a      	adds	r2, r3, #2
200091fc:	4650      	mov	r0, sl
200091fe:	2301      	movs	r3, #1
20009200:	a908      	add	r1, sp, #32
20009202:	7015      	strb	r5, [r2, #0]
20009204:	f000 fb08 	bl	20009818 <tud_control_xfer>
20009208:	e49e      	b.n	20008b48 <tud_task+0x20>
2000920a:	1e58      	subs	r0, r3, #1
2000920c:	b2c0      	uxtb	r0, r0
2000920e:	f7fe feef 	bl	20007ff0 <tud_descriptor_configuration_cb>
20009212:	2800      	cmp	r0, #0
20009214:	d100      	bne.n	20009218 <tud_task+0x6f0>
20009216:	e514      	b.n	20008c42 <tud_task+0x11a>
20009218:	7843      	ldrb	r3, [r0, #1]
2000921a:	9304      	str	r3, [sp, #16]
2000921c:	2b02      	cmp	r3, #2
2000921e:	d000      	beq.n	20009222 <tud_task+0x6fa>
20009220:	e50f      	b.n	20008c42 <tud_task+0x11a>
20009222:	2101      	movs	r1, #1
20009224:	79c3      	ldrb	r3, [r0, #7]
20009226:	119a      	asrs	r2, r3, #6
20009228:	115b      	asrs	r3, r3, #5
2000922a:	400a      	ands	r2, r1
2000922c:	400b      	ands	r3, r1
2000922e:	0152      	lsls	r2, r2, #5
20009230:	011b      	lsls	r3, r3, #4
20009232:	4313      	orrs	r3, r2
20009234:	783a      	ldrb	r2, [r7, #0]
20009236:	312f      	adds	r1, #47	; 0x2f
20009238:	438a      	bics	r2, r1
2000923a:	4313      	orrs	r3, r2
2000923c:	703b      	strb	r3, [r7, #0]
2000923e:	2309      	movs	r3, #9
20009240:	4699      	mov	r9, r3
20009242:	78c3      	ldrb	r3, [r0, #3]
20009244:	7882      	ldrb	r2, [r0, #2]
20009246:	021b      	lsls	r3, r3, #8
20009248:	4313      	orrs	r3, r2
2000924a:	18c3      	adds	r3, r0, r3
2000924c:	4481      	add	r9, r0
2000924e:	9303      	str	r3, [sp, #12]
20009250:	9b03      	ldr	r3, [sp, #12]
20009252:	454b      	cmp	r3, r9
20009254:	d800      	bhi.n	20009258 <tud_task+0x730>
20009256:	e0c3      	b.n	200093e0 <tud_task+0x8b8>
20009258:	464b      	mov	r3, r9
2000925a:	2201      	movs	r2, #1
2000925c:	785b      	ldrb	r3, [r3, #1]
2000925e:	9200      	str	r2, [sp, #0]
20009260:	2b0b      	cmp	r3, #11
20009262:	d107      	bne.n	20009274 <tud_task+0x74c>
20009264:	464b      	mov	r3, r9
20009266:	78db      	ldrb	r3, [r3, #3]
20009268:	9300      	str	r3, [sp, #0]
2000926a:	464b      	mov	r3, r9
2000926c:	781b      	ldrb	r3, [r3, #0]
2000926e:	4499      	add	r9, r3
20009270:	464b      	mov	r3, r9
20009272:	785b      	ldrb	r3, [r3, #1]
20009274:	2b04      	cmp	r3, #4
20009276:	d000      	beq.n	2000927a <tud_task+0x752>
20009278:	e4e3      	b.n	20008c42 <tud_task+0x11a>
2000927a:	464a      	mov	r2, r9
2000927c:	9b03      	ldr	r3, [sp, #12]
2000927e:	2500      	movs	r5, #0
20009280:	1a9b      	subs	r3, r3, r2
20009282:	b29b      	uxth	r3, r3
20009284:	9302      	str	r3, [sp, #8]
20009286:	4a5c      	ldr	r2, [pc, #368]	; (200093f8 <tud_task+0x8d0>)
20009288:	4b5c      	ldr	r3, [pc, #368]	; (200093fc <tud_task+0x8d4>)
2000928a:	781b      	ldrb	r3, [r3, #0]
2000928c:	2a00      	cmp	r2, #0
2000928e:	d116      	bne.n	200092be <tud_task+0x796>
20009290:	e062      	b.n	20009358 <tud_task+0x830>
20009292:	42ab      	cmp	r3, r5
20009294:	d170      	bne.n	20009378 <tud_task+0x850>
20009296:	4a5a      	ldr	r2, [pc, #360]	; (20009400 <tud_task+0x8d8>)
20009298:	4b5a      	ldr	r3, [pc, #360]	; (20009404 <tud_task+0x8dc>)
2000929a:	4690      	mov	r8, r2
2000929c:	4649      	mov	r1, r9
2000929e:	4650      	mov	r0, sl
200092a0:	9a02      	ldr	r2, [sp, #8]
200092a2:	4798      	blx	r3
200092a4:	4684      	mov	ip, r0
200092a6:	2808      	cmp	r0, #8
200092a8:	d902      	bls.n	200092b0 <tud_task+0x788>
200092aa:	9a02      	ldr	r2, [sp, #8]
200092ac:	4282      	cmp	r2, r0
200092ae:	d269      	bcs.n	20009384 <tud_task+0x85c>
200092b0:	4b52      	ldr	r3, [pc, #328]	; (200093fc <tud_task+0x8d4>)
200092b2:	3501      	adds	r5, #1
200092b4:	781b      	ldrb	r3, [r3, #0]
200092b6:	b2ed      	uxtb	r5, r5
200092b8:	42ab      	cmp	r3, r5
200092ba:	d200      	bcs.n	200092be <tud_task+0x796>
200092bc:	e4c1      	b.n	20008c42 <tud_task+0x11a>
200092be:	42ab      	cmp	r3, r5
200092c0:	d9e7      	bls.n	20009292 <tud_task+0x76a>
200092c2:	4a51      	ldr	r2, [pc, #324]	; (20009408 <tud_task+0x8e0>)
200092c4:	006b      	lsls	r3, r5, #1
200092c6:	6812      	ldr	r2, [r2, #0]
200092c8:	195b      	adds	r3, r3, r5
200092ca:	4690      	mov	r8, r2
200092cc:	00db      	lsls	r3, r3, #3
200092ce:	4498      	add	r8, r3
200092d0:	4643      	mov	r3, r8
200092d2:	9205      	str	r2, [sp, #20]
200092d4:	689b      	ldr	r3, [r3, #8]
200092d6:	e7e1      	b.n	2000929c <tud_task+0x774>
200092d8:	4650      	mov	r0, sl
200092da:	f7ff f915 	bl	20008508 <dcd_edpt_close_all>
200092de:	78bb      	ldrb	r3, [r7, #2]
200092e0:	4d46      	ldr	r5, [pc, #280]	; (200093fc <tud_task+0x8d4>)
200092e2:	4a45      	ldr	r2, [pc, #276]	; (200093f8 <tud_task+0x8d0>)
200092e4:	9300      	str	r3, [sp, #0]
200092e6:	2100      	movs	r1, #0
200092e8:	782b      	ldrb	r3, [r5, #0]
200092ea:	2a00      	cmp	r2, #0
200092ec:	d02d      	beq.n	2000934a <tud_task+0x822>
200092ee:	4a46      	ldr	r2, [pc, #280]	; (20009408 <tud_task+0x8e0>)
200092f0:	4690      	mov	r8, r2
200092f2:	002a      	movs	r2, r5
200092f4:	000d      	movs	r5, r1
200092f6:	4691      	mov	r9, r2
200092f8:	429d      	cmp	r5, r3
200092fa:	d31d      	bcc.n	20009338 <tud_task+0x810>
200092fc:	d000      	beq.n	20009300 <tud_task+0x7d8>
200092fe:	e577      	b.n	20008df0 <tud_task+0x2c8>
20009300:	4b42      	ldr	r3, [pc, #264]	; (2000940c <tud_task+0x8e4>)
20009302:	4650      	mov	r0, sl
20009304:	4798      	blx	r3
20009306:	464b      	mov	r3, r9
20009308:	3501      	adds	r5, #1
2000930a:	781b      	ldrb	r3, [r3, #0]
2000930c:	b2ed      	uxtb	r5, r5
2000930e:	42ab      	cmp	r3, r5
20009310:	d2f2      	bcs.n	200092f8 <tud_task+0x7d0>
20009312:	2253      	movs	r2, #83	; 0x53
20009314:	2100      	movs	r1, #0
20009316:	0038      	movs	r0, r7
20009318:	f7fe f9ec 	bl	200076f4 <__wrap_memset>
2000931c:	2210      	movs	r2, #16
2000931e:	21ff      	movs	r1, #255	; 0xff
20009320:	1cf8      	adds	r0, r7, #3
20009322:	f7fe f9e7 	bl	200076f4 <__wrap_memset>
20009326:	0038      	movs	r0, r7
20009328:	2220      	movs	r2, #32
2000932a:	21ff      	movs	r1, #255	; 0xff
2000932c:	3013      	adds	r0, #19
2000932e:	f7fe f9e1 	bl	200076f4 <__wrap_memset>
20009332:	9b00      	ldr	r3, [sp, #0]
20009334:	70bb      	strb	r3, [r7, #2]
20009336:	e687      	b.n	20009048 <tud_task+0x520>
20009338:	4642      	mov	r2, r8
2000933a:	6812      	ldr	r2, [r2, #0]
2000933c:	006b      	lsls	r3, r5, #1
2000933e:	4694      	mov	ip, r2
20009340:	195b      	adds	r3, r3, r5
20009342:	00db      	lsls	r3, r3, #3
20009344:	4463      	add	r3, ip
20009346:	685b      	ldr	r3, [r3, #4]
20009348:	e7db      	b.n	20009302 <tud_task+0x7da>
2000934a:	4650      	mov	r0, sl
2000934c:	f000 fc56 	bl	20009bfc <cdcd_reset>
20009350:	782b      	ldrb	r3, [r5, #0]
20009352:	2b00      	cmp	r3, #0
20009354:	d0dd      	beq.n	20009312 <tud_task+0x7ea>
20009356:	e54b      	b.n	20008df0 <tud_task+0x2c8>
20009358:	9d02      	ldr	r5, [sp, #8]
2000935a:	4649      	mov	r1, r9
2000935c:	002a      	movs	r2, r5
2000935e:	4650      	mov	r0, sl
20009360:	f000 fc62 	bl	20009c28 <cdcd_open>
20009364:	4684      	mov	ip, r0
20009366:	2808      	cmp	r0, #8
20009368:	d901      	bls.n	2000936e <tud_task+0x846>
2000936a:	42a8      	cmp	r0, r5
2000936c:	d907      	bls.n	2000937e <tud_task+0x856>
2000936e:	4b23      	ldr	r3, [pc, #140]	; (200093fc <tud_task+0x8d4>)
20009370:	781b      	ldrb	r3, [r3, #0]
20009372:	2b00      	cmp	r3, #0
20009374:	d100      	bne.n	20009378 <tud_task+0x850>
20009376:	e464      	b.n	20008c42 <tud_task+0x11a>
20009378:	2300      	movs	r3, #0
2000937a:	689b      	ldr	r3, [r3, #8]
2000937c:	deff      	udf	#255	; 0xff
2000937e:	4b20      	ldr	r3, [pc, #128]	; (20009400 <tud_task+0x8d8>)
20009380:	4d1d      	ldr	r5, [pc, #116]	; (200093f8 <tud_task+0x8d0>)
20009382:	4698      	mov	r8, r3
20009384:	9b00      	ldr	r3, [sp, #0]
20009386:	2b01      	cmp	r3, #1
20009388:	d022      	beq.n	200093d0 <tud_task+0x8a8>
2000938a:	9b00      	ldr	r3, [sp, #0]
2000938c:	2b00      	cmp	r3, #0
2000938e:	d010      	beq.n	200093b2 <tud_task+0x88a>
20009390:	464b      	mov	r3, r9
20009392:	7899      	ldrb	r1, [r3, #2]
20009394:	2300      	movs	r3, #0
20009396:	e005      	b.n	200093a4 <tud_task+0x87c>
20009398:	70d5      	strb	r5, [r2, #3]
2000939a:	3301      	adds	r3, #1
2000939c:	9a00      	ldr	r2, [sp, #0]
2000939e:	b2db      	uxtb	r3, r3
200093a0:	4293      	cmp	r3, r2
200093a2:	d206      	bcs.n	200093b2 <tud_task+0x88a>
200093a4:	18ca      	adds	r2, r1, r3
200093a6:	b2d2      	uxtb	r2, r2
200093a8:	18ba      	adds	r2, r7, r2
200093aa:	78d0      	ldrb	r0, [r2, #3]
200093ac:	28ff      	cmp	r0, #255	; 0xff
200093ae:	d0f3      	beq.n	20009398 <tud_task+0x870>
200093b0:	e447      	b.n	20008c42 <tud_task+0x11a>
200093b2:	0038      	movs	r0, r7
200093b4:	46e0      	mov	r8, ip
200093b6:	002b      	movs	r3, r5
200093b8:	4649      	mov	r1, r9
200093ba:	4662      	mov	r2, ip
200093bc:	3013      	adds	r0, #19
200093be:	f000 fe29 	bl	2000a014 <tu_edpt_bind_driver>
200093c2:	4b0e      	ldr	r3, [pc, #56]	; (200093fc <tud_task+0x8d4>)
200093c4:	44c1      	add	r9, r8
200093c6:	781b      	ldrb	r3, [r3, #0]
200093c8:	42ab      	cmp	r3, r5
200093ca:	d300      	bcc.n	200093ce <tud_task+0x8a6>
200093cc:	e740      	b.n	20009250 <tud_task+0x728>
200093ce:	e438      	b.n	20008c42 <tud_task+0x11a>
200093d0:	4642      	mov	r2, r8
200093d2:	4b0c      	ldr	r3, [pc, #48]	; (20009404 <tud_task+0x8dc>)
200093d4:	6892      	ldr	r2, [r2, #8]
200093d6:	429a      	cmp	r2, r3
200093d8:	d1da      	bne.n	20009390 <tud_task+0x868>
200093da:	9b04      	ldr	r3, [sp, #16]
200093dc:	9300      	str	r3, [sp, #0]
200093de:	e7d7      	b.n	20009390 <tud_task+0x868>
200093e0:	4b0b      	ldr	r3, [pc, #44]	; (20009410 <tud_task+0x8e8>)
200093e2:	2b00      	cmp	r3, #0
200093e4:	d100      	bne.n	200093e8 <tud_task+0x8c0>
200093e6:	e633      	b.n	20009050 <tud_task+0x528>
200093e8:	e000      	b.n	200093ec <tud_task+0x8c4>
200093ea:	bf00      	nop
200093ec:	e630      	b.n	20009050 <tud_task+0x528>
200093ee:	f7fe fdff 	bl	20007ff0 <tud_descriptor_configuration_cb>
200093f2:	0002      	movs	r2, r0
200093f4:	e68f      	b.n	20009116 <tud_task+0x5ee>
200093f6:	46c0      	nop			; (mov r8, r8)
200093f8:	20007d59 	.word	0x20007d59
200093fc:	2000d3c2 	.word	0x2000d3c2
20009400:	2000c4b8 	.word	0x2000c4b8
20009404:	20009c29 	.word	0x20009c29
20009408:	2000c9c4 	.word	0x2000c9c4
2000940c:	20009bfd 	.word	0x20009bfd
20009410:	00000000 	.word	0x00000000

20009414 <dcd_event_bus_signal>:
20009414:	b530      	push	{r4, r5, lr}
20009416:	b087      	sub	sp, #28
20009418:	0005      	movs	r5, r0
2000941a:	000c      	movs	r4, r1
2000941c:	220c      	movs	r2, #12
2000941e:	2100      	movs	r1, #0
20009420:	4668      	mov	r0, sp
20009422:	f7fe f967 	bl	200076f4 <__wrap_memset>
20009426:	466b      	mov	r3, sp
20009428:	701d      	strb	r5, [r3, #0]
2000942a:	705c      	strb	r4, [r3, #1]
2000942c:	2c04      	cmp	r4, #4
2000942e:	d04f      	beq.n	200094d0 <dcd_event_bus_signal+0xbc>
20009430:	d809      	bhi.n	20009446 <dcd_event_bus_signal+0x32>
20009432:	2c02      	cmp	r4, #2
20009434:	d034      	beq.n	200094a0 <dcd_event_bus_signal+0x8c>
20009436:	2c03      	cmp	r4, #3
20009438:	d128      	bne.n	2000948c <dcd_event_bus_signal+0x78>
2000943a:	4b3c      	ldr	r3, [pc, #240]	; (2000952c <dcd_event_bus_signal+0x118>)
2000943c:	781a      	ldrb	r2, [r3, #0]
2000943e:	0752      	lsls	r2, r2, #29
20009440:	d458      	bmi.n	200094f4 <dcd_event_bus_signal+0xe0>
20009442:	b007      	add	sp, #28
20009444:	bd30      	pop	{r4, r5, pc}
20009446:	2c05      	cmp	r4, #5
20009448:	d120      	bne.n	2000948c <dcd_event_bus_signal+0x78>
2000944a:	4b38      	ldr	r3, [pc, #224]	; (2000952c <dcd_event_bus_signal+0x118>)
2000944c:	781a      	ldrb	r2, [r3, #0]
2000944e:	07d2      	lsls	r2, r2, #31
20009450:	d5f7      	bpl.n	20009442 <dcd_event_bus_signal+0x2e>
20009452:	2104      	movs	r1, #4
20009454:	781a      	ldrb	r2, [r3, #0]
20009456:	438a      	bics	r2, r1
20009458:	701a      	strb	r2, [r3, #0]
2000945a:	4b35      	ldr	r3, [pc, #212]	; (20009530 <dcd_event_bus_signal+0x11c>)
2000945c:	681c      	ldr	r4, [r3, #0]
2000945e:	69e2      	ldr	r2, [r4, #28]
20009460:	f3ef 8110 	mrs	r1, PRIMASK
20009464:	b672      	cpsid	i
20009466:	6813      	ldr	r3, [r2, #0]
20009468:	2b00      	cmp	r3, #0
2000946a:	d0fc      	beq.n	20009466 <dcd_event_bus_signal+0x52>
2000946c:	f3bf 8f5f 	dmb	sy
20009470:	6221      	str	r1, [r4, #32]
20009472:	4669      	mov	r1, sp
20009474:	0020      	movs	r0, r4
20009476:	f000 ff13 	bl	2000a2a0 <tu_fifo_write>
2000947a:	69e2      	ldr	r2, [r4, #28]
2000947c:	6a23      	ldr	r3, [r4, #32]
2000947e:	f3bf 8f5f 	dmb	sy
20009482:	2100      	movs	r1, #0
20009484:	6011      	str	r1, [r2, #0]
20009486:	f383 8810 	msr	PRIMASK, r3
2000948a:	e7da      	b.n	20009442 <dcd_event_bus_signal+0x2e>
2000948c:	4b28      	ldr	r3, [pc, #160]	; (20009530 <dcd_event_bus_signal+0x11c>)
2000948e:	681c      	ldr	r4, [r3, #0]
20009490:	69e2      	ldr	r2, [r4, #28]
20009492:	f3ef 8110 	mrs	r1, PRIMASK
20009496:	b672      	cpsid	i
20009498:	6813      	ldr	r3, [r2, #0]
2000949a:	2b00      	cmp	r3, #0
2000949c:	d1e6      	bne.n	2000946c <dcd_event_bus_signal+0x58>
2000949e:	e7fb      	b.n	20009498 <dcd_event_bus_signal+0x84>
200094a0:	2101      	movs	r1, #1
200094a2:	4b22      	ldr	r3, [pc, #136]	; (2000952c <dcd_event_bus_signal+0x118>)
200094a4:	781a      	ldrb	r2, [r3, #0]
200094a6:	438a      	bics	r2, r1
200094a8:	701a      	strb	r2, [r3, #0]
200094aa:	781a      	ldrb	r2, [r3, #0]
200094ac:	3103      	adds	r1, #3
200094ae:	43a2      	bics	r2, r4
200094b0:	701a      	strb	r2, [r3, #0]
200094b2:	2200      	movs	r2, #0
200094b4:	705a      	strb	r2, [r3, #1]
200094b6:	781a      	ldrb	r2, [r3, #0]
200094b8:	438a      	bics	r2, r1
200094ba:	701a      	strb	r2, [r3, #0]
200094bc:	4b1c      	ldr	r3, [pc, #112]	; (20009530 <dcd_event_bus_signal+0x11c>)
200094be:	681c      	ldr	r4, [r3, #0]
200094c0:	69e2      	ldr	r2, [r4, #28]
200094c2:	f3ef 8110 	mrs	r1, PRIMASK
200094c6:	b672      	cpsid	i
200094c8:	6813      	ldr	r3, [r2, #0]
200094ca:	2b00      	cmp	r3, #0
200094cc:	d1ce      	bne.n	2000946c <dcd_event_bus_signal+0x58>
200094ce:	e7fb      	b.n	200094c8 <dcd_event_bus_signal+0xb4>
200094d0:	4b16      	ldr	r3, [pc, #88]	; (2000952c <dcd_event_bus_signal+0x118>)
200094d2:	781a      	ldrb	r2, [r3, #0]
200094d4:	07d2      	lsls	r2, r2, #31
200094d6:	d5b4      	bpl.n	20009442 <dcd_event_bus_signal+0x2e>
200094d8:	2104      	movs	r1, #4
200094da:	781a      	ldrb	r2, [r3, #0]
200094dc:	430a      	orrs	r2, r1
200094de:	701a      	strb	r2, [r3, #0]
200094e0:	4b13      	ldr	r3, [pc, #76]	; (20009530 <dcd_event_bus_signal+0x11c>)
200094e2:	681c      	ldr	r4, [r3, #0]
200094e4:	69e2      	ldr	r2, [r4, #28]
200094e6:	f3ef 8110 	mrs	r1, PRIMASK
200094ea:	b672      	cpsid	i
200094ec:	6813      	ldr	r3, [r2, #0]
200094ee:	2b00      	cmp	r3, #0
200094f0:	d1bc      	bne.n	2000946c <dcd_event_bus_signal+0x58>
200094f2:	e7fb      	b.n	200094ec <dcd_event_bus_signal+0xd8>
200094f4:	2104      	movs	r1, #4
200094f6:	781a      	ldrb	r2, [r3, #0]
200094f8:	a803      	add	r0, sp, #12
200094fa:	438a      	bics	r2, r1
200094fc:	701a      	strb	r2, [r3, #0]
200094fe:	2100      	movs	r1, #0
20009500:	220c      	movs	r2, #12
20009502:	f7fe f8f7 	bl	200076f4 <__wrap_memset>
20009506:	466b      	mov	r3, sp
20009508:	466a      	mov	r2, sp
2000950a:	731d      	strb	r5, [r3, #12]
2000950c:	2305      	movs	r3, #5
2000950e:	7353      	strb	r3, [r2, #13]
20009510:	4b07      	ldr	r3, [pc, #28]	; (20009530 <dcd_event_bus_signal+0x11c>)
20009512:	681c      	ldr	r4, [r3, #0]
20009514:	69e2      	ldr	r2, [r4, #28]
20009516:	f3ef 8110 	mrs	r1, PRIMASK
2000951a:	b672      	cpsid	i
2000951c:	6813      	ldr	r3, [r2, #0]
2000951e:	2b00      	cmp	r3, #0
20009520:	d0fc      	beq.n	2000951c <dcd_event_bus_signal+0x108>
20009522:	f3bf 8f5f 	dmb	sy
20009526:	6221      	str	r1, [r4, #32]
20009528:	a903      	add	r1, sp, #12
2000952a:	e7a3      	b.n	20009474 <dcd_event_bus_signal+0x60>
2000952c:	2000ccfc 	.word	0x2000ccfc
20009530:	2000cd54 	.word	0x2000cd54

20009534 <dcd_event_bus_reset>:
20009534:	b570      	push	{r4, r5, r6, lr}
20009536:	b084      	sub	sp, #16
20009538:	ac01      	add	r4, sp, #4
2000953a:	0006      	movs	r6, r0
2000953c:	000d      	movs	r5, r1
2000953e:	220c      	movs	r2, #12
20009540:	2100      	movs	r1, #0
20009542:	0020      	movs	r0, r4
20009544:	f7fe f8d6 	bl	200076f4 <__wrap_memset>
20009548:	2301      	movs	r3, #1
2000954a:	7063      	strb	r3, [r4, #1]
2000954c:	4b0d      	ldr	r3, [pc, #52]	; (20009584 <dcd_event_bus_reset+0x50>)
2000954e:	7125      	strb	r5, [r4, #4]
20009550:	681d      	ldr	r5, [r3, #0]
20009552:	7026      	strb	r6, [r4, #0]
20009554:	69ea      	ldr	r2, [r5, #28]
20009556:	f3ef 8310 	mrs	r3, PRIMASK
2000955a:	b672      	cpsid	i
2000955c:	6811      	ldr	r1, [r2, #0]
2000955e:	2900      	cmp	r1, #0
20009560:	d0fc      	beq.n	2000955c <dcd_event_bus_reset+0x28>
20009562:	f3bf 8f5f 	dmb	sy
20009566:	622b      	str	r3, [r5, #32]
20009568:	0021      	movs	r1, r4
2000956a:	0028      	movs	r0, r5
2000956c:	f000 fe98 	bl	2000a2a0 <tu_fifo_write>
20009570:	69ea      	ldr	r2, [r5, #28]
20009572:	6a2b      	ldr	r3, [r5, #32]
20009574:	f3bf 8f5f 	dmb	sy
20009578:	2100      	movs	r1, #0
2000957a:	6011      	str	r1, [r2, #0]
2000957c:	f383 8810 	msr	PRIMASK, r3
20009580:	b004      	add	sp, #16
20009582:	bd70      	pop	{r4, r5, r6, pc}
20009584:	2000cd54 	.word	0x2000cd54

20009588 <dcd_event_setup_received>:
20009588:	2300      	movs	r3, #0
2000958a:	b530      	push	{r4, r5, lr}
2000958c:	b085      	sub	sp, #20
2000958e:	ad01      	add	r5, sp, #4
20009590:	806b      	strh	r3, [r5, #2]
20009592:	7028      	strb	r0, [r5, #0]
20009594:	3306      	adds	r3, #6
20009596:	2208      	movs	r2, #8
20009598:	a802      	add	r0, sp, #8
2000959a:	706b      	strb	r3, [r5, #1]
2000959c:	f7fe f8b0 	bl	20007700 <__wrap___aeabi_memcpy>
200095a0:	4b0c      	ldr	r3, [pc, #48]	; (200095d4 <dcd_event_setup_received+0x4c>)
200095a2:	681c      	ldr	r4, [r3, #0]
200095a4:	69e2      	ldr	r2, [r4, #28]
200095a6:	f3ef 8310 	mrs	r3, PRIMASK
200095aa:	b672      	cpsid	i
200095ac:	6811      	ldr	r1, [r2, #0]
200095ae:	2900      	cmp	r1, #0
200095b0:	d0fc      	beq.n	200095ac <dcd_event_setup_received+0x24>
200095b2:	f3bf 8f5f 	dmb	sy
200095b6:	6223      	str	r3, [r4, #32]
200095b8:	0029      	movs	r1, r5
200095ba:	0020      	movs	r0, r4
200095bc:	f000 fe70 	bl	2000a2a0 <tu_fifo_write>
200095c0:	69e2      	ldr	r2, [r4, #28]
200095c2:	6a23      	ldr	r3, [r4, #32]
200095c4:	f3bf 8f5f 	dmb	sy
200095c8:	2100      	movs	r1, #0
200095ca:	6011      	str	r1, [r2, #0]
200095cc:	f383 8810 	msr	PRIMASK, r3
200095d0:	b005      	add	sp, #20
200095d2:	bd30      	pop	{r4, r5, pc}
200095d4:	2000cd54 	.word	0x2000cd54

200095d8 <dcd_event_xfer_complete>:
200095d8:	b5f0      	push	{r4, r5, r6, r7, lr}
200095da:	46c6      	mov	lr, r8
200095dc:	4680      	mov	r8, r0
200095de:	b500      	push	{lr}
200095e0:	b084      	sub	sp, #16
200095e2:	ac01      	add	r4, sp, #4
200095e4:	000f      	movs	r7, r1
200095e6:	0016      	movs	r6, r2
200095e8:	2100      	movs	r1, #0
200095ea:	2208      	movs	r2, #8
200095ec:	0020      	movs	r0, r4
200095ee:	001d      	movs	r5, r3
200095f0:	f7fe f880 	bl	200076f4 <__wrap_memset>
200095f4:	4643      	mov	r3, r8
200095f6:	7023      	strb	r3, [r4, #0]
200095f8:	2307      	movs	r3, #7
200095fa:	7063      	strb	r3, [r4, #1]
200095fc:	4b0f      	ldr	r3, [pc, #60]	; (2000963c <dcd_event_xfer_complete+0x64>)
200095fe:	7165      	strb	r5, [r4, #5]
20009600:	681d      	ldr	r5, [r3, #0]
20009602:	7127      	strb	r7, [r4, #4]
20009604:	60a6      	str	r6, [r4, #8]
20009606:	69ea      	ldr	r2, [r5, #28]
20009608:	f3ef 8310 	mrs	r3, PRIMASK
2000960c:	b672      	cpsid	i
2000960e:	6811      	ldr	r1, [r2, #0]
20009610:	2900      	cmp	r1, #0
20009612:	d0fc      	beq.n	2000960e <dcd_event_xfer_complete+0x36>
20009614:	f3bf 8f5f 	dmb	sy
20009618:	622b      	str	r3, [r5, #32]
2000961a:	0021      	movs	r1, r4
2000961c:	0028      	movs	r0, r5
2000961e:	f000 fe3f 	bl	2000a2a0 <tu_fifo_write>
20009622:	69ea      	ldr	r2, [r5, #28]
20009624:	6a2b      	ldr	r3, [r5, #32]
20009626:	f3bf 8f5f 	dmb	sy
2000962a:	2100      	movs	r1, #0
2000962c:	6011      	str	r1, [r2, #0]
2000962e:	f383 8810 	msr	PRIMASK, r3
20009632:	b004      	add	sp, #16
20009634:	bc04      	pop	{r2}
20009636:	4690      	mov	r8, r2
20009638:	bdf0      	pop	{r4, r5, r6, r7, pc}
2000963a:	46c0      	nop			; (mov r8, r8)
2000963c:	2000cd54 	.word	0x2000cd54

20009640 <usbd_open_edpt_pair>:
20009640:	b5f0      	push	{r4, r5, r6, r7, lr}
20009642:	4646      	mov	r6, r8
20009644:	46d6      	mov	lr, sl
20009646:	464f      	mov	r7, r9
20009648:	4680      	mov	r8, r0
2000964a:	b5c0      	push	{r6, r7, lr}
2000964c:	000c      	movs	r4, r1
2000964e:	0015      	movs	r5, r2
20009650:	001e      	movs	r6, r3
20009652:	2a00      	cmp	r2, #0
20009654:	d02e      	beq.n	200096b4 <usbd_open_edpt_pair+0x74>
20009656:	2370      	movs	r3, #112	; 0x70
20009658:	4699      	mov	r9, r3
2000965a:	4b18      	ldr	r3, [pc, #96]	; (200096bc <usbd_open_edpt_pair+0x7c>)
2000965c:	2700      	movs	r7, #0
2000965e:	469a      	mov	sl, r3
20009660:	7863      	ldrb	r3, [r4, #1]
20009662:	2b05      	cmp	r3, #5
20009664:	d10f      	bne.n	20009686 <usbd_open_edpt_pair+0x46>
20009666:	78e1      	ldrb	r1, [r4, #3]
20009668:	0789      	lsls	r1, r1, #30
2000966a:	0f89      	lsrs	r1, r1, #30
2000966c:	42b1      	cmp	r1, r6
2000966e:	d10a      	bne.n	20009686 <usbd_open_edpt_pair+0x46>
20009670:	464a      	mov	r2, r9
20009672:	78a3      	ldrb	r3, [r4, #2]
20009674:	421a      	tst	r2, r3
20009676:	d106      	bne.n	20009686 <usbd_open_edpt_pair+0x46>
20009678:	4653      	mov	r3, sl
2000967a:	0020      	movs	r0, r4
2000967c:	7899      	ldrb	r1, [r3, #2]
2000967e:	f000 fc8d 	bl	20009f9c <tu_edpt_validate>
20009682:	2800      	cmp	r0, #0
20009684:	d105      	bne.n	20009692 <usbd_open_edpt_pair+0x52>
20009686:	2000      	movs	r0, #0
20009688:	bc1c      	pop	{r2, r3, r4}
2000968a:	4690      	mov	r8, r2
2000968c:	4699      	mov	r9, r3
2000968e:	46a2      	mov	sl, r4
20009690:	bdf0      	pop	{r4, r5, r6, r7, pc}
20009692:	0021      	movs	r1, r4
20009694:	4640      	mov	r0, r8
20009696:	f7fe febf 	bl	20008418 <dcd_edpt_open>
2000969a:	2800      	cmp	r0, #0
2000969c:	d0f3      	beq.n	20009686 <usbd_open_edpt_pair+0x46>
2000969e:	78a3      	ldrb	r3, [r4, #2]
200096a0:	09da      	lsrs	r2, r3, #7
200096a2:	2a01      	cmp	r2, #1
200096a4:	d008      	beq.n	200096b8 <usbd_open_edpt_pair+0x78>
200096a6:	9a08      	ldr	r2, [sp, #32]
200096a8:	7013      	strb	r3, [r2, #0]
200096aa:	7823      	ldrb	r3, [r4, #0]
200096ac:	3701      	adds	r7, #1
200096ae:	18e4      	adds	r4, r4, r3
200096b0:	42af      	cmp	r7, r5
200096b2:	dbd5      	blt.n	20009660 <usbd_open_edpt_pair+0x20>
200096b4:	2001      	movs	r0, #1
200096b6:	e7e7      	b.n	20009688 <usbd_open_edpt_pair+0x48>
200096b8:	9a09      	ldr	r2, [sp, #36]	; 0x24
200096ba:	e7f5      	b.n	200096a8 <usbd_open_edpt_pair+0x68>
200096bc:	2000ccfc 	.word	0x2000ccfc

200096c0 <usbd_edpt_open>:
200096c0:	2270      	movs	r2, #112	; 0x70
200096c2:	b570      	push	{r4, r5, r6, lr}
200096c4:	788b      	ldrb	r3, [r1, #2]
200096c6:	0005      	movs	r5, r0
200096c8:	000c      	movs	r4, r1
200096ca:	421a      	tst	r2, r3
200096cc:	d001      	beq.n	200096d2 <usbd_edpt_open+0x12>
200096ce:	2000      	movs	r0, #0
200096d0:	bd70      	pop	{r4, r5, r6, pc}
200096d2:	4b06      	ldr	r3, [pc, #24]	; (200096ec <usbd_edpt_open+0x2c>)
200096d4:	0020      	movs	r0, r4
200096d6:	7899      	ldrb	r1, [r3, #2]
200096d8:	f000 fc60 	bl	20009f9c <tu_edpt_validate>
200096dc:	2800      	cmp	r0, #0
200096de:	d0f6      	beq.n	200096ce <usbd_edpt_open+0xe>
200096e0:	0021      	movs	r1, r4
200096e2:	0028      	movs	r0, r5
200096e4:	f7fe fe98 	bl	20008418 <dcd_edpt_open>
200096e8:	e7f2      	b.n	200096d0 <usbd_edpt_open+0x10>
200096ea:	46c0      	nop			; (mov r8, r8)
200096ec:	2000ccfc 	.word	0x2000ccfc

200096f0 <usbd_edpt_claim>:
200096f0:	b570      	push	{r4, r5, r6, lr}
200096f2:	247f      	movs	r4, #127	; 0x7f
200096f4:	400c      	ands	r4, r1
200096f6:	0063      	lsls	r3, r4, #1
200096f8:	4c14      	ldr	r4, [pc, #80]	; (2000974c <usbd_edpt_claim+0x5c>)
200096fa:	09c9      	lsrs	r1, r1, #7
200096fc:	18e4      	adds	r4, r4, r3
200096fe:	1864      	adds	r4, r4, r1
20009700:	3430      	adds	r4, #48	; 0x30
20009702:	78e3      	ldrb	r3, [r4, #3]
20009704:	07db      	lsls	r3, r3, #31
20009706:	0fdd      	lsrs	r5, r3, #31
20009708:	2b00      	cmp	r3, #0
2000970a:	d118      	bne.n	2000973e <usbd_edpt_claim+0x4e>
2000970c:	78e3      	ldrb	r3, [r4, #3]
2000970e:	075b      	lsls	r3, r3, #29
20009710:	d501      	bpl.n	20009716 <usbd_edpt_claim+0x26>
20009712:	0028      	movs	r0, r5
20009714:	bd70      	pop	{r4, r5, r6, pc}
20009716:	2101      	movs	r1, #1
20009718:	4e0d      	ldr	r6, [pc, #52]	; (20009750 <usbd_edpt_claim+0x60>)
2000971a:	4249      	negs	r1, r1
2000971c:	6830      	ldr	r0, [r6, #0]
2000971e:	f001 f92f 	bl	2000a980 <mutex_enter_timeout_ms>
20009722:	78e3      	ldrb	r3, [r4, #3]
20009724:	07db      	lsls	r3, r3, #31
20009726:	0fdd      	lsrs	r5, r3, #31
20009728:	2b00      	cmp	r3, #0
2000972a:	d10a      	bne.n	20009742 <usbd_edpt_claim+0x52>
2000972c:	78e3      	ldrb	r3, [r4, #3]
2000972e:	075b      	lsls	r3, r3, #29
20009730:	d408      	bmi.n	20009744 <usbd_edpt_claim+0x54>
20009732:	2204      	movs	r2, #4
20009734:	78e3      	ldrb	r3, [r4, #3]
20009736:	2501      	movs	r5, #1
20009738:	4313      	orrs	r3, r2
2000973a:	70e3      	strb	r3, [r4, #3]
2000973c:	e002      	b.n	20009744 <usbd_edpt_claim+0x54>
2000973e:	2500      	movs	r5, #0
20009740:	e7e7      	b.n	20009712 <usbd_edpt_claim+0x22>
20009742:	2500      	movs	r5, #0
20009744:	6830      	ldr	r0, [r6, #0]
20009746:	f001 f967 	bl	2000aa18 <mutex_exit>
2000974a:	e7e2      	b.n	20009712 <usbd_edpt_claim+0x22>
2000974c:	2000ccfc 	.word	0x2000ccfc
20009750:	2000cd50 	.word	0x2000cd50

20009754 <usbd_edpt_release>:
20009754:	b570      	push	{r4, r5, r6, lr}
20009756:	000c      	movs	r4, r1
20009758:	2101      	movs	r1, #1
2000975a:	4d0f      	ldr	r5, [pc, #60]	; (20009798 <usbd_edpt_release+0x44>)
2000975c:	4249      	negs	r1, r1
2000975e:	6828      	ldr	r0, [r5, #0]
20009760:	f001 f90e 	bl	2000a980 <mutex_enter_timeout_ms>
20009764:	217f      	movs	r1, #127	; 0x7f
20009766:	4021      	ands	r1, r4
20009768:	004b      	lsls	r3, r1, #1
2000976a:	490c      	ldr	r1, [pc, #48]	; (2000979c <usbd_edpt_release+0x48>)
2000976c:	09e4      	lsrs	r4, r4, #7
2000976e:	18c9      	adds	r1, r1, r3
20009770:	1909      	adds	r1, r1, r4
20009772:	3130      	adds	r1, #48	; 0x30
20009774:	78cb      	ldrb	r3, [r1, #3]
20009776:	2400      	movs	r4, #0
20009778:	07db      	lsls	r3, r3, #31
2000977a:	d408      	bmi.n	2000978e <usbd_edpt_release+0x3a>
2000977c:	78cb      	ldrb	r3, [r1, #3]
2000977e:	075b      	lsls	r3, r3, #29
20009780:	0fdc      	lsrs	r4, r3, #31
20009782:	2b00      	cmp	r3, #0
20009784:	da03      	bge.n	2000978e <usbd_edpt_release+0x3a>
20009786:	2204      	movs	r2, #4
20009788:	78cb      	ldrb	r3, [r1, #3]
2000978a:	4393      	bics	r3, r2
2000978c:	70cb      	strb	r3, [r1, #3]
2000978e:	6828      	ldr	r0, [r5, #0]
20009790:	f001 f942 	bl	2000aa18 <mutex_exit>
20009794:	0020      	movs	r0, r4
20009796:	bd70      	pop	{r4, r5, r6, pc}
20009798:	2000cd50 	.word	0x2000cd50
2000979c:	2000ccfc 	.word	0x2000ccfc

200097a0 <usbd_edpt_xfer>:
200097a0:	b570      	push	{r4, r5, r6, lr}
200097a2:	247f      	movs	r4, #127	; 0x7f
200097a4:	400c      	ands	r4, r1
200097a6:	0065      	lsls	r5, r4, #1
200097a8:	4c0e      	ldr	r4, [pc, #56]	; (200097e4 <usbd_edpt_xfer+0x44>)
200097aa:	0006      	movs	r6, r0
200097ac:	1964      	adds	r4, r4, r5
200097ae:	09c8      	lsrs	r0, r1, #7
200097b0:	1824      	adds	r4, r4, r0
200097b2:	3430      	adds	r4, #48	; 0x30
200097b4:	78e5      	ldrb	r5, [r4, #3]
200097b6:	2000      	movs	r0, #0
200097b8:	07ed      	lsls	r5, r5, #31
200097ba:	d500      	bpl.n	200097be <usbd_edpt_xfer+0x1e>
200097bc:	bd70      	pop	{r4, r5, r6, pc}
200097be:	2501      	movs	r5, #1
200097c0:	78e0      	ldrb	r0, [r4, #3]
200097c2:	4328      	orrs	r0, r5
200097c4:	70e0      	strb	r0, [r4, #3]
200097c6:	0030      	movs	r0, r6
200097c8:	f7fe fefc 	bl	200085c4 <dcd_edpt_xfer>
200097cc:	2800      	cmp	r0, #0
200097ce:	d1f5      	bne.n	200097bc <usbd_edpt_xfer+0x1c>
200097d0:	2201      	movs	r2, #1
200097d2:	78e3      	ldrb	r3, [r4, #3]
200097d4:	4393      	bics	r3, r2
200097d6:	70e3      	strb	r3, [r4, #3]
200097d8:	78e3      	ldrb	r3, [r4, #3]
200097da:	3203      	adds	r2, #3
200097dc:	4393      	bics	r3, r2
200097de:	70e3      	strb	r3, [r4, #3]
200097e0:	e7ec      	b.n	200097bc <usbd_edpt_xfer+0x1c>
200097e2:	46c0      	nop			; (mov r8, r8)
200097e4:	2000ccfc 	.word	0x2000ccfc

200097e8 <tud_control_status>:
200097e8:	b570      	push	{r4, r5, r6, lr}
200097ea:	4e0a      	ldr	r6, [pc, #40]	; (20009814 <tud_control_status+0x2c>)
200097ec:	0005      	movs	r5, r0
200097ee:	2208      	movs	r2, #8
200097f0:	0030      	movs	r0, r6
200097f2:	000c      	movs	r4, r1
200097f4:	f7fd ff84 	bl	20007700 <__wrap___aeabi_memcpy>
200097f8:	2100      	movs	r1, #0
200097fa:	5661      	ldrsb	r1, [r4, r1]
200097fc:	2300      	movs	r3, #0
200097fe:	43c9      	mvns	r1, r1
20009800:	0fc9      	lsrs	r1, r1, #31
20009802:	0028      	movs	r0, r5
20009804:	60f3      	str	r3, [r6, #12]
20009806:	2200      	movs	r2, #0
20009808:	01c9      	lsls	r1, r1, #7
2000980a:	60b3      	str	r3, [r6, #8]
2000980c:	f7ff ffc8 	bl	200097a0 <usbd_edpt_xfer>
20009810:	bd70      	pop	{r4, r5, r6, pc}
20009812:	46c0      	nop			; (mov r8, r8)
20009814:	2000cca0 	.word	0x2000cca0

20009818 <tud_control_xfer>:
20009818:	b5f8      	push	{r3, r4, r5, r6, r7, lr}
2000981a:	46ce      	mov	lr, r9
2000981c:	4647      	mov	r7, r8
2000981e:	4690      	mov	r8, r2
20009820:	4e29      	ldr	r6, [pc, #164]	; (200098c8 <tud_control_xfer+0xb0>)
20009822:	b580      	push	{r7, lr}
20009824:	4681      	mov	r9, r0
20009826:	2208      	movs	r2, #8
20009828:	0030      	movs	r0, r6
2000982a:	000d      	movs	r5, r1
2000982c:	001f      	movs	r7, r3
2000982e:	f7fd ff67 	bl	20007700 <__wrap___aeabi_memcpy>
20009832:	4643      	mov	r3, r8
20009834:	60b3      	str	r3, [r6, #8]
20009836:	2300      	movs	r3, #0
20009838:	81f3      	strh	r3, [r6, #14]
2000983a:	79ec      	ldrb	r4, [r5, #7]
2000983c:	79ab      	ldrb	r3, [r5, #6]
2000983e:	0224      	lsls	r4, r4, #8
20009840:	431c      	orrs	r4, r3
20009842:	1c23      	adds	r3, r4, #0
20009844:	42bc      	cmp	r4, r7
20009846:	d900      	bls.n	2000984a <tud_control_xfer+0x32>
20009848:	1c3b      	adds	r3, r7, #0
2000984a:	b29f      	uxth	r7, r3
2000984c:	81b3      	strh	r3, [r6, #12]
2000984e:	2c00      	cmp	r4, #0
20009850:	d012      	beq.n	20009878 <tud_control_xfer+0x60>
20009852:	2f00      	cmp	r7, #0
20009854:	d01e      	beq.n	20009894 <tud_control_xfer+0x7c>
20009856:	4643      	mov	r3, r8
20009858:	2b00      	cmp	r3, #0
2000985a:	d032      	beq.n	200098c2 <tud_control_xfer+0xaa>
2000985c:	1c3b      	adds	r3, r7, #0
2000985e:	2f40      	cmp	r7, #64	; 0x40
20009860:	d81e      	bhi.n	200098a0 <tud_control_xfer+0x88>
20009862:	b29f      	uxth	r7, r3
20009864:	7833      	ldrb	r3, [r6, #0]
20009866:	2b7f      	cmp	r3, #127	; 0x7f
20009868:	d81f      	bhi.n	200098aa <tud_control_xfer+0x92>
2000986a:	2100      	movs	r1, #0
2000986c:	4a17      	ldr	r2, [pc, #92]	; (200098cc <tud_control_xfer+0xb4>)
2000986e:	003b      	movs	r3, r7
20009870:	4648      	mov	r0, r9
20009872:	f7ff ff95 	bl	200097a0 <usbd_edpt_xfer>
20009876:	e009      	b.n	2000988c <tud_control_xfer+0x74>
20009878:	2100      	movs	r1, #0
2000987a:	5669      	ldrsb	r1, [r5, r1]
2000987c:	2300      	movs	r3, #0
2000987e:	43c9      	mvns	r1, r1
20009880:	0fc9      	lsrs	r1, r1, #31
20009882:	2200      	movs	r2, #0
20009884:	4648      	mov	r0, r9
20009886:	01c9      	lsls	r1, r1, #7
20009888:	f7ff ff8a 	bl	200097a0 <usbd_edpt_xfer>
2000988c:	bc0c      	pop	{r2, r3}
2000988e:	4690      	mov	r8, r2
20009890:	4699      	mov	r9, r3
20009892:	bdf8      	pop	{r3, r4, r5, r6, r7, pc}
20009894:	7833      	ldrb	r3, [r6, #0]
20009896:	2b7f      	cmp	r3, #127	; 0x7f
20009898:	d910      	bls.n	200098bc <tud_control_xfer+0xa4>
2000989a:	2180      	movs	r1, #128	; 0x80
2000989c:	2200      	movs	r2, #0
2000989e:	e7e6      	b.n	2000986e <tud_control_xfer+0x56>
200098a0:	2340      	movs	r3, #64	; 0x40
200098a2:	b29f      	uxth	r7, r3
200098a4:	7833      	ldrb	r3, [r6, #0]
200098a6:	2b7f      	cmp	r3, #127	; 0x7f
200098a8:	d9df      	bls.n	2000986a <tud_control_xfer+0x52>
200098aa:	4c08      	ldr	r4, [pc, #32]	; (200098cc <tud_control_xfer+0xb4>)
200098ac:	003a      	movs	r2, r7
200098ae:	4641      	mov	r1, r8
200098b0:	0020      	movs	r0, r4
200098b2:	f7fd ff25 	bl	20007700 <__wrap___aeabi_memcpy>
200098b6:	2180      	movs	r1, #128	; 0x80
200098b8:	0022      	movs	r2, r4
200098ba:	e7d8      	b.n	2000986e <tud_control_xfer+0x56>
200098bc:	2100      	movs	r1, #0
200098be:	2200      	movs	r2, #0
200098c0:	e7d5      	b.n	2000986e <tud_control_xfer+0x56>
200098c2:	2000      	movs	r0, #0
200098c4:	e7e2      	b.n	2000988c <tud_control_xfer+0x74>
200098c6:	46c0      	nop			; (mov r8, r8)
200098c8:	2000cca0 	.word	0x2000cca0
200098cc:	2000ccbc 	.word	0x2000ccbc

200098d0 <usbd_control_reset>:
200098d0:	b510      	push	{r4, lr}
200098d2:	2214      	movs	r2, #20
200098d4:	2100      	movs	r1, #0
200098d6:	4802      	ldr	r0, [pc, #8]	; (200098e0 <usbd_control_reset+0x10>)
200098d8:	f7fd ff0c 	bl	200076f4 <__wrap_memset>
200098dc:	bd10      	pop	{r4, pc}
200098de:	46c0      	nop			; (mov r8, r8)
200098e0:	2000cca0 	.word	0x2000cca0

200098e4 <usbd_control_set_complete_callback>:
200098e4:	4b01      	ldr	r3, [pc, #4]	; (200098ec <usbd_control_set_complete_callback+0x8>)
200098e6:	6118      	str	r0, [r3, #16]
200098e8:	4770      	bx	lr
200098ea:	46c0      	nop			; (mov r8, r8)
200098ec:	2000cca0 	.word	0x2000cca0

200098f0 <usbd_control_set_request>:
200098f0:	b510      	push	{r4, lr}
200098f2:	4c05      	ldr	r4, [pc, #20]	; (20009908 <usbd_control_set_request+0x18>)
200098f4:	0001      	movs	r1, r0
200098f6:	2208      	movs	r2, #8
200098f8:	0020      	movs	r0, r4
200098fa:	f7fd ff01 	bl	20007700 <__wrap___aeabi_memcpy>
200098fe:	2300      	movs	r3, #0
20009900:	60a3      	str	r3, [r4, #8]
20009902:	60e3      	str	r3, [r4, #12]
20009904:	bd10      	pop	{r4, pc}
20009906:	46c0      	nop			; (mov r8, r8)
20009908:	2000cca0 	.word	0x2000cca0

2000990c <usbd_control_xfer_cb>:
2000990c:	b5f8      	push	{r3, r4, r5, r6, r7, lr}
2000990e:	4c3a      	ldr	r4, [pc, #232]	; (200099f8 <usbd_control_xfer_cb+0xec>)
20009910:	001d      	movs	r5, r3
20009912:	7823      	ldrb	r3, [r4, #0]
20009914:	0006      	movs	r6, r0
20009916:	09da      	lsrs	r2, r3, #7
20009918:	09c9      	lsrs	r1, r1, #7
2000991a:	428a      	cmp	r2, r1
2000991c:	d013      	beq.n	20009946 <usbd_control_xfer_cb+0x3a>
2000991e:	2000      	movs	r0, #0
20009920:	2d00      	cmp	r5, #0
20009922:	d000      	beq.n	20009926 <usbd_control_xfer_cb+0x1a>
20009924:	bdf8      	pop	{r3, r4, r5, r6, r7, pc}
20009926:	4b35      	ldr	r3, [pc, #212]	; (200099fc <usbd_control_xfer_cb+0xf0>)
20009928:	2b00      	cmp	r3, #0
2000992a:	d003      	beq.n	20009934 <usbd_control_xfer_cb+0x28>
2000992c:	0021      	movs	r1, r4
2000992e:	0030      	movs	r0, r6
20009930:	f7fe fd64 	bl	200083fc <dcd_edpt0_status_complete>
20009934:	6923      	ldr	r3, [r4, #16]
20009936:	2b00      	cmp	r3, #0
20009938:	d043      	beq.n	200099c2 <usbd_control_xfer_cb+0xb6>
2000993a:	0022      	movs	r2, r4
2000993c:	2102      	movs	r1, #2
2000993e:	0030      	movs	r0, r6
20009940:	4798      	blx	r3
20009942:	2001      	movs	r0, #1
20009944:	e7ee      	b.n	20009924 <usbd_control_xfer_cb+0x18>
20009946:	2b7f      	cmp	r3, #127	; 0x7f
20009948:	d806      	bhi.n	20009958 <usbd_control_xfer_cb+0x4c>
2000994a:	68a0      	ldr	r0, [r4, #8]
2000994c:	2800      	cmp	r0, #0
2000994e:	d036      	beq.n	200099be <usbd_control_xfer_cb+0xb2>
20009950:	002a      	movs	r2, r5
20009952:	492b      	ldr	r1, [pc, #172]	; (20009a00 <usbd_control_xfer_cb+0xf4>)
20009954:	f7fd fed4 	bl	20007700 <__wrap___aeabi_memcpy>
20009958:	68a3      	ldr	r3, [r4, #8]
2000995a:	89e2      	ldrh	r2, [r4, #14]
2000995c:	1959      	adds	r1, r3, r5
2000995e:	1952      	adds	r2, r2, r5
20009960:	88e3      	ldrh	r3, [r4, #6]
20009962:	b292      	uxth	r2, r2
20009964:	81e2      	strh	r2, [r4, #14]
20009966:	60a1      	str	r1, [r4, #8]
20009968:	4293      	cmp	r3, r2
2000996a:	d014      	beq.n	20009996 <usbd_control_xfer_cb+0x8a>
2000996c:	2d3f      	cmp	r5, #63	; 0x3f
2000996e:	d912      	bls.n	20009996 <usbd_control_xfer_cb+0x8a>
20009970:	89a5      	ldrh	r5, [r4, #12]
20009972:	1aa8      	subs	r0, r5, r2
20009974:	1c07      	adds	r7, r0, #0
20009976:	b280      	uxth	r0, r0
20009978:	2840      	cmp	r0, #64	; 0x40
2000997a:	d82e      	bhi.n	200099da <usbd_control_xfer_cb+0xce>
2000997c:	7823      	ldrb	r3, [r4, #0]
2000997e:	b2bf      	uxth	r7, r7
20009980:	2b7f      	cmp	r3, #127	; 0x7f
20009982:	d82c      	bhi.n	200099de <usbd_control_xfer_cb+0xd2>
20009984:	2100      	movs	r1, #0
20009986:	42aa      	cmp	r2, r5
20009988:	d034      	beq.n	200099f4 <usbd_control_xfer_cb+0xe8>
2000998a:	4a1d      	ldr	r2, [pc, #116]	; (20009a00 <usbd_control_xfer_cb+0xf4>)
2000998c:	003b      	movs	r3, r7
2000998e:	0030      	movs	r0, r6
20009990:	f7ff ff06 	bl	200097a0 <usbd_edpt_xfer>
20009994:	e7c6      	b.n	20009924 <usbd_control_xfer_cb+0x18>
20009996:	6923      	ldr	r3, [r4, #16]
20009998:	2b00      	cmp	r3, #0
2000999a:	d005      	beq.n	200099a8 <usbd_control_xfer_cb+0x9c>
2000999c:	0022      	movs	r2, r4
2000999e:	2101      	movs	r1, #1
200099a0:	0030      	movs	r0, r6
200099a2:	4798      	blx	r3
200099a4:	2800      	cmp	r0, #0
200099a6:	d00e      	beq.n	200099c6 <usbd_control_xfer_cb+0xba>
200099a8:	2100      	movs	r1, #0
200099aa:	5661      	ldrsb	r1, [r4, r1]
200099ac:	2300      	movs	r3, #0
200099ae:	43c9      	mvns	r1, r1
200099b0:	0fc9      	lsrs	r1, r1, #31
200099b2:	2200      	movs	r2, #0
200099b4:	0030      	movs	r0, r6
200099b6:	01c9      	lsls	r1, r1, #7
200099b8:	f7ff fef2 	bl	200097a0 <usbd_edpt_xfer>
200099bc:	e7b2      	b.n	20009924 <usbd_control_xfer_cb+0x18>
200099be:	2000      	movs	r0, #0
200099c0:	e7b0      	b.n	20009924 <usbd_control_xfer_cb+0x18>
200099c2:	2001      	movs	r0, #1
200099c4:	e7ae      	b.n	20009924 <usbd_control_xfer_cb+0x18>
200099c6:	2100      	movs	r1, #0
200099c8:	0030      	movs	r0, r6
200099ca:	f7fe fe0d 	bl	200085e8 <dcd_edpt_stall>
200099ce:	0030      	movs	r0, r6
200099d0:	2180      	movs	r1, #128	; 0x80
200099d2:	f7fe fe09 	bl	200085e8 <dcd_edpt_stall>
200099d6:	2001      	movs	r0, #1
200099d8:	e7a4      	b.n	20009924 <usbd_control_xfer_cb+0x18>
200099da:	2740      	movs	r7, #64	; 0x40
200099dc:	e7ce      	b.n	2000997c <usbd_control_xfer_cb+0x70>
200099de:	42aa      	cmp	r2, r5
200099e0:	d007      	beq.n	200099f2 <usbd_control_xfer_cb+0xe6>
200099e2:	4c07      	ldr	r4, [pc, #28]	; (20009a00 <usbd_control_xfer_cb+0xf4>)
200099e4:	003a      	movs	r2, r7
200099e6:	0020      	movs	r0, r4
200099e8:	f7fd fe8a 	bl	20007700 <__wrap___aeabi_memcpy>
200099ec:	2180      	movs	r1, #128	; 0x80
200099ee:	0022      	movs	r2, r4
200099f0:	e7cc      	b.n	2000998c <usbd_control_xfer_cb+0x80>
200099f2:	2180      	movs	r1, #128	; 0x80
200099f4:	2200      	movs	r2, #0
200099f6:	e7c9      	b.n	2000998c <usbd_control_xfer_cb+0x80>
200099f8:	2000cca0 	.word	0x2000cca0
200099fc:	200083fd 	.word	0x200083fd
20009a00:	2000ccbc 	.word	0x2000ccbc

20009a04 <tud_cdc_n_connected>:
20009a04:	b510      	push	{r4, lr}
20009a06:	0004      	movs	r4, r0
20009a08:	f7ff f80c 	bl	20008a24 <tud_mounted>
20009a0c:	2800      	cmp	r0, #0
20009a0e:	d101      	bne.n	20009a14 <tud_cdc_n_connected+0x10>
20009a10:	2000      	movs	r0, #0
20009a12:	bd10      	pop	{r4, pc}
20009a14:	f7ff f80e 	bl	20008a34 <tud_suspended>
20009a18:	2800      	cmp	r0, #0
20009a1a:	d1f9      	bne.n	20009a10 <tud_cdc_n_connected+0xc>
20009a1c:	20b6      	movs	r0, #182	; 0xb6
20009a1e:	0080      	lsls	r0, r0, #2
20009a20:	4344      	muls	r4, r0
20009a22:	4803      	ldr	r0, [pc, #12]	; (20009a30 <tud_cdc_n_connected+0x2c>)
20009a24:	1900      	adds	r0, r0, r4
20009a26:	7903      	ldrb	r3, [r0, #4]
20009a28:	2001      	movs	r0, #1
20009a2a:	4018      	ands	r0, r3
20009a2c:	e7f1      	b.n	20009a12 <tud_cdc_n_connected+0xe>
20009a2e:	46c0      	nop			; (mov r8, r8)
20009a30:	2000c9c8 	.word	0x2000c9c8

20009a34 <tud_cdc_n_available>:
20009a34:	23b6      	movs	r3, #182	; 0xb6
20009a36:	009b      	lsls	r3, r3, #2
20009a38:	4358      	muls	r0, r3
20009a3a:	b510      	push	{r4, lr}
20009a3c:	4b02      	ldr	r3, [pc, #8]	; (20009a48 <tud_cdc_n_available+0x14>)
20009a3e:	3010      	adds	r0, #16
20009a40:	18c0      	adds	r0, r0, r3
20009a42:	f000 fb39 	bl	2000a0b8 <tu_fifo_count>
20009a46:	bd10      	pop	{r4, pc}
20009a48:	2000c9c8 	.word	0x2000c9c8

20009a4c <tud_cdc_n_read>:
20009a4c:	b5f0      	push	{r4, r5, r6, r7, lr}
20009a4e:	25b6      	movs	r5, #182	; 0xb6
20009a50:	00ad      	lsls	r5, r5, #2
20009a52:	4345      	muls	r5, r0
20009a54:	002c      	movs	r4, r5
20009a56:	46c6      	mov	lr, r8
20009a58:	4f17      	ldr	r7, [pc, #92]	; (20009ab8 <tud_cdc_n_read+0x6c>)
20009a5a:	3410      	adds	r4, #16
20009a5c:	19e4      	adds	r4, r4, r7
20009a5e:	b500      	push	{lr}
20009a60:	0020      	movs	r0, r4
20009a62:	b292      	uxth	r2, r2
20009a64:	f000 fb9c 	bl	2000a1a0 <tu_fifo_read_n>
20009a68:	0006      	movs	r6, r0
20009a6a:	0020      	movs	r0, r4
20009a6c:	f000 fb3c 	bl	2000a0e8 <tu_fifo_remaining>
20009a70:	283f      	cmp	r0, #63	; 0x3f
20009a72:	d803      	bhi.n	20009a7c <tud_cdc_n_read+0x30>
20009a74:	0030      	movs	r0, r6
20009a76:	bc04      	pop	{r2}
20009a78:	4690      	mov	r8, r2
20009a7a:	bdf0      	pop	{r4, r5, r6, r7, pc}
20009a7c:	197b      	adds	r3, r7, r5
20009a7e:	2000      	movs	r0, #0
20009a80:	78d9      	ldrb	r1, [r3, #3]
20009a82:	4698      	mov	r8, r3
20009a84:	f7ff fe34 	bl	200096f0 <usbd_edpt_claim>
20009a88:	2800      	cmp	r0, #0
20009a8a:	d0f3      	beq.n	20009a74 <tud_cdc_n_read+0x28>
20009a8c:	0020      	movs	r0, r4
20009a8e:	f000 fb2b 	bl	2000a0e8 <tu_fifo_remaining>
20009a92:	283f      	cmp	r0, #63	; 0x3f
20009a94:	d90a      	bls.n	20009aac <tud_cdc_n_read+0x60>
20009a96:	2396      	movs	r3, #150	; 0x96
20009a98:	009b      	lsls	r3, r3, #2
20009a9a:	18ea      	adds	r2, r5, r3
20009a9c:	4643      	mov	r3, r8
20009a9e:	19d2      	adds	r2, r2, r7
20009aa0:	78d9      	ldrb	r1, [r3, #3]
20009aa2:	2000      	movs	r0, #0
20009aa4:	2340      	movs	r3, #64	; 0x40
20009aa6:	f7ff fe7b 	bl	200097a0 <usbd_edpt_xfer>
20009aaa:	e7e3      	b.n	20009a74 <tud_cdc_n_read+0x28>
20009aac:	4643      	mov	r3, r8
20009aae:	2000      	movs	r0, #0
20009ab0:	78d9      	ldrb	r1, [r3, #3]
20009ab2:	f7ff fe4f 	bl	20009754 <usbd_edpt_release>
20009ab6:	e7dd      	b.n	20009a74 <tud_cdc_n_read+0x28>
20009ab8:	2000c9c8 	.word	0x2000c9c8

20009abc <tud_cdc_n_write_flush>:
20009abc:	b5f8      	push	{r3, r4, r5, r6, r7, lr}
20009abe:	0004      	movs	r4, r0
20009ac0:	f7fe ffb0 	bl	20008a24 <tud_mounted>
20009ac4:	2800      	cmp	r0, #0
20009ac6:	d101      	bne.n	20009acc <tud_cdc_n_write_flush+0x10>
20009ac8:	2000      	movs	r0, #0
20009aca:	bdf8      	pop	{r3, r4, r5, r6, r7, pc}
20009acc:	f7fe ffb2 	bl	20008a34 <tud_suspended>
20009ad0:	2800      	cmp	r0, #0
20009ad2:	d1f9      	bne.n	20009ac8 <tud_cdc_n_write_flush+0xc>
20009ad4:	20b6      	movs	r0, #182	; 0xb6
20009ad6:	0080      	lsls	r0, r0, #2
20009ad8:	4344      	muls	r4, r0
20009ada:	0025      	movs	r5, r4
20009adc:	4e14      	ldr	r6, [pc, #80]	; (20009b30 <tud_cdc_n_write_flush+0x74>)
20009ade:	352c      	adds	r5, #44	; 0x2c
20009ae0:	19ad      	adds	r5, r5, r6
20009ae2:	0028      	movs	r0, r5
20009ae4:	f000 fae8 	bl	2000a0b8 <tu_fifo_count>
20009ae8:	2800      	cmp	r0, #0
20009aea:	d0ed      	beq.n	20009ac8 <tud_cdc_n_write_flush+0xc>
20009aec:	1937      	adds	r7, r6, r4
20009aee:	2000      	movs	r0, #0
20009af0:	78b9      	ldrb	r1, [r7, #2]
20009af2:	f7ff fdfd 	bl	200096f0 <usbd_edpt_claim>
20009af6:	2800      	cmp	r0, #0
20009af8:	d0e6      	beq.n	20009ac8 <tud_cdc_n_write_flush+0xc>
20009afa:	23a6      	movs	r3, #166	; 0xa6
20009afc:	009b      	lsls	r3, r3, #2
20009afe:	469c      	mov	ip, r3
20009b00:	4464      	add	r4, ip
20009b02:	19a4      	adds	r4, r4, r6
20009b04:	0021      	movs	r1, r4
20009b06:	0028      	movs	r0, r5
20009b08:	2240      	movs	r2, #64	; 0x40
20009b0a:	f000 fb49 	bl	2000a1a0 <tu_fifo_read_n>
20009b0e:	78b9      	ldrb	r1, [r7, #2]
20009b10:	1e05      	subs	r5, r0, #0
20009b12:	d008      	beq.n	20009b26 <tud_cdc_n_write_flush+0x6a>
20009b14:	0003      	movs	r3, r0
20009b16:	0022      	movs	r2, r4
20009b18:	2000      	movs	r0, #0
20009b1a:	f7ff fe41 	bl	200097a0 <usbd_edpt_xfer>
20009b1e:	2800      	cmp	r0, #0
20009b20:	d0d2      	beq.n	20009ac8 <tud_cdc_n_write_flush+0xc>
20009b22:	0028      	movs	r0, r5
20009b24:	e7d1      	b.n	20009aca <tud_cdc_n_write_flush+0xe>
20009b26:	2000      	movs	r0, #0
20009b28:	f7ff fe14 	bl	20009754 <usbd_edpt_release>
20009b2c:	e7cc      	b.n	20009ac8 <tud_cdc_n_write_flush+0xc>
20009b2e:	46c0      	nop			; (mov r8, r8)
20009b30:	2000c9c8 	.word	0x2000c9c8

20009b34 <tud_cdc_n_write>:
20009b34:	b570      	push	{r4, r5, r6, lr}
20009b36:	24b6      	movs	r4, #182	; 0xb6
20009b38:	00a4      	lsls	r4, r4, #2
20009b3a:	4344      	muls	r4, r0
20009b3c:	4b09      	ldr	r3, [pc, #36]	; (20009b64 <tud_cdc_n_write+0x30>)
20009b3e:	342c      	adds	r4, #44	; 0x2c
20009b40:	18e4      	adds	r4, r4, r3
20009b42:	0005      	movs	r5, r0
20009b44:	b292      	uxth	r2, r2
20009b46:	0020      	movs	r0, r4
20009b48:	f000 fbe8 	bl	2000a31c <tu_fifo_write_n>
20009b4c:	0006      	movs	r6, r0
20009b4e:	0020      	movs	r0, r4
20009b50:	f000 fab2 	bl	2000a0b8 <tu_fifo_count>
20009b54:	283f      	cmp	r0, #63	; 0x3f
20009b56:	d801      	bhi.n	20009b5c <tud_cdc_n_write+0x28>
20009b58:	0030      	movs	r0, r6
20009b5a:	bd70      	pop	{r4, r5, r6, pc}
20009b5c:	0028      	movs	r0, r5
20009b5e:	f7ff ffad 	bl	20009abc <tud_cdc_n_write_flush>
20009b62:	e7f9      	b.n	20009b58 <tud_cdc_n_write+0x24>
20009b64:	2000c9c8 	.word	0x2000c9c8

20009b68 <tud_cdc_n_write_available>:
20009b68:	23b6      	movs	r3, #182	; 0xb6
20009b6a:	009b      	lsls	r3, r3, #2
20009b6c:	4358      	muls	r0, r3
20009b6e:	b510      	push	{r4, lr}
20009b70:	4b02      	ldr	r3, [pc, #8]	; (20009b7c <tud_cdc_n_write_available+0x14>)
20009b72:	302c      	adds	r0, #44	; 0x2c
20009b74:	18c0      	adds	r0, r0, r3
20009b76:	f000 fab7 	bl	2000a0e8 <tu_fifo_remaining>
20009b7a:	bd10      	pop	{r4, pc}
20009b7c:	2000c9c8 	.word	0x2000c9c8

20009b80 <cdcd_init>:
20009b80:	22b6      	movs	r2, #182	; 0xb6
20009b82:	b5f0      	push	{r4, r5, r6, r7, lr}
20009b84:	4c1b      	ldr	r4, [pc, #108]	; (20009bf4 <cdcd_init+0x74>)
20009b86:	b083      	sub	sp, #12
20009b88:	2100      	movs	r1, #0
20009b8a:	0020      	movs	r0, r4
20009b8c:	0092      	lsls	r2, r2, #2
20009b8e:	f7fd fdb1 	bl	200076f4 <__wrap_memset>
20009b92:	23ff      	movs	r3, #255	; 0xff
20009b94:	7163      	strb	r3, [r4, #5]
20009b96:	4b18      	ldr	r3, [pc, #96]	; (20009bf8 <cdcd_init+0x78>)
20009b98:	2680      	movs	r6, #128	; 0x80
20009b9a:	2500      	movs	r5, #0
20009b9c:	80e3      	strh	r3, [r4, #6]
20009b9e:	2701      	movs	r7, #1
20009ba0:	2308      	movs	r3, #8
20009ba2:	0021      	movs	r1, r4
20009ba4:	0020      	movs	r0, r4
20009ba6:	0076      	lsls	r6, r6, #1
20009ba8:	7323      	strb	r3, [r4, #12]
20009baa:	0032      	movs	r2, r6
20009bac:	8127      	strh	r7, [r4, #8]
20009bae:	8165      	strh	r5, [r4, #10]
20009bb0:	3148      	adds	r1, #72	; 0x48
20009bb2:	9500      	str	r5, [sp, #0]
20009bb4:	3b07      	subs	r3, #7
20009bb6:	3010      	adds	r0, #16
20009bb8:	f000 fa42 	bl	2000a040 <tu_fifo_config>
20009bbc:	0021      	movs	r1, r4
20009bbe:	0020      	movs	r0, r4
20009bc0:	3149      	adds	r1, #73	; 0x49
20009bc2:	0032      	movs	r2, r6
20009bc4:	31ff      	adds	r1, #255	; 0xff
20009bc6:	2301      	movs	r3, #1
20009bc8:	9700      	str	r7, [sp, #0]
20009bca:	302c      	adds	r0, #44	; 0x2c
20009bcc:	f000 fa38 	bl	2000a040 <tu_fifo_config>
20009bd0:	2392      	movs	r3, #146	; 0x92
20009bd2:	009b      	lsls	r3, r3, #2
20009bd4:	18e6      	adds	r6, r4, r3
20009bd6:	0030      	movs	r0, r6
20009bd8:	f7fa f83a 	bl	20003c50 <mutex_init>
20009bdc:	2394      	movs	r3, #148	; 0x94
20009bde:	009b      	lsls	r3, r3, #2
20009be0:	62a6      	str	r6, [r4, #40]	; 0x28
20009be2:	18e6      	adds	r6, r4, r3
20009be4:	0030      	movs	r0, r6
20009be6:	6265      	str	r5, [r4, #36]	; 0x24
20009be8:	f7fa f832 	bl	20003c50 <mutex_init>
20009bec:	6426      	str	r6, [r4, #64]	; 0x40
20009bee:	6465      	str	r5, [r4, #68]	; 0x44
20009bf0:	b003      	add	sp, #12
20009bf2:	bdf0      	pop	{r4, r5, r6, r7, pc}
20009bf4:	2000c9c8 	.word	0x2000c9c8
20009bf8:	ffffc200 	.word	0xffffc200

20009bfc <cdcd_reset>:
20009bfc:	b510      	push	{r4, lr}
20009bfe:	4c09      	ldr	r4, [pc, #36]	; (20009c24 <cdcd_reset+0x28>)
20009c00:	2205      	movs	r2, #5
20009c02:	2100      	movs	r1, #0
20009c04:	0020      	movs	r0, r4
20009c06:	f7fd fd75 	bl	200076f4 <__wrap_memset>
20009c0a:	0020      	movs	r0, r4
20009c0c:	342c      	adds	r4, #44	; 0x2c
20009c0e:	3010      	adds	r0, #16
20009c10:	f000 fc00 	bl	2000a414 <tu_fifo_clear>
20009c14:	0020      	movs	r0, r4
20009c16:	f000 fbfd 	bl	2000a414 <tu_fifo_clear>
20009c1a:	2101      	movs	r1, #1
20009c1c:	0020      	movs	r0, r4
20009c1e:	f000 fc1f 	bl	2000a460 <tu_fifo_set_overwritable>
20009c22:	bd10      	pop	{r4, pc}
20009c24:	2000c9c8 	.word	0x2000c9c8

20009c28 <cdcd_open>:
20009c28:	b5f0      	push	{r4, r5, r6, r7, lr}
20009c2a:	794b      	ldrb	r3, [r1, #5]
20009c2c:	0006      	movs	r6, r0
20009c2e:	b083      	sub	sp, #12
20009c30:	2b02      	cmp	r3, #2
20009c32:	d102      	bne.n	20009c3a <cdcd_open+0x12>
20009c34:	798b      	ldrb	r3, [r1, #6]
20009c36:	2b02      	cmp	r3, #2
20009c38:	d003      	beq.n	20009c42 <cdcd_open+0x1a>
20009c3a:	2500      	movs	r5, #0
20009c3c:	0028      	movs	r0, r5
20009c3e:	b003      	add	sp, #12
20009c40:	bdf0      	pop	{r4, r5, r6, r7, pc}
20009c42:	4f2f      	ldr	r7, [pc, #188]	; (20009d00 <cdcd_open+0xd8>)
20009c44:	78bb      	ldrb	r3, [r7, #2]
20009c46:	2b00      	cmp	r3, #0
20009c48:	d1f7      	bne.n	20009c3a <cdcd_open+0x12>
20009c4a:	788b      	ldrb	r3, [r1, #2]
20009c4c:	2509      	movs	r5, #9
20009c4e:	703b      	strb	r3, [r7, #0]
20009c50:	780c      	ldrb	r4, [r1, #0]
20009c52:	190c      	adds	r4, r1, r4
20009c54:	7863      	ldrb	r3, [r4, #1]
20009c56:	2b24      	cmp	r3, #36	; 0x24
20009c58:	d10b      	bne.n	20009c72 <cdcd_open+0x4a>
20009c5a:	2a08      	cmp	r2, #8
20009c5c:	d802      	bhi.n	20009c64 <cdcd_open+0x3c>
20009c5e:	e00f      	b.n	20009c80 <cdcd_open+0x58>
20009c60:	42aa      	cmp	r2, r5
20009c62:	d30d      	bcc.n	20009c80 <cdcd_open+0x58>
20009c64:	7823      	ldrb	r3, [r4, #0]
20009c66:	18e4      	adds	r4, r4, r3
20009c68:	18ed      	adds	r5, r5, r3
20009c6a:	7863      	ldrb	r3, [r4, #1]
20009c6c:	b2ad      	uxth	r5, r5
20009c6e:	2b24      	cmp	r3, #36	; 0x24
20009c70:	d0f6      	beq.n	20009c60 <cdcd_open+0x38>
20009c72:	2b05      	cmp	r3, #5
20009c74:	d020      	beq.n	20009cb8 <cdcd_open+0x90>
20009c76:	2b04      	cmp	r3, #4
20009c78:	d102      	bne.n	20009c80 <cdcd_open+0x58>
20009c7a:	7963      	ldrb	r3, [r4, #5]
20009c7c:	2b0a      	cmp	r3, #10
20009c7e:	d02e      	beq.n	20009cde <cdcd_open+0xb6>
20009c80:	4c20      	ldr	r4, [pc, #128]	; (20009d04 <cdcd_open+0xdc>)
20009c82:	0020      	movs	r0, r4
20009c84:	f000 fa30 	bl	2000a0e8 <tu_fifo_remaining>
20009c88:	283f      	cmp	r0, #63	; 0x3f
20009c8a:	d9d7      	bls.n	20009c3c <cdcd_open+0x14>
20009c8c:	0026      	movs	r6, r4
20009c8e:	3e10      	subs	r6, #16
20009c90:	2000      	movs	r0, #0
20009c92:	78f1      	ldrb	r1, [r6, #3]
20009c94:	f7ff fd2c 	bl	200096f0 <usbd_edpt_claim>
20009c98:	2800      	cmp	r0, #0
20009c9a:	d0cf      	beq.n	20009c3c <cdcd_open+0x14>
20009c9c:	0020      	movs	r0, r4
20009c9e:	f000 fa23 	bl	2000a0e8 <tu_fifo_remaining>
20009ca2:	283f      	cmp	r0, #63	; 0x3f
20009ca4:	d916      	bls.n	20009cd4 <cdcd_open+0xac>
20009ca6:	2392      	movs	r3, #146	; 0x92
20009ca8:	009b      	lsls	r3, r3, #2
20009caa:	18e2      	adds	r2, r4, r3
20009cac:	78f1      	ldrb	r1, [r6, #3]
20009cae:	2340      	movs	r3, #64	; 0x40
20009cb0:	2000      	movs	r0, #0
20009cb2:	f7ff fd75 	bl	200097a0 <usbd_edpt_xfer>
20009cb6:	e7c1      	b.n	20009c3c <cdcd_open+0x14>
20009cb8:	0021      	movs	r1, r4
20009cba:	0030      	movs	r0, r6
20009cbc:	f7ff fd00 	bl	200096c0 <usbd_edpt_open>
20009cc0:	2800      	cmp	r0, #0
20009cc2:	d0ba      	beq.n	20009c3a <cdcd_open+0x12>
20009cc4:	78a3      	ldrb	r3, [r4, #2]
20009cc6:	707b      	strb	r3, [r7, #1]
20009cc8:	7823      	ldrb	r3, [r4, #0]
20009cca:	18ed      	adds	r5, r5, r3
20009ccc:	18e4      	adds	r4, r4, r3
20009cce:	7863      	ldrb	r3, [r4, #1]
20009cd0:	b2ad      	uxth	r5, r5
20009cd2:	e7d0      	b.n	20009c76 <cdcd_open+0x4e>
20009cd4:	78f1      	ldrb	r1, [r6, #3]
20009cd6:	2000      	movs	r0, #0
20009cd8:	f7ff fd3c 	bl	20009754 <usbd_edpt_release>
20009cdc:	e7ae      	b.n	20009c3c <cdcd_open+0x14>
20009cde:	4b0a      	ldr	r3, [pc, #40]	; (20009d08 <cdcd_open+0xe0>)
20009ce0:	7827      	ldrb	r7, [r4, #0]
20009ce2:	9301      	str	r3, [sp, #4]
20009ce4:	3301      	adds	r3, #1
20009ce6:	9300      	str	r3, [sp, #0]
20009ce8:	2202      	movs	r2, #2
20009cea:	2302      	movs	r3, #2
20009cec:	0030      	movs	r0, r6
20009cee:	19e1      	adds	r1, r4, r7
20009cf0:	f7ff fca6 	bl	20009640 <usbd_open_edpt_pair>
20009cf4:	2800      	cmp	r0, #0
20009cf6:	d0a0      	beq.n	20009c3a <cdcd_open+0x12>
20009cf8:	350e      	adds	r5, #14
20009cfa:	19ed      	adds	r5, r5, r7
20009cfc:	b2ad      	uxth	r5, r5
20009cfe:	e7bf      	b.n	20009c80 <cdcd_open+0x58>
20009d00:	2000c9c8 	.word	0x2000c9c8
20009d04:	2000c9d8 	.word	0x2000c9d8
20009d08:	2000c9ca 	.word	0x2000c9ca

20009d0c <cdcd_control_xfer_cb>:
20009d0c:	b5f8      	push	{r3, r4, r5, r6, r7, lr}
20009d0e:	2360      	movs	r3, #96	; 0x60
20009d10:	0014      	movs	r4, r2
20009d12:	7812      	ldrb	r2, [r2, #0]
20009d14:	0005      	movs	r5, r0
20009d16:	4013      	ands	r3, r2
20009d18:	2000      	movs	r0, #0
20009d1a:	2b20      	cmp	r3, #32
20009d1c:	d112      	bne.n	20009d44 <cdcd_control_xfer_cb+0x38>
20009d1e:	4e2f      	ldr	r6, [pc, #188]	; (20009ddc <cdcd_control_xfer_cb+0xd0>)
20009d20:	7963      	ldrb	r3, [r4, #5]
20009d22:	7927      	ldrb	r7, [r4, #4]
20009d24:	7832      	ldrb	r2, [r6, #0]
20009d26:	021b      	lsls	r3, r3, #8
20009d28:	433b      	orrs	r3, r7
20009d2a:	429a      	cmp	r2, r3
20009d2c:	d10a      	bne.n	20009d44 <cdcd_control_xfer_cb+0x38>
20009d2e:	7863      	ldrb	r3, [r4, #1]
20009d30:	2b22      	cmp	r3, #34	; 0x22
20009d32:	d027      	beq.n	20009d84 <cdcd_control_xfer_cb+0x78>
20009d34:	d807      	bhi.n	20009d46 <cdcd_control_xfer_cb+0x3a>
20009d36:	2b20      	cmp	r3, #32
20009d38:	d017      	beq.n	20009d6a <cdcd_control_xfer_cb+0x5e>
20009d3a:	2b21      	cmp	r3, #33	; 0x21
20009d3c:	d102      	bne.n	20009d44 <cdcd_control_xfer_cb+0x38>
20009d3e:	2900      	cmp	r1, #0
20009d40:	d03e      	beq.n	20009dc0 <cdcd_control_xfer_cb+0xb4>
20009d42:	2001      	movs	r0, #1
20009d44:	bdf8      	pop	{r3, r4, r5, r6, r7, pc}
20009d46:	2b23      	cmp	r3, #35	; 0x23
20009d48:	d1fc      	bne.n	20009d44 <cdcd_control_xfer_cb+0x38>
20009d4a:	2900      	cmp	r1, #0
20009d4c:	d040      	beq.n	20009dd0 <cdcd_control_xfer_cb+0xc4>
20009d4e:	2902      	cmp	r1, #2
20009d50:	d1f7      	bne.n	20009d42 <cdcd_control_xfer_cb+0x36>
20009d52:	4b23      	ldr	r3, [pc, #140]	; (20009de0 <cdcd_control_xfer_cb+0xd4>)
20009d54:	2b00      	cmp	r3, #0
20009d56:	d0f4      	beq.n	20009d42 <cdcd_control_xfer_cb+0x36>
20009d58:	78e1      	ldrb	r1, [r4, #3]
20009d5a:	78a3      	ldrb	r3, [r4, #2]
20009d5c:	0209      	lsls	r1, r1, #8
20009d5e:	2000      	movs	r0, #0
20009d60:	4319      	orrs	r1, r3
20009d62:	e000      	b.n	20009d66 <cdcd_control_xfer_cb+0x5a>
20009d64:	bf00      	nop
20009d66:	2001      	movs	r0, #1
20009d68:	e7ec      	b.n	20009d44 <cdcd_control_xfer_cb+0x38>
20009d6a:	2900      	cmp	r1, #0
20009d6c:	d028      	beq.n	20009dc0 <cdcd_control_xfer_cb+0xb4>
20009d6e:	2902      	cmp	r1, #2
20009d70:	d1e7      	bne.n	20009d42 <cdcd_control_xfer_cb+0x36>
20009d72:	4b1c      	ldr	r3, [pc, #112]	; (20009de4 <cdcd_control_xfer_cb+0xd8>)
20009d74:	2b00      	cmp	r3, #0
20009d76:	d0e4      	beq.n	20009d42 <cdcd_control_xfer_cb+0x36>
20009d78:	2000      	movs	r0, #0
20009d7a:	1db1      	adds	r1, r6, #6
20009d7c:	f7fd fff2 	bl	20007d64 <tud_cdc_line_coding_cb>
20009d80:	2001      	movs	r0, #1
20009d82:	e7df      	b.n	20009d44 <cdcd_control_xfer_cb+0x38>
20009d84:	2900      	cmp	r1, #0
20009d86:	d023      	beq.n	20009dd0 <cdcd_control_xfer_cb+0xc4>
20009d88:	2902      	cmp	r1, #2
20009d8a:	d1da      	bne.n	20009d42 <cdcd_control_xfer_cb+0x36>
20009d8c:	2501      	movs	r5, #1
20009d8e:	002f      	movs	r7, r5
20009d90:	0030      	movs	r0, r6
20009d92:	78a3      	ldrb	r3, [r4, #2]
20009d94:	78e4      	ldrb	r4, [r4, #3]
20009d96:	3901      	subs	r1, #1
20009d98:	0224      	lsls	r4, r4, #8
20009d9a:	431c      	orrs	r4, r3
20009d9c:	4027      	ands	r7, r4
20009d9e:	7134      	strb	r4, [r6, #4]
20009da0:	4079      	eors	r1, r7
20009da2:	302c      	adds	r0, #44	; 0x2c
20009da4:	f000 fb5c 	bl	2000a460 <tu_fifo_set_overwritable>
20009da8:	4b0f      	ldr	r3, [pc, #60]	; (20009de8 <cdcd_control_xfer_cb+0xdc>)
20009daa:	2b00      	cmp	r3, #0
20009dac:	d0c9      	beq.n	20009d42 <cdcd_control_xfer_cb+0x36>
20009dae:	002a      	movs	r2, r5
20009db0:	0864      	lsrs	r4, r4, #1
20009db2:	2000      	movs	r0, #0
20009db4:	0039      	movs	r1, r7
20009db6:	4022      	ands	r2, r4
20009db8:	e000      	b.n	20009dbc <cdcd_control_xfer_cb+0xb0>
20009dba:	bf00      	nop
20009dbc:	2001      	movs	r0, #1
20009dbe:	e7c1      	b.n	20009d44 <cdcd_control_xfer_cb+0x38>
20009dc0:	2307      	movs	r3, #7
20009dc2:	0021      	movs	r1, r4
20009dc4:	0028      	movs	r0, r5
20009dc6:	4a09      	ldr	r2, [pc, #36]	; (20009dec <cdcd_control_xfer_cb+0xe0>)
20009dc8:	f7ff fd26 	bl	20009818 <tud_control_xfer>
20009dcc:	2001      	movs	r0, #1
20009dce:	e7b9      	b.n	20009d44 <cdcd_control_xfer_cb+0x38>
20009dd0:	0021      	movs	r1, r4
20009dd2:	0028      	movs	r0, r5
20009dd4:	f7ff fd08 	bl	200097e8 <tud_control_status>
20009dd8:	2001      	movs	r0, #1
20009dda:	e7b3      	b.n	20009d44 <cdcd_control_xfer_cb+0x38>
20009ddc:	2000c9c8 	.word	0x2000c9c8
20009de0:	00000000 	.word	0x00000000
20009de4:	20007d65 	.word	0x20007d65
20009de8:	00000000 	.word	0x00000000
20009dec:	2000c9ce 	.word	0x2000c9ce

20009df0 <cdcd_xfer_cb>:
20009df0:	b5f8      	push	{r3, r4, r5, r6, r7, lr}
20009df2:	4657      	mov	r7, sl
20009df4:	464e      	mov	r6, r9
20009df6:	4645      	mov	r5, r8
20009df8:	46de      	mov	lr, fp
20009dfa:	b5e0      	push	{r5, r6, r7, lr}
20009dfc:	4f5d      	ldr	r7, [pc, #372]	; (20009f74 <cdcd_xfer_cb+0x184>)
20009dfe:	4680      	mov	r8, r0
20009e00:	78fa      	ldrb	r2, [r7, #3]
20009e02:	000c      	movs	r4, r1
20009e04:	001e      	movs	r6, r3
20009e06:	428a      	cmp	r2, r1
20009e08:	d165      	bne.n	20009ed6 <cdcd_xfer_cb+0xe6>
20009e0a:	b29a      	uxth	r2, r3
20009e0c:	2396      	movs	r3, #150	; 0x96
20009e0e:	009b      	lsls	r3, r3, #2
20009e10:	18fd      	adds	r5, r7, r3
20009e12:	2310      	movs	r3, #16
20009e14:	4699      	mov	r9, r3
20009e16:	44b9      	add	r9, r7
20009e18:	0029      	movs	r1, r5
20009e1a:	4648      	mov	r0, r9
20009e1c:	f000 fa7e 	bl	2000a31c <tu_fifo_write_n>
20009e20:	4b55      	ldr	r3, [pc, #340]	; (20009f78 <cdcd_xfer_cb+0x188>)
20009e22:	2b00      	cmp	r3, #0
20009e24:	d019      	beq.n	20009e5a <cdcd_xfer_cb+0x6a>
20009e26:	797b      	ldrb	r3, [r7, #5]
20009e28:	2bff      	cmp	r3, #255	; 0xff
20009e2a:	d016      	beq.n	20009e5a <cdcd_xfer_cb+0x6a>
20009e2c:	2e00      	cmp	r6, #0
20009e2e:	d014      	beq.n	20009e5a <cdcd_xfer_cb+0x6a>
20009e30:	19aa      	adds	r2, r5, r6
20009e32:	4692      	mov	sl, r2
20009e34:	46bb      	mov	fp, r7
20009e36:	e003      	b.n	20009e40 <cdcd_xfer_cb+0x50>
20009e38:	3501      	adds	r5, #1
20009e3a:	4555      	cmp	r5, sl
20009e3c:	d00d      	beq.n	20009e5a <cdcd_xfer_cb+0x6a>
20009e3e:	797b      	ldrb	r3, [r7, #5]
20009e40:	782a      	ldrb	r2, [r5, #0]
20009e42:	429a      	cmp	r2, r3
20009e44:	d1f8      	bne.n	20009e38 <cdcd_xfer_cb+0x48>
20009e46:	4648      	mov	r0, r9
20009e48:	f000 f946 	bl	2000a0d8 <tu_fifo_empty>
20009e4c:	2800      	cmp	r0, #0
20009e4e:	d1f3      	bne.n	20009e38 <cdcd_xfer_cb+0x48>
20009e50:	465b      	mov	r3, fp
20009e52:	7959      	ldrb	r1, [r3, #5]
20009e54:	e000      	b.n	20009e58 <cdcd_xfer_cb+0x68>
20009e56:	bf00      	nop
20009e58:	e7ee      	b.n	20009e38 <cdcd_xfer_cb+0x48>
20009e5a:	4b48      	ldr	r3, [pc, #288]	; (20009f7c <cdcd_xfer_cb+0x18c>)
20009e5c:	2b00      	cmp	r3, #0
20009e5e:	d005      	beq.n	20009e6c <cdcd_xfer_cb+0x7c>
20009e60:	4648      	mov	r0, r9
20009e62:	f000 f939 	bl	2000a0d8 <tu_fifo_empty>
20009e66:	2800      	cmp	r0, #0
20009e68:	d100      	bne.n	20009e6c <cdcd_xfer_cb+0x7c>
20009e6a:	e076      	b.n	20009f5a <cdcd_xfer_cb+0x16a>
20009e6c:	4648      	mov	r0, r9
20009e6e:	f000 f93b 	bl	2000a0e8 <tu_fifo_remaining>
20009e72:	283f      	cmp	r0, #63	; 0x3f
20009e74:	d858      	bhi.n	20009f28 <cdcd_xfer_cb+0x138>
20009e76:	464a      	mov	r2, r9
20009e78:	3a10      	subs	r2, #16
20009e7a:	7893      	ldrb	r3, [r2, #2]
20009e7c:	429c      	cmp	r4, r3
20009e7e:	d007      	beq.n	20009e90 <cdcd_xfer_cb+0xa0>
20009e80:	2401      	movs	r4, #1
20009e82:	0020      	movs	r0, r4
20009e84:	bc3c      	pop	{r2, r3, r4, r5}
20009e86:	4690      	mov	r8, r2
20009e88:	4699      	mov	r9, r3
20009e8a:	46a2      	mov	sl, r4
20009e8c:	46ab      	mov	fp, r5
20009e8e:	bdf8      	pop	{r3, r4, r5, r6, r7, pc}
20009e90:	4b3b      	ldr	r3, [pc, #236]	; (20009f80 <cdcd_xfer_cb+0x190>)
20009e92:	2b00      	cmp	r3, #0
20009e94:	d002      	beq.n	20009e9c <cdcd_xfer_cb+0xac>
20009e96:	2000      	movs	r0, #0
20009e98:	e000      	b.n	20009e9c <cdcd_xfer_cb+0xac>
20009e9a:	bf00      	nop
20009e9c:	f7fe fdc2 	bl	20008a24 <tud_mounted>
20009ea0:	2800      	cmp	r0, #0
20009ea2:	d11d      	bne.n	20009ee0 <cdcd_xfer_cb+0xf0>
20009ea4:	4c37      	ldr	r4, [pc, #220]	; (20009f84 <cdcd_xfer_cb+0x194>)
20009ea6:	0020      	movs	r0, r4
20009ea8:	f000 f906 	bl	2000a0b8 <tu_fifo_count>
20009eac:	2800      	cmp	r0, #0
20009eae:	d1e7      	bne.n	20009e80 <cdcd_xfer_cb+0x90>
20009eb0:	2e00      	cmp	r6, #0
20009eb2:	d0e5      	beq.n	20009e80 <cdcd_xfer_cb+0x90>
20009eb4:	06b3      	lsls	r3, r6, #26
20009eb6:	d1e3      	bne.n	20009e80 <cdcd_xfer_cb+0x90>
20009eb8:	3c2c      	subs	r4, #44	; 0x2c
20009eba:	78a1      	ldrb	r1, [r4, #2]
20009ebc:	4640      	mov	r0, r8
20009ebe:	f7ff fc17 	bl	200096f0 <usbd_edpt_claim>
20009ec2:	0025      	movs	r5, r4
20009ec4:	1e04      	subs	r4, r0, #0
20009ec6:	d0db      	beq.n	20009e80 <cdcd_xfer_cb+0x90>
20009ec8:	2300      	movs	r3, #0
20009eca:	2200      	movs	r2, #0
20009ecc:	4640      	mov	r0, r8
20009ece:	78a9      	ldrb	r1, [r5, #2]
20009ed0:	f7ff fc66 	bl	200097a0 <usbd_edpt_xfer>
20009ed4:	e7d5      	b.n	20009e82 <cdcd_xfer_cb+0x92>
20009ed6:	78bb      	ldrb	r3, [r7, #2]
20009ed8:	428b      	cmp	r3, r1
20009eda:	d0d9      	beq.n	20009e90 <cdcd_xfer_cb+0xa0>
20009edc:	2400      	movs	r4, #0
20009ede:	e7d0      	b.n	20009e82 <cdcd_xfer_cb+0x92>
20009ee0:	f7fe fda8 	bl	20008a34 <tud_suspended>
20009ee4:	4c27      	ldr	r4, [pc, #156]	; (20009f84 <cdcd_xfer_cb+0x194>)
20009ee6:	2800      	cmp	r0, #0
20009ee8:	d1dd      	bne.n	20009ea6 <cdcd_xfer_cb+0xb6>
20009eea:	0020      	movs	r0, r4
20009eec:	f000 f8e4 	bl	2000a0b8 <tu_fifo_count>
20009ef0:	2800      	cmp	r0, #0
20009ef2:	d0d8      	beq.n	20009ea6 <cdcd_xfer_cb+0xb6>
20009ef4:	0025      	movs	r5, r4
20009ef6:	3d2c      	subs	r5, #44	; 0x2c
20009ef8:	2000      	movs	r0, #0
20009efa:	78a9      	ldrb	r1, [r5, #2]
20009efc:	f7ff fbf8 	bl	200096f0 <usbd_edpt_claim>
20009f00:	2800      	cmp	r0, #0
20009f02:	d0d0      	beq.n	20009ea6 <cdcd_xfer_cb+0xb6>
20009f04:	239b      	movs	r3, #155	; 0x9b
20009f06:	009b      	lsls	r3, r3, #2
20009f08:	18e7      	adds	r7, r4, r3
20009f0a:	0039      	movs	r1, r7
20009f0c:	2240      	movs	r2, #64	; 0x40
20009f0e:	0020      	movs	r0, r4
20009f10:	f000 f946 	bl	2000a1a0 <tu_fifo_read_n>
20009f14:	78a9      	ldrb	r1, [r5, #2]
20009f16:	1e03      	subs	r3, r0, #0
20009f18:	d028      	beq.n	20009f6c <cdcd_xfer_cb+0x17c>
20009f1a:	003a      	movs	r2, r7
20009f1c:	2000      	movs	r0, #0
20009f1e:	f7ff fc3f 	bl	200097a0 <usbd_edpt_xfer>
20009f22:	2800      	cmp	r0, #0
20009f24:	d1ac      	bne.n	20009e80 <cdcd_xfer_cb+0x90>
20009f26:	e7be      	b.n	20009ea6 <cdcd_xfer_cb+0xb6>
20009f28:	464d      	mov	r5, r9
20009f2a:	3d10      	subs	r5, #16
20009f2c:	2000      	movs	r0, #0
20009f2e:	78e9      	ldrb	r1, [r5, #3]
20009f30:	f7ff fbde 	bl	200096f0 <usbd_edpt_claim>
20009f34:	2800      	cmp	r0, #0
20009f36:	d101      	bne.n	20009f3c <cdcd_xfer_cb+0x14c>
20009f38:	78ab      	ldrb	r3, [r5, #2]
20009f3a:	e79f      	b.n	20009e7c <cdcd_xfer_cb+0x8c>
20009f3c:	4648      	mov	r0, r9
20009f3e:	f000 f8d3 	bl	2000a0e8 <tu_fifo_remaining>
20009f42:	283f      	cmp	r0, #63	; 0x3f
20009f44:	d90c      	bls.n	20009f60 <cdcd_xfer_cb+0x170>
20009f46:	2292      	movs	r2, #146	; 0x92
20009f48:	0092      	lsls	r2, r2, #2
20009f4a:	2340      	movs	r3, #64	; 0x40
20009f4c:	2000      	movs	r0, #0
20009f4e:	78e9      	ldrb	r1, [r5, #3]
20009f50:	444a      	add	r2, r9
20009f52:	f7ff fc25 	bl	200097a0 <usbd_edpt_xfer>
20009f56:	78ab      	ldrb	r3, [r5, #2]
20009f58:	e790      	b.n	20009e7c <cdcd_xfer_cb+0x8c>
20009f5a:	e000      	b.n	20009f5e <cdcd_xfer_cb+0x16e>
20009f5c:	bf00      	nop
20009f5e:	e785      	b.n	20009e6c <cdcd_xfer_cb+0x7c>
20009f60:	2000      	movs	r0, #0
20009f62:	78e9      	ldrb	r1, [r5, #3]
20009f64:	f7ff fbf6 	bl	20009754 <usbd_edpt_release>
20009f68:	78ab      	ldrb	r3, [r5, #2]
20009f6a:	e787      	b.n	20009e7c <cdcd_xfer_cb+0x8c>
20009f6c:	2000      	movs	r0, #0
20009f6e:	f7ff fbf1 	bl	20009754 <usbd_edpt_release>
20009f72:	e798      	b.n	20009ea6 <cdcd_xfer_cb+0xb6>
20009f74:	2000c9c8 	.word	0x2000c9c8
	...
20009f84:	2000c9f4 	.word	0x2000c9f4

20009f88 <tusb_init>:
20009f88:	b510      	push	{r4, lr}
20009f8a:	2000      	movs	r0, #0
20009f8c:	f7fe fd60 	bl	20008a50 <tud_init>
20009f90:	bd10      	pop	{r4, pc}
20009f92:	46c0      	nop			; (mov r8, r8)

20009f94 <tusb_inited>:
20009f94:	b510      	push	{r4, lr}
20009f96:	f7fe fd55 	bl	20008a44 <tud_inited>
20009f9a:	bd10      	pop	{r4, pc}

20009f9c <tu_edpt_validate>:
20009f9c:	2207      	movs	r2, #7
20009f9e:	b510      	push	{r4, lr}
20009fa0:	7944      	ldrb	r4, [r0, #5]
20009fa2:	7903      	ldrb	r3, [r0, #4]
20009fa4:	4022      	ands	r2, r4
20009fa6:	0212      	lsls	r2, r2, #8
20009fa8:	431a      	orrs	r2, r3
20009faa:	78c3      	ldrb	r3, [r0, #3]
20009fac:	079b      	lsls	r3, r3, #30
20009fae:	0f9b      	lsrs	r3, r3, #30
20009fb0:	2b02      	cmp	r3, #2
20009fb2:	d005      	beq.n	20009fc0 <tu_edpt_validate+0x24>
20009fb4:	2b03      	cmp	r3, #3
20009fb6:	d015      	beq.n	20009fe4 <tu_edpt_validate+0x48>
20009fb8:	2000      	movs	r0, #0
20009fba:	2b01      	cmp	r3, #1
20009fbc:	d008      	beq.n	20009fd0 <tu_edpt_validate+0x34>
20009fbe:	bd10      	pop	{r4, pc}
20009fc0:	2902      	cmp	r1, #2
20009fc2:	d01c      	beq.n	20009ffe <tu_edpt_validate+0x62>
20009fc4:	2000      	movs	r0, #0
20009fc6:	2340      	movs	r3, #64	; 0x40
20009fc8:	4293      	cmp	r3, r2
20009fca:	4140      	adcs	r0, r0
20009fcc:	b2c0      	uxtb	r0, r0
20009fce:	e7f6      	b.n	20009fbe <tu_edpt_validate+0x22>
20009fd0:	3902      	subs	r1, #2
20009fd2:	424b      	negs	r3, r1
20009fd4:	4159      	adcs	r1, r3
20009fd6:	4b0d      	ldr	r3, [pc, #52]	; (2000a00c <tu_edpt_validate+0x70>)
20009fd8:	469c      	mov	ip, r3
20009fda:	4461      	add	r1, ip
20009fdc:	4291      	cmp	r1, r2
20009fde:	4140      	adcs	r0, r0
20009fe0:	b2c0      	uxtb	r0, r0
20009fe2:	e7ec      	b.n	20009fbe <tu_edpt_validate+0x22>
20009fe4:	3902      	subs	r1, #2
20009fe6:	424b      	negs	r3, r1
20009fe8:	4159      	adcs	r1, r3
20009fea:	23f0      	movs	r3, #240	; 0xf0
20009fec:	2000      	movs	r0, #0
20009fee:	4249      	negs	r1, r1
20009ff0:	009b      	lsls	r3, r3, #2
20009ff2:	4019      	ands	r1, r3
20009ff4:	3140      	adds	r1, #64	; 0x40
20009ff6:	4291      	cmp	r1, r2
20009ff8:	4140      	adcs	r0, r0
20009ffa:	b2c0      	uxtb	r0, r0
20009ffc:	e7df      	b.n	20009fbe <tu_edpt_validate+0x22>
20009ffe:	4b04      	ldr	r3, [pc, #16]	; (2000a010 <tu_edpt_validate+0x74>)
2000a000:	469c      	mov	ip, r3
2000a002:	4462      	add	r2, ip
2000a004:	4250      	negs	r0, r2
2000a006:	4150      	adcs	r0, r2
2000a008:	b2c0      	uxtb	r0, r0
2000a00a:	e7d8      	b.n	20009fbe <tu_edpt_validate+0x22>
2000a00c:	000003ff 	.word	0x000003ff
2000a010:	fffffe00 	.word	0xfffffe00

2000a014 <tu_edpt_bind_driver>:
2000a014:	b5f0      	push	{r4, r5, r6, r7, lr}
2000a016:	2a00      	cmp	r2, #0
2000a018:	d011      	beq.n	2000a03e <tu_edpt_bind_driver+0x2a>
2000a01a:	2400      	movs	r4, #0
2000a01c:	277f      	movs	r7, #127	; 0x7f
2000a01e:	784d      	ldrb	r5, [r1, #1]
2000a020:	2d05      	cmp	r5, #5
2000a022:	d106      	bne.n	2000a032 <tu_edpt_bind_driver+0x1e>
2000a024:	003d      	movs	r5, r7
2000a026:	788e      	ldrb	r6, [r1, #2]
2000a028:	4035      	ands	r5, r6
2000a02a:	006d      	lsls	r5, r5, #1
2000a02c:	09f6      	lsrs	r6, r6, #7
2000a02e:	1945      	adds	r5, r0, r5
2000a030:	55ab      	strb	r3, [r5, r6]
2000a032:	780d      	ldrb	r5, [r1, #0]
2000a034:	1964      	adds	r4, r4, r5
2000a036:	b2a4      	uxth	r4, r4
2000a038:	1949      	adds	r1, r1, r5
2000a03a:	42a2      	cmp	r2, r4
2000a03c:	d8ef      	bhi.n	2000a01e <tu_edpt_bind_driver+0xa>
2000a03e:	bdf0      	pop	{r4, r5, r6, r7, pc}

2000a040 <tu_fifo_config>:
2000a040:	b5f0      	push	{r4, r5, r6, r7, lr}
2000a042:	46c6      	mov	lr, r8
2000a044:	b500      	push	{lr}
2000a046:	0015      	movs	r5, r2
2000a048:	aa06      	add	r2, sp, #24
2000a04a:	001e      	movs	r6, r3
2000a04c:	7813      	ldrb	r3, [r2, #0]
2000a04e:	2280      	movs	r2, #128	; 0x80
2000a050:	0004      	movs	r4, r0
2000a052:	000f      	movs	r7, r1
2000a054:	4698      	mov	r8, r3
2000a056:	0212      	lsls	r2, r2, #8
2000a058:	4295      	cmp	r5, r2
2000a05a:	d82a      	bhi.n	2000a0b2 <tu_fifo_config+0x72>
2000a05c:	6940      	ldr	r0, [r0, #20]
2000a05e:	2800      	cmp	r0, #0
2000a060:	d003      	beq.n	2000a06a <tu_fifo_config+0x2a>
2000a062:	2101      	movs	r1, #1
2000a064:	4249      	negs	r1, r1
2000a066:	f000 fc8b 	bl	2000a980 <mutex_enter_timeout_ms>
2000a06a:	69a0      	ldr	r0, [r4, #24]
2000a06c:	2800      	cmp	r0, #0
2000a06e:	d003      	beq.n	2000a078 <tu_fifo_config+0x38>
2000a070:	2101      	movs	r1, #1
2000a072:	4249      	negs	r1, r1
2000a074:	f000 fc84 	bl	2000a980 <mutex_enter_timeout_ms>
2000a078:	4643      	mov	r3, r8
2000a07a:	80a5      	strh	r5, [r4, #4]
2000a07c:	006d      	lsls	r5, r5, #1
2000a07e:	b2ad      	uxth	r5, r5
2000a080:	7223      	strb	r3, [r4, #8]
2000a082:	1e6b      	subs	r3, r5, #1
2000a084:	81a3      	strh	r3, [r4, #12]
2000a086:	2300      	movs	r3, #0
2000a088:	6960      	ldr	r0, [r4, #20]
2000a08a:	426d      	negs	r5, r5
2000a08c:	81e3      	strh	r3, [r4, #14]
2000a08e:	6027      	str	r7, [r4, #0]
2000a090:	80e6      	strh	r6, [r4, #6]
2000a092:	8165      	strh	r5, [r4, #10]
2000a094:	8223      	strh	r3, [r4, #16]
2000a096:	2800      	cmp	r0, #0
2000a098:	d001      	beq.n	2000a09e <tu_fifo_config+0x5e>
2000a09a:	f000 fcbd 	bl	2000aa18 <mutex_exit>
2000a09e:	69a0      	ldr	r0, [r4, #24]
2000a0a0:	2401      	movs	r4, #1
2000a0a2:	2800      	cmp	r0, #0
2000a0a4:	d001      	beq.n	2000a0aa <tu_fifo_config+0x6a>
2000a0a6:	f000 fcb7 	bl	2000aa18 <mutex_exit>
2000a0aa:	0020      	movs	r0, r4
2000a0ac:	bc04      	pop	{r2}
2000a0ae:	4690      	mov	r8, r2
2000a0b0:	bdf0      	pop	{r4, r5, r6, r7, pc}
2000a0b2:	2400      	movs	r4, #0
2000a0b4:	e7f9      	b.n	2000a0aa <tu_fifo_config+0x6a>
2000a0b6:	46c0      	nop			; (mov r8, r8)

2000a0b8 <tu_fifo_count>:
2000a0b8:	89c1      	ldrh	r1, [r0, #14]
2000a0ba:	8a02      	ldrh	r2, [r0, #16]
2000a0bc:	1a8b      	subs	r3, r1, r2
2000a0be:	b29b      	uxth	r3, r3
2000a0c0:	4291      	cmp	r1, r2
2000a0c2:	d202      	bcs.n	2000a0ca <tu_fifo_count+0x12>
2000a0c4:	8942      	ldrh	r2, [r0, #10]
2000a0c6:	1a9b      	subs	r3, r3, r2
2000a0c8:	b29b      	uxth	r3, r3
2000a0ca:	8882      	ldrh	r2, [r0, #4]
2000a0cc:	1c10      	adds	r0, r2, #0
2000a0ce:	429a      	cmp	r2, r3
2000a0d0:	d900      	bls.n	2000a0d4 <tu_fifo_count+0x1c>
2000a0d2:	1c18      	adds	r0, r3, #0
2000a0d4:	b280      	uxth	r0, r0
2000a0d6:	4770      	bx	lr

2000a0d8 <tu_fifo_empty>:
2000a0d8:	89c3      	ldrh	r3, [r0, #14]
2000a0da:	8a00      	ldrh	r0, [r0, #16]
2000a0dc:	1a18      	subs	r0, r3, r0
2000a0de:	4243      	negs	r3, r0
2000a0e0:	4158      	adcs	r0, r3
2000a0e2:	b2c0      	uxtb	r0, r0
2000a0e4:	4770      	bx	lr
2000a0e6:	46c0      	nop			; (mov r8, r8)

2000a0e8 <tu_fifo_remaining>:
2000a0e8:	b510      	push	{r4, lr}
2000a0ea:	89c4      	ldrh	r4, [r0, #14]
2000a0ec:	8a01      	ldrh	r1, [r0, #16]
2000a0ee:	8883      	ldrh	r3, [r0, #4]
2000a0f0:	1a62      	subs	r2, r4, r1
2000a0f2:	b292      	uxth	r2, r2
2000a0f4:	428c      	cmp	r4, r1
2000a0f6:	d202      	bcs.n	2000a0fe <tu_fifo_remaining+0x16>
2000a0f8:	8940      	ldrh	r0, [r0, #10]
2000a0fa:	1a12      	subs	r2, r2, r0
2000a0fc:	b292      	uxth	r2, r2
2000a0fe:	1a98      	subs	r0, r3, r2
2000a100:	b280      	uxth	r0, r0
2000a102:	bd10      	pop	{r4, pc}

2000a104 <tu_fifo_read>:
2000a104:	b570      	push	{r4, r5, r6, lr}
2000a106:	0004      	movs	r4, r0
2000a108:	6980      	ldr	r0, [r0, #24]
2000a10a:	000d      	movs	r5, r1
2000a10c:	2800      	cmp	r0, #0
2000a10e:	d003      	beq.n	2000a118 <tu_fifo_read+0x14>
2000a110:	2101      	movs	r1, #1
2000a112:	4249      	negs	r1, r1
2000a114:	f000 fc34 	bl	2000a980 <mutex_enter_timeout_ms>
2000a118:	89e0      	ldrh	r0, [r4, #14]
2000a11a:	8a21      	ldrh	r1, [r4, #16]
2000a11c:	b286      	uxth	r6, r0
2000a11e:	1a42      	subs	r2, r0, r1
2000a120:	b28b      	uxth	r3, r1
2000a122:	b292      	uxth	r2, r2
2000a124:	4288      	cmp	r0, r1
2000a126:	d202      	bcs.n	2000a12e <tu_fifo_read+0x2a>
2000a128:	8961      	ldrh	r1, [r4, #10]
2000a12a:	1a52      	subs	r2, r2, r1
2000a12c:	b292      	uxth	r2, r2
2000a12e:	88a0      	ldrh	r0, [r4, #4]
2000a130:	4290      	cmp	r0, r2
2000a132:	d207      	bcs.n	2000a144 <tu_fifo_read+0x40>
2000a134:	4286      	cmp	r6, r0
2000a136:	d22c      	bcs.n	2000a192 <tu_fifo_read+0x8e>
2000a138:	8962      	ldrh	r2, [r4, #10]
2000a13a:	1882      	adds	r2, r0, r2
2000a13c:	1ab2      	subs	r2, r6, r2
2000a13e:	b292      	uxth	r2, r2
2000a140:	8222      	strh	r2, [r4, #16]
2000a142:	0002      	movs	r2, r0
2000a144:	2a00      	cmp	r2, #0
2000a146:	d102      	bne.n	2000a14e <tu_fifo_read+0x4a>
2000a148:	e01c      	b.n	2000a184 <tu_fifo_read+0x80>
2000a14a:	1a1b      	subs	r3, r3, r0
2000a14c:	b29b      	uxth	r3, r3
2000a14e:	4298      	cmp	r0, r3
2000a150:	d9fb      	bls.n	2000a14a <tu_fifo_read+0x46>
2000a152:	88e2      	ldrh	r2, [r4, #6]
2000a154:	6821      	ldr	r1, [r4, #0]
2000a156:	4353      	muls	r3, r2
2000a158:	0028      	movs	r0, r5
2000a15a:	18c9      	adds	r1, r1, r3
2000a15c:	f7fd fad0 	bl	20007700 <__wrap___aeabi_memcpy>
2000a160:	8a22      	ldrh	r2, [r4, #16]
2000a162:	2501      	movs	r5, #1
2000a164:	1c53      	adds	r3, r2, #1
2000a166:	b29b      	uxth	r3, r3
2000a168:	429a      	cmp	r2, r3
2000a16a:	d90e      	bls.n	2000a18a <tu_fifo_read+0x86>
2000a16c:	2300      	movs	r3, #0
2000a16e:	8962      	ldrh	r2, [r4, #10]
2000a170:	189b      	adds	r3, r3, r2
2000a172:	b29b      	uxth	r3, r3
2000a174:	69a0      	ldr	r0, [r4, #24]
2000a176:	8223      	strh	r3, [r4, #16]
2000a178:	2800      	cmp	r0, #0
2000a17a:	d001      	beq.n	2000a180 <tu_fifo_read+0x7c>
2000a17c:	f000 fc4c 	bl	2000aa18 <mutex_exit>
2000a180:	0028      	movs	r0, r5
2000a182:	bd70      	pop	{r4, r5, r6, pc}
2000a184:	2500      	movs	r5, #0
2000a186:	8a23      	ldrh	r3, [r4, #16]
2000a188:	b29b      	uxth	r3, r3
2000a18a:	89a2      	ldrh	r2, [r4, #12]
2000a18c:	429a      	cmp	r2, r3
2000a18e:	d2f1      	bcs.n	2000a174 <tu_fifo_read+0x70>
2000a190:	e7ed      	b.n	2000a16e <tu_fifo_read+0x6a>
2000a192:	1a32      	subs	r2, r6, r0
2000a194:	89a1      	ldrh	r1, [r4, #12]
2000a196:	b292      	uxth	r2, r2
2000a198:	4291      	cmp	r1, r2
2000a19a:	d2d1      	bcs.n	2000a140 <tu_fifo_read+0x3c>
2000a19c:	e7cc      	b.n	2000a138 <tu_fifo_read+0x34>
2000a19e:	46c0      	nop			; (mov r8, r8)

2000a1a0 <tu_fifo_read_n>:
2000a1a0:	b5f0      	push	{r4, r5, r6, r7, lr}
2000a1a2:	464f      	mov	r7, r9
2000a1a4:	4646      	mov	r6, r8
2000a1a6:	46d6      	mov	lr, sl
2000a1a8:	0004      	movs	r4, r0
2000a1aa:	6980      	ldr	r0, [r0, #24]
2000a1ac:	4688      	mov	r8, r1
2000a1ae:	4691      	mov	r9, r2
2000a1b0:	b5c0      	push	{r6, r7, lr}
2000a1b2:	2800      	cmp	r0, #0
2000a1b4:	d003      	beq.n	2000a1be <tu_fifo_read_n+0x1e>
2000a1b6:	2101      	movs	r1, #1
2000a1b8:	4249      	negs	r1, r1
2000a1ba:	f000 fbe1 	bl	2000a980 <mutex_enter_timeout_ms>
2000a1be:	89e2      	ldrh	r2, [r4, #14]
2000a1c0:	8a23      	ldrh	r3, [r4, #16]
2000a1c2:	b291      	uxth	r1, r2
2000a1c4:	1ad6      	subs	r6, r2, r3
2000a1c6:	b29d      	uxth	r5, r3
2000a1c8:	b2b6      	uxth	r6, r6
2000a1ca:	429a      	cmp	r2, r3
2000a1cc:	d202      	bcs.n	2000a1d4 <tu_fifo_read_n+0x34>
2000a1ce:	8963      	ldrh	r3, [r4, #10]
2000a1d0:	1af6      	subs	r6, r6, r3
2000a1d2:	b2b6      	uxth	r6, r6
2000a1d4:	88a7      	ldrh	r7, [r4, #4]
2000a1d6:	42b7      	cmp	r7, r6
2000a1d8:	d209      	bcs.n	2000a1ee <tu_fifo_read_n+0x4e>
2000a1da:	42b9      	cmp	r1, r7
2000a1dc:	d254      	bcs.n	2000a288 <tu_fifo_read_n+0xe8>
2000a1de:	8963      	ldrh	r3, [r4, #10]
2000a1e0:	18fb      	adds	r3, r7, r3
2000a1e2:	1acb      	subs	r3, r1, r3
2000a1e4:	b29b      	uxth	r3, r3
2000a1e6:	003e      	movs	r6, r7
2000a1e8:	8223      	strh	r3, [r4, #16]
2000a1ea:	8a25      	ldrh	r5, [r4, #16]
2000a1ec:	b2ad      	uxth	r5, r5
2000a1ee:	2e00      	cmp	r6, #0
2000a1f0:	d050      	beq.n	2000a294 <tu_fifo_read_n+0xf4>
2000a1f2:	464b      	mov	r3, r9
2000a1f4:	45b1      	cmp	r9, r6
2000a1f6:	d845      	bhi.n	2000a284 <tu_fifo_read_n+0xe4>
2000a1f8:	b29e      	uxth	r6, r3
2000a1fa:	42af      	cmp	r7, r5
2000a1fc:	d803      	bhi.n	2000a206 <tu_fifo_read_n+0x66>
2000a1fe:	1bed      	subs	r5, r5, r7
2000a200:	b2ad      	uxth	r5, r5
2000a202:	42af      	cmp	r7, r5
2000a204:	d9fb      	bls.n	2000a1fe <tu_fifo_read_n+0x5e>
2000a206:	88e3      	ldrh	r3, [r4, #6]
2000a208:	1b78      	subs	r0, r7, r5
2000a20a:	0019      	movs	r1, r3
2000a20c:	4699      	mov	r9, r3
2000a20e:	6823      	ldr	r3, [r4, #0]
2000a210:	4369      	muls	r1, r5
2000a212:	469c      	mov	ip, r3
2000a214:	b280      	uxth	r0, r0
2000a216:	4461      	add	r1, ip
2000a218:	4286      	cmp	r6, r0
2000a21a:	d925      	bls.n	2000a268 <tu_fifo_read_n+0xc8>
2000a21c:	464b      	mov	r3, r9
2000a21e:	4358      	muls	r0, r3
2000a220:	b283      	uxth	r3, r0
2000a222:	001a      	movs	r2, r3
2000a224:	4640      	mov	r0, r8
2000a226:	469a      	mov	sl, r3
2000a228:	f7fd fa6a 	bl	20007700 <__wrap___aeabi_memcpy>
2000a22c:	464b      	mov	r3, r9
2000a22e:	4640      	mov	r0, r8
2000a230:	1bf7      	subs	r7, r6, r7
2000a232:	19ed      	adds	r5, r5, r7
2000a234:	435d      	muls	r5, r3
2000a236:	6821      	ldr	r1, [r4, #0]
2000a238:	b2aa      	uxth	r2, r5
2000a23a:	4450      	add	r0, sl
2000a23c:	f7fd fa60 	bl	20007700 <__wrap___aeabi_memcpy>
2000a240:	8a22      	ldrh	r2, [r4, #16]
2000a242:	1993      	adds	r3, r2, r6
2000a244:	b29b      	uxth	r3, r3
2000a246:	429a      	cmp	r2, r3
2000a248:	d918      	bls.n	2000a27c <tu_fifo_read_n+0xdc>
2000a24a:	8962      	ldrh	r2, [r4, #10]
2000a24c:	189b      	adds	r3, r3, r2
2000a24e:	b29b      	uxth	r3, r3
2000a250:	69a0      	ldr	r0, [r4, #24]
2000a252:	8223      	strh	r3, [r4, #16]
2000a254:	2800      	cmp	r0, #0
2000a256:	d001      	beq.n	2000a25c <tu_fifo_read_n+0xbc>
2000a258:	f000 fbde 	bl	2000aa18 <mutex_exit>
2000a25c:	0030      	movs	r0, r6
2000a25e:	bc1c      	pop	{r2, r3, r4}
2000a260:	4690      	mov	r8, r2
2000a262:	4699      	mov	r9, r3
2000a264:	46a2      	mov	sl, r4
2000a266:	bdf0      	pop	{r4, r5, r6, r7, pc}
2000a268:	464a      	mov	r2, r9
2000a26a:	4640      	mov	r0, r8
2000a26c:	4372      	muls	r2, r6
2000a26e:	f7fd fa47 	bl	20007700 <__wrap___aeabi_memcpy>
2000a272:	8a22      	ldrh	r2, [r4, #16]
2000a274:	1993      	adds	r3, r2, r6
2000a276:	b29b      	uxth	r3, r3
2000a278:	429a      	cmp	r2, r3
2000a27a:	d8e6      	bhi.n	2000a24a <tu_fifo_read_n+0xaa>
2000a27c:	89a2      	ldrh	r2, [r4, #12]
2000a27e:	429a      	cmp	r2, r3
2000a280:	d2e6      	bcs.n	2000a250 <tu_fifo_read_n+0xb0>
2000a282:	e7e2      	b.n	2000a24a <tu_fifo_read_n+0xaa>
2000a284:	1c33      	adds	r3, r6, #0
2000a286:	e7b7      	b.n	2000a1f8 <tu_fifo_read_n+0x58>
2000a288:	1bcb      	subs	r3, r1, r7
2000a28a:	89a2      	ldrh	r2, [r4, #12]
2000a28c:	b29b      	uxth	r3, r3
2000a28e:	429a      	cmp	r2, r3
2000a290:	d2a9      	bcs.n	2000a1e6 <tu_fifo_read_n+0x46>
2000a292:	e7a4      	b.n	2000a1de <tu_fifo_read_n+0x3e>
2000a294:	8a23      	ldrh	r3, [r4, #16]
2000a296:	89a2      	ldrh	r2, [r4, #12]
2000a298:	b29b      	uxth	r3, r3
2000a29a:	429a      	cmp	r2, r3
2000a29c:	d2d8      	bcs.n	2000a250 <tu_fifo_read_n+0xb0>
2000a29e:	e7d4      	b.n	2000a24a <tu_fifo_read_n+0xaa>

2000a2a0 <tu_fifo_write>:
2000a2a0:	b5f8      	push	{r3, r4, r5, r6, r7, lr}
2000a2a2:	0004      	movs	r4, r0
2000a2a4:	6940      	ldr	r0, [r0, #20]
2000a2a6:	000e      	movs	r6, r1
2000a2a8:	2800      	cmp	r0, #0
2000a2aa:	d003      	beq.n	2000a2b4 <tu_fifo_write+0x14>
2000a2ac:	2101      	movs	r1, #1
2000a2ae:	4249      	negs	r1, r1
2000a2b0:	f000 fb66 	bl	2000a980 <mutex_enter_timeout_ms>
2000a2b4:	89e2      	ldrh	r2, [r4, #14]
2000a2b6:	8a21      	ldrh	r1, [r4, #16]
2000a2b8:	b295      	uxth	r5, r2
2000a2ba:	1a53      	subs	r3, r2, r1
2000a2bc:	b29b      	uxth	r3, r3
2000a2be:	4291      	cmp	r1, r2
2000a2c0:	d902      	bls.n	2000a2c8 <tu_fifo_write+0x28>
2000a2c2:	8962      	ldrh	r2, [r4, #10]
2000a2c4:	1a9b      	subs	r3, r3, r2
2000a2c6:	b29b      	uxth	r3, r3
2000a2c8:	88a2      	ldrh	r2, [r4, #4]
2000a2ca:	429a      	cmp	r2, r3
2000a2cc:	d021      	beq.n	2000a312 <tu_fifo_write+0x72>
2000a2ce:	002b      	movs	r3, r5
2000a2d0:	4295      	cmp	r5, r2
2000a2d2:	d303      	bcc.n	2000a2dc <tu_fifo_write+0x3c>
2000a2d4:	1a9b      	subs	r3, r3, r2
2000a2d6:	b29b      	uxth	r3, r3
2000a2d8:	429a      	cmp	r2, r3
2000a2da:	d9fb      	bls.n	2000a2d4 <tu_fifo_write+0x34>
2000a2dc:	88e2      	ldrh	r2, [r4, #6]
2000a2de:	6821      	ldr	r1, [r4, #0]
2000a2e0:	4353      	muls	r3, r2
2000a2e2:	18c8      	adds	r0, r1, r3
2000a2e4:	0031      	movs	r1, r6
2000a2e6:	f7fd fa0b 	bl	20007700 <__wrap___aeabi_memcpy>
2000a2ea:	1c6b      	adds	r3, r5, #1
2000a2ec:	b29b      	uxth	r3, r3
2000a2ee:	429d      	cmp	r5, r3
2000a2f0:	d90b      	bls.n	2000a30a <tu_fifo_write+0x6a>
2000a2f2:	8962      	ldrh	r2, [r4, #10]
2000a2f4:	189b      	adds	r3, r3, r2
2000a2f6:	b29b      	uxth	r3, r3
2000a2f8:	6960      	ldr	r0, [r4, #20]
2000a2fa:	2701      	movs	r7, #1
2000a2fc:	81e3      	strh	r3, [r4, #14]
2000a2fe:	2800      	cmp	r0, #0
2000a300:	d001      	beq.n	2000a306 <tu_fifo_write+0x66>
2000a302:	f000 fb89 	bl	2000aa18 <mutex_exit>
2000a306:	0038      	movs	r0, r7
2000a308:	bdf8      	pop	{r3, r4, r5, r6, r7, pc}
2000a30a:	89a2      	ldrh	r2, [r4, #12]
2000a30c:	429a      	cmp	r2, r3
2000a30e:	d2f3      	bcs.n	2000a2f8 <tu_fifo_write+0x58>
2000a310:	e7ef      	b.n	2000a2f2 <tu_fifo_write+0x52>
2000a312:	7a27      	ldrb	r7, [r4, #8]
2000a314:	2f00      	cmp	r7, #0
2000a316:	d1da      	bne.n	2000a2ce <tu_fifo_write+0x2e>
2000a318:	e7f5      	b.n	2000a306 <tu_fifo_write+0x66>
2000a31a:	46c0      	nop			; (mov r8, r8)

2000a31c <tu_fifo_write_n>:
2000a31c:	b5f8      	push	{r3, r4, r5, r6, r7, lr}
2000a31e:	4645      	mov	r5, r8
2000a320:	46de      	mov	lr, fp
2000a322:	4657      	mov	r7, sl
2000a324:	464e      	mov	r6, r9
2000a326:	0004      	movs	r4, r0
2000a328:	b5e0      	push	{r5, r6, r7, lr}
2000a32a:	4688      	mov	r8, r1
2000a32c:	1e15      	subs	r5, r2, #0
2000a32e:	d05a      	beq.n	2000a3e6 <tu_fifo_write_n+0xca>
2000a330:	6940      	ldr	r0, [r0, #20]
2000a332:	2800      	cmp	r0, #0
2000a334:	d003      	beq.n	2000a33e <tu_fifo_write_n+0x22>
2000a336:	2101      	movs	r1, #1
2000a338:	4249      	negs	r1, r1
2000a33a:	f000 fb21 	bl	2000a980 <mutex_enter_timeout_ms>
2000a33e:	89e7      	ldrh	r7, [r4, #14]
2000a340:	7a23      	ldrb	r3, [r4, #8]
2000a342:	8a22      	ldrh	r2, [r4, #16]
2000a344:	b2bf      	uxth	r7, r7
2000a346:	b292      	uxth	r2, r2
2000a348:	2b00      	cmp	r3, #0
2000a34a:	d13b      	bne.n	2000a3c4 <tu_fifo_write_n+0xa8>
2000a34c:	1ab9      	subs	r1, r7, r2
2000a34e:	88a3      	ldrh	r3, [r4, #4]
2000a350:	b289      	uxth	r1, r1
2000a352:	4297      	cmp	r7, r2
2000a354:	d202      	bcs.n	2000a35c <tu_fifo_write_n+0x40>
2000a356:	8962      	ldrh	r2, [r4, #10]
2000a358:	1a89      	subs	r1, r1, r2
2000a35a:	b289      	uxth	r1, r1
2000a35c:	1a59      	subs	r1, r3, r1
2000a35e:	1c0a      	adds	r2, r1, #0
2000a360:	b289      	uxth	r1, r1
2000a362:	42a9      	cmp	r1, r5
2000a364:	d853      	bhi.n	2000a40e <tu_fifo_write_n+0xf2>
2000a366:	b295      	uxth	r5, r2
2000a368:	88e2      	ldrh	r2, [r4, #6]
2000a36a:	1aee      	subs	r6, r5, r3
2000a36c:	4692      	mov	sl, r2
2000a36e:	b2b2      	uxth	r2, r6
2000a370:	4691      	mov	r9, r2
2000a372:	003e      	movs	r6, r7
2000a374:	429f      	cmp	r7, r3
2000a376:	d303      	bcc.n	2000a380 <tu_fifo_write_n+0x64>
2000a378:	1af6      	subs	r6, r6, r3
2000a37a:	b2b6      	uxth	r6, r6
2000a37c:	429e      	cmp	r6, r3
2000a37e:	d2fb      	bcs.n	2000a378 <tu_fifo_write_n+0x5c>
2000a380:	4650      	mov	r0, sl
2000a382:	6822      	ldr	r2, [r4, #0]
2000a384:	4370      	muls	r0, r6
2000a386:	4694      	mov	ip, r2
2000a388:	1b9b      	subs	r3, r3, r6
2000a38a:	b29b      	uxth	r3, r3
2000a38c:	4652      	mov	r2, sl
2000a38e:	4460      	add	r0, ip
2000a390:	429d      	cmp	r5, r3
2000a392:	d82a      	bhi.n	2000a3ea <tu_fifo_write_n+0xce>
2000a394:	4641      	mov	r1, r8
2000a396:	436a      	muls	r2, r5
2000a398:	f7fd f9b2 	bl	20007700 <__wrap___aeabi_memcpy>
2000a39c:	19eb      	adds	r3, r5, r7
2000a39e:	b29b      	uxth	r3, r3
2000a3a0:	429f      	cmp	r7, r3
2000a3a2:	d81c      	bhi.n	2000a3de <tu_fifo_write_n+0xc2>
2000a3a4:	89a2      	ldrh	r2, [r4, #12]
2000a3a6:	429a      	cmp	r2, r3
2000a3a8:	d319      	bcc.n	2000a3de <tu_fifo_write_n+0xc2>
2000a3aa:	6960      	ldr	r0, [r4, #20]
2000a3ac:	81e3      	strh	r3, [r4, #14]
2000a3ae:	2800      	cmp	r0, #0
2000a3b0:	d001      	beq.n	2000a3b6 <tu_fifo_write_n+0x9a>
2000a3b2:	f000 fb31 	bl	2000aa18 <mutex_exit>
2000a3b6:	0028      	movs	r0, r5
2000a3b8:	bc3c      	pop	{r2, r3, r4, r5}
2000a3ba:	4690      	mov	r8, r2
2000a3bc:	4699      	mov	r9, r3
2000a3be:	46a2      	mov	sl, r4
2000a3c0:	46ab      	mov	fp, r5
2000a3c2:	bdf8      	pop	{r3, r4, r5, r6, r7, pc}
2000a3c4:	88a3      	ldrh	r3, [r4, #4]
2000a3c6:	429d      	cmp	r5, r3
2000a3c8:	d3ce      	bcc.n	2000a368 <tu_fifo_write_n+0x4c>
2000a3ca:	0017      	movs	r7, r2
2000a3cc:	2200      	movs	r2, #0
2000a3ce:	88e1      	ldrh	r1, [r4, #6]
2000a3d0:	1aed      	subs	r5, r5, r3
2000a3d2:	434d      	muls	r5, r1
2000a3d4:	468a      	mov	sl, r1
2000a3d6:	44a8      	add	r8, r5
2000a3d8:	4691      	mov	r9, r2
2000a3da:	001d      	movs	r5, r3
2000a3dc:	e7c9      	b.n	2000a372 <tu_fifo_write_n+0x56>
2000a3de:	8962      	ldrh	r2, [r4, #10]
2000a3e0:	189b      	adds	r3, r3, r2
2000a3e2:	b29b      	uxth	r3, r3
2000a3e4:	e7e1      	b.n	2000a3aa <tu_fifo_write_n+0x8e>
2000a3e6:	2500      	movs	r5, #0
2000a3e8:	e7e5      	b.n	2000a3b6 <tu_fifo_write_n+0x9a>
2000a3ea:	4353      	muls	r3, r2
2000a3ec:	b29b      	uxth	r3, r3
2000a3ee:	001a      	movs	r2, r3
2000a3f0:	4641      	mov	r1, r8
2000a3f2:	469b      	mov	fp, r3
2000a3f4:	f7fd f984 	bl	20007700 <__wrap___aeabi_memcpy>
2000a3f8:	0032      	movs	r2, r6
2000a3fa:	4653      	mov	r3, sl
2000a3fc:	4641      	mov	r1, r8
2000a3fe:	444a      	add	r2, r9
2000a400:	435a      	muls	r2, r3
2000a402:	6820      	ldr	r0, [r4, #0]
2000a404:	b292      	uxth	r2, r2
2000a406:	4459      	add	r1, fp
2000a408:	f7fd f97a 	bl	20007700 <__wrap___aeabi_memcpy>
2000a40c:	e7c6      	b.n	2000a39c <tu_fifo_write_n+0x80>
2000a40e:	1c2a      	adds	r2, r5, #0
2000a410:	b295      	uxth	r5, r2
2000a412:	e7a9      	b.n	2000a368 <tu_fifo_write_n+0x4c>

2000a414 <tu_fifo_clear>:
2000a414:	b510      	push	{r4, lr}
2000a416:	0004      	movs	r4, r0
2000a418:	6940      	ldr	r0, [r0, #20]
2000a41a:	2800      	cmp	r0, #0
2000a41c:	d003      	beq.n	2000a426 <tu_fifo_clear+0x12>
2000a41e:	2101      	movs	r1, #1
2000a420:	4249      	negs	r1, r1
2000a422:	f000 faad 	bl	2000a980 <mutex_enter_timeout_ms>
2000a426:	69a0      	ldr	r0, [r4, #24]
2000a428:	2800      	cmp	r0, #0
2000a42a:	d003      	beq.n	2000a434 <tu_fifo_clear+0x20>
2000a42c:	2101      	movs	r1, #1
2000a42e:	4249      	negs	r1, r1
2000a430:	f000 faa6 	bl	2000a980 <mutex_enter_timeout_ms>
2000a434:	2300      	movs	r3, #0
2000a436:	81e3      	strh	r3, [r4, #14]
2000a438:	8223      	strh	r3, [r4, #16]
2000a43a:	88a3      	ldrh	r3, [r4, #4]
2000a43c:	6960      	ldr	r0, [r4, #20]
2000a43e:	005b      	lsls	r3, r3, #1
2000a440:	b29b      	uxth	r3, r3
2000a442:	1e5a      	subs	r2, r3, #1
2000a444:	425b      	negs	r3, r3
2000a446:	81a2      	strh	r2, [r4, #12]
2000a448:	8163      	strh	r3, [r4, #10]
2000a44a:	2800      	cmp	r0, #0
2000a44c:	d001      	beq.n	2000a452 <tu_fifo_clear+0x3e>
2000a44e:	f000 fae3 	bl	2000aa18 <mutex_exit>
2000a452:	69a0      	ldr	r0, [r4, #24]
2000a454:	2800      	cmp	r0, #0
2000a456:	d001      	beq.n	2000a45c <tu_fifo_clear+0x48>
2000a458:	f000 fade 	bl	2000aa18 <mutex_exit>
2000a45c:	2001      	movs	r0, #1
2000a45e:	bd10      	pop	{r4, pc}

2000a460 <tu_fifo_set_overwritable>:
2000a460:	b570      	push	{r4, r5, r6, lr}
2000a462:	0004      	movs	r4, r0
2000a464:	6940      	ldr	r0, [r0, #20]
2000a466:	000d      	movs	r5, r1
2000a468:	2800      	cmp	r0, #0
2000a46a:	d003      	beq.n	2000a474 <tu_fifo_set_overwritable+0x14>
2000a46c:	2101      	movs	r1, #1
2000a46e:	4249      	negs	r1, r1
2000a470:	f000 fa86 	bl	2000a980 <mutex_enter_timeout_ms>
2000a474:	69a0      	ldr	r0, [r4, #24]
2000a476:	2800      	cmp	r0, #0
2000a478:	d003      	beq.n	2000a482 <tu_fifo_set_overwritable+0x22>
2000a47a:	2101      	movs	r1, #1
2000a47c:	4249      	negs	r1, r1
2000a47e:	f000 fa7f 	bl	2000a980 <mutex_enter_timeout_ms>
2000a482:	6960      	ldr	r0, [r4, #20]
2000a484:	7225      	strb	r5, [r4, #8]
2000a486:	2800      	cmp	r0, #0
2000a488:	d001      	beq.n	2000a48e <tu_fifo_set_overwritable+0x2e>
2000a48a:	f000 fac5 	bl	2000aa18 <mutex_exit>
2000a48e:	69a0      	ldr	r0, [r4, #24]
2000a490:	2800      	cmp	r0, #0
2000a492:	d001      	beq.n	2000a498 <tu_fifo_set_overwritable+0x38>
2000a494:	f000 fac0 	bl	2000aa18 <mutex_exit>
2000a498:	2001      	movs	r0, #1
2000a49a:	bd70      	pop	{r4, r5, r6, pc}

2000a49c <_retrieve_unique_id_on_boot>:
2000a49c:	b510      	push	{r4, lr}
2000a49e:	4802      	ldr	r0, [pc, #8]	; (2000a4a8 <_retrieve_unique_id_on_boot+0xc>)
2000a4a0:	f000 f8e2 	bl	2000a668 <flash_get_unique_id>
2000a4a4:	bd10      	pop	{r4, pc}
2000a4a6:	46c0      	nop			; (mov r8, r8)
2000a4a8:	2000d350 	.word	0x2000d350

2000a4ac <pico_get_unique_board_id_string>:
2000a4ac:	b530      	push	{r4, r5, lr}
2000a4ae:	1e4b      	subs	r3, r1, #1
2000a4b0:	2901      	cmp	r1, #1
2000a4b2:	d100      	bne.n	2000a4b6 <pico_get_unique_board_id_string+0xa>
2000a4b4:	e0b0      	b.n	2000a618 <pico_get_unique_board_id_string+0x16c>
2000a4b6:	4a6b      	ldr	r2, [pc, #428]	; (2000a664 <pico_get_unique_board_id_string+0x1b8>)
2000a4b8:	7811      	ldrb	r1, [r2, #0]
2000a4ba:	110d      	asrs	r5, r1, #4
2000a4bc:	002c      	movs	r4, r5
2000a4be:	3430      	adds	r4, #48	; 0x30
2000a4c0:	299f      	cmp	r1, #159	; 0x9f
2000a4c2:	d900      	bls.n	2000a4c6 <pico_get_unique_board_id_string+0x1a>
2000a4c4:	e0ab      	b.n	2000a61e <pico_get_unique_board_id_string+0x172>
2000a4c6:	7004      	strb	r4, [r0, #0]
2000a4c8:	2b01      	cmp	r3, #1
2000a4ca:	d100      	bne.n	2000a4ce <pico_get_unique_board_id_string+0x22>
2000a4cc:	e0c7      	b.n	2000a65e <pico_get_unique_board_id_string+0x1b2>
2000a4ce:	210f      	movs	r1, #15
2000a4d0:	7814      	ldrb	r4, [r2, #0]
2000a4d2:	4021      	ands	r1, r4
2000a4d4:	000c      	movs	r4, r1
2000a4d6:	3430      	adds	r4, #48	; 0x30
2000a4d8:	2909      	cmp	r1, #9
2000a4da:	dd00      	ble.n	2000a4de <pico_get_unique_board_id_string+0x32>
2000a4dc:	e0a1      	b.n	2000a622 <pico_get_unique_board_id_string+0x176>
2000a4de:	7044      	strb	r4, [r0, #1]
2000a4e0:	2b02      	cmp	r3, #2
2000a4e2:	d100      	bne.n	2000a4e6 <pico_get_unique_board_id_string+0x3a>
2000a4e4:	e0bb      	b.n	2000a65e <pico_get_unique_board_id_string+0x1b2>
2000a4e6:	7851      	ldrb	r1, [r2, #1]
2000a4e8:	110d      	asrs	r5, r1, #4
2000a4ea:	002c      	movs	r4, r5
2000a4ec:	3430      	adds	r4, #48	; 0x30
2000a4ee:	299f      	cmp	r1, #159	; 0x9f
2000a4f0:	d900      	bls.n	2000a4f4 <pico_get_unique_board_id_string+0x48>
2000a4f2:	e099      	b.n	2000a628 <pico_get_unique_board_id_string+0x17c>
2000a4f4:	7084      	strb	r4, [r0, #2]
2000a4f6:	2b03      	cmp	r3, #3
2000a4f8:	d100      	bne.n	2000a4fc <pico_get_unique_board_id_string+0x50>
2000a4fa:	e0b0      	b.n	2000a65e <pico_get_unique_board_id_string+0x1b2>
2000a4fc:	210f      	movs	r1, #15
2000a4fe:	7854      	ldrb	r4, [r2, #1]
2000a500:	4021      	ands	r1, r4
2000a502:	000c      	movs	r4, r1
2000a504:	3430      	adds	r4, #48	; 0x30
2000a506:	2909      	cmp	r1, #9
2000a508:	dd00      	ble.n	2000a50c <pico_get_unique_board_id_string+0x60>
2000a50a:	e08f      	b.n	2000a62c <pico_get_unique_board_id_string+0x180>
2000a50c:	70c4      	strb	r4, [r0, #3]
2000a50e:	2b04      	cmp	r3, #4
2000a510:	d100      	bne.n	2000a514 <pico_get_unique_board_id_string+0x68>
2000a512:	e0a4      	b.n	2000a65e <pico_get_unique_board_id_string+0x1b2>
2000a514:	7891      	ldrb	r1, [r2, #2]
2000a516:	110d      	asrs	r5, r1, #4
2000a518:	002c      	movs	r4, r5
2000a51a:	3430      	adds	r4, #48	; 0x30
2000a51c:	299f      	cmp	r1, #159	; 0x9f
2000a51e:	d900      	bls.n	2000a522 <pico_get_unique_board_id_string+0x76>
2000a520:	e087      	b.n	2000a632 <pico_get_unique_board_id_string+0x186>
2000a522:	7104      	strb	r4, [r0, #4]
2000a524:	2b05      	cmp	r3, #5
2000a526:	d100      	bne.n	2000a52a <pico_get_unique_board_id_string+0x7e>
2000a528:	e099      	b.n	2000a65e <pico_get_unique_board_id_string+0x1b2>
2000a52a:	210f      	movs	r1, #15
2000a52c:	7894      	ldrb	r4, [r2, #2]
2000a52e:	4021      	ands	r1, r4
2000a530:	000c      	movs	r4, r1
2000a532:	3430      	adds	r4, #48	; 0x30
2000a534:	2909      	cmp	r1, #9
2000a536:	dd00      	ble.n	2000a53a <pico_get_unique_board_id_string+0x8e>
2000a538:	e07d      	b.n	2000a636 <pico_get_unique_board_id_string+0x18a>
2000a53a:	7144      	strb	r4, [r0, #5]
2000a53c:	2b06      	cmp	r3, #6
2000a53e:	d100      	bne.n	2000a542 <pico_get_unique_board_id_string+0x96>
2000a540:	e08d      	b.n	2000a65e <pico_get_unique_board_id_string+0x1b2>
2000a542:	78d1      	ldrb	r1, [r2, #3]
2000a544:	110d      	asrs	r5, r1, #4
2000a546:	002c      	movs	r4, r5
2000a548:	3430      	adds	r4, #48	; 0x30
2000a54a:	299f      	cmp	r1, #159	; 0x9f
2000a54c:	d900      	bls.n	2000a550 <pico_get_unique_board_id_string+0xa4>
2000a54e:	e075      	b.n	2000a63c <pico_get_unique_board_id_string+0x190>
2000a550:	7184      	strb	r4, [r0, #6]
2000a552:	2b07      	cmp	r3, #7
2000a554:	d100      	bne.n	2000a558 <pico_get_unique_board_id_string+0xac>
2000a556:	e082      	b.n	2000a65e <pico_get_unique_board_id_string+0x1b2>
2000a558:	210f      	movs	r1, #15
2000a55a:	78d4      	ldrb	r4, [r2, #3]
2000a55c:	4021      	ands	r1, r4
2000a55e:	000c      	movs	r4, r1
2000a560:	3430      	adds	r4, #48	; 0x30
2000a562:	2909      	cmp	r1, #9
2000a564:	dd00      	ble.n	2000a568 <pico_get_unique_board_id_string+0xbc>
2000a566:	e06b      	b.n	2000a640 <pico_get_unique_board_id_string+0x194>
2000a568:	71c4      	strb	r4, [r0, #7]
2000a56a:	2b08      	cmp	r3, #8
2000a56c:	d100      	bne.n	2000a570 <pico_get_unique_board_id_string+0xc4>
2000a56e:	e076      	b.n	2000a65e <pico_get_unique_board_id_string+0x1b2>
2000a570:	7911      	ldrb	r1, [r2, #4]
2000a572:	110d      	asrs	r5, r1, #4
2000a574:	002c      	movs	r4, r5
2000a576:	3430      	adds	r4, #48	; 0x30
2000a578:	299f      	cmp	r1, #159	; 0x9f
2000a57a:	d864      	bhi.n	2000a646 <pico_get_unique_board_id_string+0x19a>
2000a57c:	7204      	strb	r4, [r0, #8]
2000a57e:	2b09      	cmp	r3, #9
2000a580:	d100      	bne.n	2000a584 <pico_get_unique_board_id_string+0xd8>
2000a582:	e06c      	b.n	2000a65e <pico_get_unique_board_id_string+0x1b2>
2000a584:	210f      	movs	r1, #15
2000a586:	7914      	ldrb	r4, [r2, #4]
2000a588:	4021      	ands	r1, r4
2000a58a:	000c      	movs	r4, r1
2000a58c:	3430      	adds	r4, #48	; 0x30
2000a58e:	2909      	cmp	r1, #9
2000a590:	dc5b      	bgt.n	2000a64a <pico_get_unique_board_id_string+0x19e>
2000a592:	7244      	strb	r4, [r0, #9]
2000a594:	2b0a      	cmp	r3, #10
2000a596:	d062      	beq.n	2000a65e <pico_get_unique_board_id_string+0x1b2>
2000a598:	7951      	ldrb	r1, [r2, #5]
2000a59a:	110d      	asrs	r5, r1, #4
2000a59c:	002c      	movs	r4, r5
2000a59e:	3430      	adds	r4, #48	; 0x30
2000a5a0:	299f      	cmp	r1, #159	; 0x9f
2000a5a2:	d855      	bhi.n	2000a650 <pico_get_unique_board_id_string+0x1a4>
2000a5a4:	7284      	strb	r4, [r0, #10]
2000a5a6:	2b0b      	cmp	r3, #11
2000a5a8:	d059      	beq.n	2000a65e <pico_get_unique_board_id_string+0x1b2>
2000a5aa:	210f      	movs	r1, #15
2000a5ac:	7954      	ldrb	r4, [r2, #5]
2000a5ae:	4021      	ands	r1, r4
2000a5b0:	000c      	movs	r4, r1
2000a5b2:	3430      	adds	r4, #48	; 0x30
2000a5b4:	2909      	cmp	r1, #9
2000a5b6:	dc4d      	bgt.n	2000a654 <pico_get_unique_board_id_string+0x1a8>
2000a5b8:	72c4      	strb	r4, [r0, #11]
2000a5ba:	2b0c      	cmp	r3, #12
2000a5bc:	d04f      	beq.n	2000a65e <pico_get_unique_board_id_string+0x1b2>
2000a5be:	7991      	ldrb	r1, [r2, #6]
2000a5c0:	110d      	asrs	r5, r1, #4
2000a5c2:	002c      	movs	r4, r5
2000a5c4:	3430      	adds	r4, #48	; 0x30
2000a5c6:	299f      	cmp	r1, #159	; 0x9f
2000a5c8:	d900      	bls.n	2000a5cc <pico_get_unique_board_id_string+0x120>
2000a5ca:	3407      	adds	r4, #7
2000a5cc:	7304      	strb	r4, [r0, #12]
2000a5ce:	2b0d      	cmp	r3, #13
2000a5d0:	d045      	beq.n	2000a65e <pico_get_unique_board_id_string+0x1b2>
2000a5d2:	210f      	movs	r1, #15
2000a5d4:	7994      	ldrb	r4, [r2, #6]
2000a5d6:	4021      	ands	r1, r4
2000a5d8:	000c      	movs	r4, r1
2000a5da:	3430      	adds	r4, #48	; 0x30
2000a5dc:	2909      	cmp	r1, #9
2000a5de:	dd01      	ble.n	2000a5e4 <pico_get_unique_board_id_string+0x138>
2000a5e0:	3137      	adds	r1, #55	; 0x37
2000a5e2:	000c      	movs	r4, r1
2000a5e4:	7344      	strb	r4, [r0, #13]
2000a5e6:	2b0e      	cmp	r3, #14
2000a5e8:	d039      	beq.n	2000a65e <pico_get_unique_board_id_string+0x1b2>
2000a5ea:	79d1      	ldrb	r1, [r2, #7]
2000a5ec:	110d      	asrs	r5, r1, #4
2000a5ee:	002c      	movs	r4, r5
2000a5f0:	3430      	adds	r4, #48	; 0x30
2000a5f2:	299f      	cmp	r1, #159	; 0x9f
2000a5f4:	d900      	bls.n	2000a5f8 <pico_get_unique_board_id_string+0x14c>
2000a5f6:	3407      	adds	r4, #7
2000a5f8:	7384      	strb	r4, [r0, #14]
2000a5fa:	2b0f      	cmp	r3, #15
2000a5fc:	d02f      	beq.n	2000a65e <pico_get_unique_board_id_string+0x1b2>
2000a5fe:	79d1      	ldrb	r1, [r2, #7]
2000a600:	220f      	movs	r2, #15
2000a602:	400a      	ands	r2, r1
2000a604:	0011      	movs	r1, r2
2000a606:	3137      	adds	r1, #55	; 0x37
2000a608:	2a09      	cmp	r2, #9
2000a60a:	dc01      	bgt.n	2000a610 <pico_get_unique_board_id_string+0x164>
2000a60c:	3230      	adds	r2, #48	; 0x30
2000a60e:	0011      	movs	r1, r2
2000a610:	73c1      	strb	r1, [r0, #15]
2000a612:	2b10      	cmp	r3, #16
2000a614:	d023      	beq.n	2000a65e <pico_get_unique_board_id_string+0x1b2>
2000a616:	3010      	adds	r0, #16
2000a618:	2300      	movs	r3, #0
2000a61a:	7003      	strb	r3, [r0, #0]
2000a61c:	bd30      	pop	{r4, r5, pc}
2000a61e:	3407      	adds	r4, #7
2000a620:	e751      	b.n	2000a4c6 <pico_get_unique_board_id_string+0x1a>
2000a622:	3137      	adds	r1, #55	; 0x37
2000a624:	000c      	movs	r4, r1
2000a626:	e75a      	b.n	2000a4de <pico_get_unique_board_id_string+0x32>
2000a628:	3407      	adds	r4, #7
2000a62a:	e763      	b.n	2000a4f4 <pico_get_unique_board_id_string+0x48>
2000a62c:	3137      	adds	r1, #55	; 0x37
2000a62e:	000c      	movs	r4, r1
2000a630:	e76c      	b.n	2000a50c <pico_get_unique_board_id_string+0x60>
2000a632:	3407      	adds	r4, #7
2000a634:	e775      	b.n	2000a522 <pico_get_unique_board_id_string+0x76>
2000a636:	3137      	adds	r1, #55	; 0x37
2000a638:	000c      	movs	r4, r1
2000a63a:	e77e      	b.n	2000a53a <pico_get_unique_board_id_string+0x8e>
2000a63c:	3407      	adds	r4, #7
2000a63e:	e787      	b.n	2000a550 <pico_get_unique_board_id_string+0xa4>
2000a640:	3137      	adds	r1, #55	; 0x37
2000a642:	000c      	movs	r4, r1
2000a644:	e790      	b.n	2000a568 <pico_get_unique_board_id_string+0xbc>
2000a646:	3407      	adds	r4, #7
2000a648:	e798      	b.n	2000a57c <pico_get_unique_board_id_string+0xd0>
2000a64a:	3137      	adds	r1, #55	; 0x37
2000a64c:	000c      	movs	r4, r1
2000a64e:	e7a0      	b.n	2000a592 <pico_get_unique_board_id_string+0xe6>
2000a650:	3407      	adds	r4, #7
2000a652:	e7a7      	b.n	2000a5a4 <pico_get_unique_board_id_string+0xf8>
2000a654:	3137      	adds	r1, #55	; 0x37
2000a656:	000c      	movs	r4, r1
2000a658:	72c4      	strb	r4, [r0, #11]
2000a65a:	2b0c      	cmp	r3, #12
2000a65c:	d1af      	bne.n	2000a5be <pico_get_unique_board_id_string+0x112>
2000a65e:	18c0      	adds	r0, r0, r3
2000a660:	e7da      	b.n	2000a618 <pico_get_unique_board_id_string+0x16c>
2000a662:	46c0      	nop			; (mov r8, r8)
2000a664:	2000d350 	.word	0x2000d350

2000a668 <flash_get_unique_id>:
2000a668:	b530      	push	{r4, r5, lr}
2000a66a:	2500      	movs	r5, #0
2000a66c:	b089      	sub	sp, #36	; 0x24
2000a66e:	0004      	movs	r4, r0
2000a670:	2209      	movs	r2, #9
2000a672:	2100      	movs	r1, #0
2000a674:	a801      	add	r0, sp, #4
2000a676:	9500      	str	r5, [sp, #0]
2000a678:	f7fd f83c 	bl	200076f4 <__wrap_memset>
2000a67c:	2209      	movs	r2, #9
2000a67e:	2100      	movs	r1, #0
2000a680:	a805      	add	r0, sp, #20
2000a682:	9504      	str	r5, [sp, #16]
2000a684:	f7fd f836 	bl	200076f4 <__wrap_memset>
2000a688:	234b      	movs	r3, #75	; 0x4b
2000a68a:	466a      	mov	r2, sp
2000a68c:	4668      	mov	r0, sp
2000a68e:	7013      	strb	r3, [r2, #0]
2000a690:	a904      	add	r1, sp, #16
2000a692:	220d      	movs	r2, #13
2000a694:	f000 fa90 	bl	2000abb8 <flash_do_cmd>
2000a698:	2115      	movs	r1, #21
2000a69a:	2208      	movs	r2, #8
2000a69c:	0020      	movs	r0, r4
2000a69e:	4469      	add	r1, sp
2000a6a0:	f7fd f82e 	bl	20007700 <__wrap___aeabi_memcpy>
2000a6a4:	b009      	add	sp, #36	; 0x24
2000a6a6:	bd30      	pop	{r4, r5, pc}

2000a6a8 <core1_trampoline>:
2000a6a8:	bd03      	pop	{r0, r1, pc}
2000a6aa:	46c0      	nop			; (mov r8, r8)

2000a6ac <core1_wrapper>:
2000a6ac:	b510      	push	{r4, lr}
2000a6ae:	0004      	movs	r4, r0
2000a6b0:	f7f8 fb10 	bl	20002cd4 <irq_init_priorities>
2000a6b4:	47a0      	blx	r4
2000a6b6:	bd10      	pop	{r4, pc}

2000a6b8 <multicore_launch_core1_raw>:
2000a6b8:	b5f0      	push	{r4, r5, r6, r7, lr}
2000a6ba:	0004      	movs	r4, r0
2000a6bc:	b087      	sub	sp, #28
2000a6be:	200f      	movs	r0, #15
2000a6c0:	000d      	movs	r5, r1
2000a6c2:	0017      	movs	r7, r2
2000a6c4:	f7f8 f884 	bl	200027d0 <irq_is_enabled>
2000a6c8:	2100      	movs	r1, #0
2000a6ca:	0006      	movs	r6, r0
2000a6cc:	200f      	movs	r0, #15
2000a6ce:	f7f8 f86d 	bl	200027ac <irq_set_enabled>
2000a6d2:	2300      	movs	r3, #0
2000a6d4:	2200      	movs	r2, #0
2000a6d6:	9200      	str	r2, [sp, #0]
2000a6d8:	9301      	str	r3, [sp, #4]
2000a6da:	2301      	movs	r3, #1
2000a6dc:	9302      	str	r3, [sp, #8]
2000a6de:	23d0      	movs	r3, #208	; 0xd0
2000a6e0:	9504      	str	r5, [sp, #16]
2000a6e2:	9405      	str	r4, [sp, #20]
2000a6e4:	2500      	movs	r5, #0
2000a6e6:	2000      	movs	r0, #0
2000a6e8:	2101      	movs	r1, #1
2000a6ea:	2402      	movs	r4, #2
2000a6ec:	9703      	str	r7, [sp, #12]
2000a6ee:	061b      	lsls	r3, r3, #24
2000a6f0:	2d00      	cmp	r5, #0
2000a6f2:	d014      	beq.n	2000a71e <multicore_launch_core1_raw+0x66>
2000a6f4:	6d1a      	ldr	r2, [r3, #80]	; 0x50
2000a6f6:	4214      	tst	r4, r2
2000a6f8:	d0fc      	beq.n	2000a6f4 <multicore_launch_core1_raw+0x3c>
2000a6fa:	655d      	str	r5, [r3, #84]	; 0x54
2000a6fc:	bf40      	sev
2000a6fe:	6d1a      	ldr	r2, [r3, #80]	; 0x50
2000a700:	4211      	tst	r1, r2
2000a702:	d103      	bne.n	2000a70c <multicore_launch_core1_raw+0x54>
2000a704:	bf20      	wfe
2000a706:	6d1a      	ldr	r2, [r3, #80]	; 0x50
2000a708:	4211      	tst	r1, r2
2000a70a:	d0fb      	beq.n	2000a704 <multicore_launch_core1_raw+0x4c>
2000a70c:	6d9a      	ldr	r2, [r3, #88]	; 0x58
2000a70e:	42aa      	cmp	r2, r5
2000a710:	d00a      	beq.n	2000a728 <multicore_launch_core1_raw+0x70>
2000a712:	2000      	movs	r0, #0
2000a714:	466d      	mov	r5, sp
2000a716:	0082      	lsls	r2, r0, #2
2000a718:	58ad      	ldr	r5, [r5, r2]
2000a71a:	e7e9      	b.n	2000a6f0 <multicore_launch_core1_raw+0x38>
2000a71c:	6d9a      	ldr	r2, [r3, #88]	; 0x58
2000a71e:	6d1a      	ldr	r2, [r3, #80]	; 0x50
2000a720:	4211      	tst	r1, r2
2000a722:	d1fb      	bne.n	2000a71c <multicore_launch_core1_raw+0x64>
2000a724:	bf40      	sev
2000a726:	e7e5      	b.n	2000a6f4 <multicore_launch_core1_raw+0x3c>
2000a728:	3001      	adds	r0, #1
2000a72a:	2805      	cmp	r0, #5
2000a72c:	d9f2      	bls.n	2000a714 <multicore_launch_core1_raw+0x5c>
2000a72e:	0031      	movs	r1, r6
2000a730:	200f      	movs	r0, #15
2000a732:	f7f8 f83b 	bl	200027ac <irq_set_enabled>
2000a736:	b007      	add	sp, #28
2000a738:	bdf0      	pop	{r4, r5, r6, r7, pc}
2000a73a:	46c0      	nop			; (mov r8, r8)

2000a73c <multicore_launch_core1>:
2000a73c:	4b0b      	ldr	r3, [pc, #44]	; (2000a76c <multicore_launch_core1+0x30>)
2000a73e:	4a0c      	ldr	r2, [pc, #48]	; (2000a770 <multicore_launch_core1+0x34>)
2000a740:	b510      	push	{r4, lr}
2000a742:	4293      	cmp	r3, r2
2000a744:	d201      	bcs.n	2000a74a <multicore_launch_core1+0xe>
2000a746:	2301      	movs	r3, #1
2000a748:	425b      	negs	r3, r3
2000a74a:	0019      	movs	r1, r3
2000a74c:	4a09      	ldr	r2, [pc, #36]	; (2000a774 <multicore_launch_core1+0x38>)
2000a74e:	5098      	str	r0, [r3, r2]
2000a750:	3204      	adds	r2, #4
2000a752:	509b      	str	r3, [r3, r2]
2000a754:	4a08      	ldr	r2, [pc, #32]	; (2000a778 <multicore_launch_core1+0x3c>)
2000a756:	4b09      	ldr	r3, [pc, #36]	; (2000a77c <multicore_launch_core1+0x40>)
2000a758:	4809      	ldr	r0, [pc, #36]	; (2000a780 <multicore_launch_core1+0x44>)
2000a75a:	50ca      	str	r2, [r1, r3]
2000a75c:	4b09      	ldr	r3, [pc, #36]	; (2000a784 <multicore_launch_core1+0x48>)
2000a75e:	689a      	ldr	r2, [r3, #8]
2000a760:	4b04      	ldr	r3, [pc, #16]	; (2000a774 <multicore_launch_core1+0x38>)
2000a762:	469c      	mov	ip, r3
2000a764:	4461      	add	r1, ip
2000a766:	f7ff ffa7 	bl	2000a6b8 <multicore_launch_core1_raw>
2000a76a:	bd10      	pop	{r4, pc}
2000a76c:	20040800 	.word	0x20040800
2000a770:	20040000 	.word	0x20040000
2000a774:	000007f4 	.word	0x000007f4
2000a778:	2000a6ad 	.word	0x2000a6ad
2000a77c:	000007fc 	.word	0x000007fc
2000a780:	2000a6a9 	.word	0x2000a6a9
2000a784:	e000ed00 	.word	0xe000ed00

2000a788 <modf>:
2000a788:	b570      	push	{r4, r5, r6, lr}
2000a78a:	004b      	lsls	r3, r1, #1
2000a78c:	4c1b      	ldr	r4, [pc, #108]	; (2000a7fc <modf+0x74>)
2000a78e:	0d5b      	lsrs	r3, r3, #21
2000a790:	191c      	adds	r4, r3, r4
2000a792:	000e      	movs	r6, r1
2000a794:	2c13      	cmp	r4, #19
2000a796:	dc11      	bgt.n	2000a7bc <modf+0x34>
2000a798:	2c00      	cmp	r4, #0
2000a79a:	db28      	blt.n	2000a7ee <modf+0x66>
2000a79c:	4b18      	ldr	r3, [pc, #96]	; (2000a800 <modf+0x78>)
2000a79e:	4123      	asrs	r3, r4
2000a7a0:	001c      	movs	r4, r3
2000a7a2:	400c      	ands	r4, r1
2000a7a4:	4304      	orrs	r4, r0
2000a7a6:	d118      	bne.n	2000a7da <modf+0x52>
2000a7a8:	0004      	movs	r4, r0
2000a7aa:	000d      	movs	r5, r1
2000a7ac:	6014      	str	r4, [r2, #0]
2000a7ae:	6055      	str	r5, [r2, #4]
2000a7b0:	2200      	movs	r2, #0
2000a7b2:	0fc9      	lsrs	r1, r1, #31
2000a7b4:	07cb      	lsls	r3, r1, #31
2000a7b6:	0010      	movs	r0, r2
2000a7b8:	0019      	movs	r1, r3
2000a7ba:	bd70      	pop	{r4, r5, r6, pc}
2000a7bc:	2c33      	cmp	r4, #51	; 0x33
2000a7be:	dcf3      	bgt.n	2000a7a8 <modf+0x20>
2000a7c0:	4c10      	ldr	r4, [pc, #64]	; (2000a804 <modf+0x7c>)
2000a7c2:	46a4      	mov	ip, r4
2000a7c4:	2401      	movs	r4, #1
2000a7c6:	4463      	add	r3, ip
2000a7c8:	4264      	negs	r4, r4
2000a7ca:	40dc      	lsrs	r4, r3
2000a7cc:	4204      	tst	r4, r0
2000a7ce:	d0eb      	beq.n	2000a7a8 <modf+0x20>
2000a7d0:	0006      	movs	r6, r0
2000a7d2:	43a6      	bics	r6, r4
2000a7d4:	000d      	movs	r5, r1
2000a7d6:	0034      	movs	r4, r6
2000a7d8:	e002      	b.n	2000a7e0 <modf+0x58>
2000a7da:	439e      	bics	r6, r3
2000a7dc:	2400      	movs	r4, #0
2000a7de:	0035      	movs	r5, r6
2000a7e0:	6014      	str	r4, [r2, #0]
2000a7e2:	6055      	str	r5, [r2, #4]
2000a7e4:	002b      	movs	r3, r5
2000a7e6:	0022      	movs	r2, r4
2000a7e8:	f7fb fc03 	bl	20005ff2 <__wrap___aeabi_dsub>
2000a7ec:	e7e5      	b.n	2000a7ba <modf+0x32>
2000a7ee:	2400      	movs	r4, #0
2000a7f0:	0fcb      	lsrs	r3, r1, #31
2000a7f2:	07dd      	lsls	r5, r3, #31
2000a7f4:	6014      	str	r4, [r2, #0]
2000a7f6:	6055      	str	r5, [r2, #4]
2000a7f8:	e7df      	b.n	2000a7ba <modf+0x32>
2000a7fa:	46c0      	nop			; (mov r8, r8)
2000a7fc:	fffffc01 	.word	0xfffffc01
2000a800:	000fffff 	.word	0x000fffff
2000a804:	fffffbed 	.word	0xfffffbed

2000a808 <__aeabi_idiv0>:
2000a808:	4770      	bx	lr
2000a80a:	46c0      	nop			; (mov r8, r8)

2000a80c <strcat>:
2000a80c:	b570      	push	{r4, r5, r6, lr}
2000a80e:	0004      	movs	r4, r0
2000a810:	0783      	lsls	r3, r0, #30
2000a812:	d117      	bne.n	2000a844 <strcat+0x38>
2000a814:	6802      	ldr	r2, [r0, #0]
2000a816:	4b0f      	ldr	r3, [pc, #60]	; (2000a854 <strcat+0x48>)
2000a818:	18d3      	adds	r3, r2, r3
2000a81a:	4393      	bics	r3, r2
2000a81c:	4a0e      	ldr	r2, [pc, #56]	; (2000a858 <strcat+0x4c>)
2000a81e:	0015      	movs	r5, r2
2000a820:	4213      	tst	r3, r2
2000a822:	d10f      	bne.n	2000a844 <strcat+0x38>
2000a824:	3004      	adds	r0, #4
2000a826:	6802      	ldr	r2, [r0, #0]
2000a828:	4b0a      	ldr	r3, [pc, #40]	; (2000a854 <strcat+0x48>)
2000a82a:	18d3      	adds	r3, r2, r3
2000a82c:	4393      	bics	r3, r2
2000a82e:	422b      	tst	r3, r5
2000a830:	d108      	bne.n	2000a844 <strcat+0x38>
2000a832:	3004      	adds	r0, #4
2000a834:	6802      	ldr	r2, [r0, #0]
2000a836:	4b07      	ldr	r3, [pc, #28]	; (2000a854 <strcat+0x48>)
2000a838:	18d3      	adds	r3, r2, r3
2000a83a:	4393      	bics	r3, r2
2000a83c:	422b      	tst	r3, r5
2000a83e:	d0f1      	beq.n	2000a824 <strcat+0x18>
2000a840:	e000      	b.n	2000a844 <strcat+0x38>
2000a842:	3001      	adds	r0, #1
2000a844:	7803      	ldrb	r3, [r0, #0]
2000a846:	2b00      	cmp	r3, #0
2000a848:	d1fb      	bne.n	2000a842 <strcat+0x36>
2000a84a:	f000 f807 	bl	2000a85c <strcpy>
2000a84e:	0020      	movs	r0, r4
2000a850:	bd70      	pop	{r4, r5, r6, pc}
2000a852:	46c0      	nop			; (mov r8, r8)
2000a854:	fefefeff 	.word	0xfefefeff
2000a858:	80808080 	.word	0x80808080

2000a85c <strcpy>:
2000a85c:	0003      	movs	r3, r0
2000a85e:	780a      	ldrb	r2, [r1, #0]
2000a860:	3101      	adds	r1, #1
2000a862:	701a      	strb	r2, [r3, #0]
2000a864:	3301      	adds	r3, #1
2000a866:	2a00      	cmp	r2, #0
2000a868:	d1f9      	bne.n	2000a85e <strcpy+0x2>
2000a86a:	4770      	bx	lr

2000a86c <strlen>:
2000a86c:	b510      	push	{r4, lr}
2000a86e:	0783      	lsls	r3, r0, #30
2000a870:	d027      	beq.n	2000a8c2 <strlen+0x56>
2000a872:	7803      	ldrb	r3, [r0, #0]
2000a874:	2b00      	cmp	r3, #0
2000a876:	d026      	beq.n	2000a8c6 <strlen+0x5a>
2000a878:	0003      	movs	r3, r0
2000a87a:	2103      	movs	r1, #3
2000a87c:	e002      	b.n	2000a884 <strlen+0x18>
2000a87e:	781a      	ldrb	r2, [r3, #0]
2000a880:	2a00      	cmp	r2, #0
2000a882:	d01c      	beq.n	2000a8be <strlen+0x52>
2000a884:	3301      	adds	r3, #1
2000a886:	420b      	tst	r3, r1
2000a888:	d1f9      	bne.n	2000a87e <strlen+0x12>
2000a88a:	6819      	ldr	r1, [r3, #0]
2000a88c:	4a0f      	ldr	r2, [pc, #60]	; (2000a8cc <strlen+0x60>)
2000a88e:	4c10      	ldr	r4, [pc, #64]	; (2000a8d0 <strlen+0x64>)
2000a890:	188a      	adds	r2, r1, r2
2000a892:	438a      	bics	r2, r1
2000a894:	4222      	tst	r2, r4
2000a896:	d10f      	bne.n	2000a8b8 <strlen+0x4c>
2000a898:	3304      	adds	r3, #4
2000a89a:	6819      	ldr	r1, [r3, #0]
2000a89c:	4a0b      	ldr	r2, [pc, #44]	; (2000a8cc <strlen+0x60>)
2000a89e:	188a      	adds	r2, r1, r2
2000a8a0:	438a      	bics	r2, r1
2000a8a2:	4222      	tst	r2, r4
2000a8a4:	d108      	bne.n	2000a8b8 <strlen+0x4c>
2000a8a6:	3304      	adds	r3, #4
2000a8a8:	6819      	ldr	r1, [r3, #0]
2000a8aa:	4a08      	ldr	r2, [pc, #32]	; (2000a8cc <strlen+0x60>)
2000a8ac:	188a      	adds	r2, r1, r2
2000a8ae:	438a      	bics	r2, r1
2000a8b0:	4222      	tst	r2, r4
2000a8b2:	d0f1      	beq.n	2000a898 <strlen+0x2c>
2000a8b4:	e000      	b.n	2000a8b8 <strlen+0x4c>
2000a8b6:	3301      	adds	r3, #1
2000a8b8:	781a      	ldrb	r2, [r3, #0]
2000a8ba:	2a00      	cmp	r2, #0
2000a8bc:	d1fb      	bne.n	2000a8b6 <strlen+0x4a>
2000a8be:	1a18      	subs	r0, r3, r0
2000a8c0:	bd10      	pop	{r4, pc}
2000a8c2:	0003      	movs	r3, r0
2000a8c4:	e7e1      	b.n	2000a88a <strlen+0x1e>
2000a8c6:	2000      	movs	r0, #0
2000a8c8:	e7fa      	b.n	2000a8c0 <strlen+0x54>
2000a8ca:	46c0      	nop			; (mov r8, r8)
2000a8cc:	fefefeff 	.word	0xfefefeff
2000a8d0:	80808080 	.word	0x80808080

2000a8d4 <_fini>:
2000a8d4:	b5f8      	push	{r3, r4, r5, r6, r7, lr}
2000a8d6:	46c0      	nop			; (mov r8, r8)

2000a8d8 <____get_current_exception_veneer>:
2000a8d8:	b401      	push	{r0}
2000a8da:	4802      	ldr	r0, [pc, #8]	; (2000a8e4 <____get_current_exception_veneer+0xc>)
2000a8dc:	4684      	mov	ip, r0
2000a8de:	bc01      	pop	{r0}
2000a8e0:	4760      	bx	ip
2000a8e2:	bf00      	nop
2000a8e4:	10000273 	.word	0x10000273

Disassembly of section .data:

2000a8f0 <mutex_enter_blocking>:
2000a8f0:	23d0      	movs	r3, #208	; 0xd0
2000a8f2:	b530      	push	{r4, r5, lr}
2000a8f4:	2500      	movs	r5, #0
2000a8f6:	061b      	lsls	r3, r3, #24
2000a8f8:	2400      	movs	r4, #0
2000a8fa:	575d      	ldrsb	r5, [r3, r5]
2000a8fc:	e006      	b.n	2000a90c <mutex_enter_blocking+0x1c>
2000a8fe:	6803      	ldr	r3, [r0, #0]
2000a900:	f3bf 8f5f 	dmb	sy
2000a904:	601c      	str	r4, [r3, #0]
2000a906:	f381 8810 	msr	PRIMASK, r1
2000a90a:	bf20      	wfe
2000a90c:	6802      	ldr	r2, [r0, #0]
2000a90e:	f3ef 8110 	mrs	r1, PRIMASK
2000a912:	b672      	cpsid	i
2000a914:	6813      	ldr	r3, [r2, #0]
2000a916:	2b00      	cmp	r3, #0
2000a918:	d0fc      	beq.n	2000a914 <mutex_enter_blocking+0x24>
2000a91a:	f3bf 8f5f 	dmb	sy
2000a91e:	7903      	ldrb	r3, [r0, #4]
2000a920:	2b7f      	cmp	r3, #127	; 0x7f
2000a922:	d9ec      	bls.n	2000a8fe <mutex_enter_blocking+0xe>
2000a924:	7105      	strb	r5, [r0, #4]
2000a926:	6803      	ldr	r3, [r0, #0]
2000a928:	f3bf 8f5f 	dmb	sy
2000a92c:	2200      	movs	r2, #0
2000a92e:	601a      	str	r2, [r3, #0]
2000a930:	f381 8810 	msr	PRIMASK, r1
2000a934:	bd30      	pop	{r4, r5, pc}
2000a936:	46c0      	nop			; (mov r8, r8)

2000a938 <mutex_try_enter>:
2000a938:	0003      	movs	r3, r0
2000a93a:	b510      	push	{r4, lr}
2000a93c:	6800      	ldr	r0, [r0, #0]
2000a93e:	f3ef 8410 	mrs	r4, PRIMASK
2000a942:	b672      	cpsid	i
2000a944:	6802      	ldr	r2, [r0, #0]
2000a946:	2a00      	cmp	r2, #0
2000a948:	d0fc      	beq.n	2000a944 <mutex_try_enter+0xc>
2000a94a:	f3bf 8f5f 	dmb	sy
2000a94e:	2204      	movs	r2, #4
2000a950:	569a      	ldrsb	r2, [r3, r2]
2000a952:	2a00      	cmp	r2, #0
2000a954:	db0b      	blt.n	2000a96e <mutex_try_enter+0x36>
2000a956:	2900      	cmp	r1, #0
2000a958:	d00f      	beq.n	2000a97a <mutex_try_enter+0x42>
2000a95a:	2000      	movs	r0, #0
2000a95c:	600a      	str	r2, [r1, #0]
2000a95e:	681b      	ldr	r3, [r3, #0]
2000a960:	f3bf 8f5f 	dmb	sy
2000a964:	2200      	movs	r2, #0
2000a966:	601a      	str	r2, [r3, #0]
2000a968:	f384 8810 	msr	PRIMASK, r4
2000a96c:	bd10      	pop	{r4, pc}
2000a96e:	22d0      	movs	r2, #208	; 0xd0
2000a970:	0612      	lsls	r2, r2, #24
2000a972:	6812      	ldr	r2, [r2, #0]
2000a974:	2001      	movs	r0, #1
2000a976:	711a      	strb	r2, [r3, #4]
2000a978:	e7f1      	b.n	2000a95e <mutex_try_enter+0x26>
2000a97a:	2000      	movs	r0, #0
2000a97c:	e7ef      	b.n	2000a95e <mutex_try_enter+0x26>
2000a97e:	46c0      	nop			; (mov r8, r8)

2000a980 <mutex_enter_timeout_ms>:
2000a980:	b5f0      	push	{r4, r5, r6, r7, lr}
2000a982:	46c6      	mov	lr, r8
2000a984:	b500      	push	{lr}
2000a986:	000c      	movs	r4, r1
2000a988:	4680      	mov	r8, r0
2000a98a:	f7f8 fe53 	bl	20003634 <time_us_64>
2000a98e:	22fa      	movs	r2, #250	; 0xfa
2000a990:	0006      	movs	r6, r0
2000a992:	000f      	movs	r7, r1
2000a994:	0020      	movs	r0, r4
2000a996:	2300      	movs	r3, #0
2000a998:	2100      	movs	r1, #0
2000a99a:	0092      	lsls	r2, r2, #2
2000a99c:	f7fc fe40 	bl	20007620 <__wrap___aeabi_lmul>
2000a9a0:	1980      	adds	r0, r0, r6
2000a9a2:	4179      	adcs	r1, r7
2000a9a4:	0004      	movs	r4, r0
2000a9a6:	000d      	movs	r5, r1
2000a9a8:	428f      	cmp	r7, r1
2000a9aa:	d82f      	bhi.n	2000aa0c <mutex_enter_timeout_ms+0x8c>
2000a9ac:	d02c      	beq.n	2000aa08 <mutex_enter_timeout_ms+0x88>
2000a9ae:	23d0      	movs	r3, #208	; 0xd0
2000a9b0:	061b      	lsls	r3, r3, #24
2000a9b2:	2600      	movs	r6, #0
2000a9b4:	681f      	ldr	r7, [r3, #0]
2000a9b6:	e00c      	b.n	2000a9d2 <mutex_enter_timeout_ms+0x52>
2000a9b8:	4642      	mov	r2, r8
2000a9ba:	6812      	ldr	r2, [r2, #0]
2000a9bc:	f3bf 8f5f 	dmb	sy
2000a9c0:	6016      	str	r6, [r2, #0]
2000a9c2:	f383 8810 	msr	PRIMASK, r3
2000a9c6:	0020      	movs	r0, r4
2000a9c8:	0029      	movs	r1, r5
2000a9ca:	f7f8 fd61 	bl	20003490 <best_effort_wfe_or_timeout>
2000a9ce:	2800      	cmp	r0, #0
2000a9d0:	d120      	bne.n	2000aa14 <mutex_enter_timeout_ms+0x94>
2000a9d2:	4643      	mov	r3, r8
2000a9d4:	681a      	ldr	r2, [r3, #0]
2000a9d6:	f3ef 8310 	mrs	r3, PRIMASK
2000a9da:	b672      	cpsid	i
2000a9dc:	6811      	ldr	r1, [r2, #0]
2000a9de:	2900      	cmp	r1, #0
2000a9e0:	d0fc      	beq.n	2000a9dc <mutex_enter_timeout_ms+0x5c>
2000a9e2:	f3bf 8f5f 	dmb	sy
2000a9e6:	4642      	mov	r2, r8
2000a9e8:	7912      	ldrb	r2, [r2, #4]
2000a9ea:	2a7f      	cmp	r2, #127	; 0x7f
2000a9ec:	d9e4      	bls.n	2000a9b8 <mutex_enter_timeout_ms+0x38>
2000a9ee:	4642      	mov	r2, r8
2000a9f0:	7117      	strb	r7, [r2, #4]
2000a9f2:	6812      	ldr	r2, [r2, #0]
2000a9f4:	f3bf 8f5f 	dmb	sy
2000a9f8:	2100      	movs	r1, #0
2000a9fa:	6011      	str	r1, [r2, #0]
2000a9fc:	f383 8810 	msr	PRIMASK, r3
2000aa00:	2001      	movs	r0, #1
2000aa02:	bc04      	pop	{r2}
2000aa04:	4690      	mov	r8, r2
2000aa06:	bdf0      	pop	{r4, r5, r6, r7, pc}
2000aa08:	4286      	cmp	r6, r0
2000aa0a:	d9d0      	bls.n	2000a9ae <mutex_enter_timeout_ms+0x2e>
2000aa0c:	2401      	movs	r4, #1
2000aa0e:	4264      	negs	r4, r4
2000aa10:	17e5      	asrs	r5, r4, #31
2000aa12:	e7cc      	b.n	2000a9ae <mutex_enter_timeout_ms+0x2e>
2000aa14:	2000      	movs	r0, #0
2000aa16:	e7f4      	b.n	2000aa02 <mutex_enter_timeout_ms+0x82>

2000aa18 <mutex_exit>:
2000aa18:	6802      	ldr	r2, [r0, #0]
2000aa1a:	f3ef 8110 	mrs	r1, PRIMASK
2000aa1e:	b672      	cpsid	i
2000aa20:	6813      	ldr	r3, [r2, #0]
2000aa22:	2b00      	cmp	r3, #0
2000aa24:	d0fc      	beq.n	2000aa20 <mutex_exit+0x8>
2000aa26:	f3bf 8f5f 	dmb	sy
2000aa2a:	23ff      	movs	r3, #255	; 0xff
2000aa2c:	7103      	strb	r3, [r0, #4]
2000aa2e:	6803      	ldr	r3, [r0, #0]
2000aa30:	f3bf 8f5f 	dmb	sy
2000aa34:	2200      	movs	r2, #0
2000aa36:	601a      	str	r2, [r3, #0]
2000aa38:	f381 8810 	msr	PRIMASK, r1
2000aa3c:	bf40      	sev
2000aa3e:	4770      	bx	lr

2000aa40 <flash_init_boot2_copyout>:
2000aa40:	4808      	ldr	r0, [pc, #32]	; (2000aa64 <flash_init_boot2_copyout+0x24>)
2000aa42:	b510      	push	{r4, lr}
2000aa44:	7803      	ldrb	r3, [r0, #0]
2000aa46:	2b00      	cmp	r3, #0
2000aa48:	d10a      	bne.n	2000aa60 <flash_init_boot2_copyout+0x20>
2000aa4a:	2380      	movs	r3, #128	; 0x80
2000aa4c:	4906      	ldr	r1, [pc, #24]	; (2000aa68 <flash_init_boot2_copyout+0x28>)
2000aa4e:	4a07      	ldr	r2, [pc, #28]	; (2000aa6c <flash_init_boot2_copyout+0x2c>)
2000aa50:	055b      	lsls	r3, r3, #21
2000aa52:	681c      	ldr	r4, [r3, #0]
2000aa54:	50cc      	str	r4, [r1, r3]
2000aa56:	3304      	adds	r3, #4
2000aa58:	4293      	cmp	r3, r2
2000aa5a:	d1fa      	bne.n	2000aa52 <flash_init_boot2_copyout+0x12>
2000aa5c:	2301      	movs	r3, #1
2000aa5e:	7003      	strb	r3, [r0, #0]
2000aa60:	bd10      	pop	{r4, pc}
2000aa62:	46c0      	nop			; (mov r8, r8)
2000aa64:	2000d3c4 	.word	0x2000d3c4
2000aa68:	1000cd74 	.word	0x1000cd74
2000aa6c:	10000100 	.word	0x10000100

2000aa70 <flash_enable_xip_via_boot2>:
2000aa70:	b510      	push	{r4, lr}
2000aa72:	4b02      	ldr	r3, [pc, #8]	; (2000aa7c <flash_enable_xip_via_boot2+0xc>)
2000aa74:	3301      	adds	r3, #1
2000aa76:	4798      	blx	r3
2000aa78:	bd10      	pop	{r4, pc}
2000aa7a:	46c0      	nop			; (mov r8, r8)
2000aa7c:	2000cd74 	.word	0x2000cd74

2000aa80 <flash_cs_force.constprop.0>:
2000aa80:	4b05      	ldr	r3, [pc, #20]	; (2000aa98 <flash_cs_force.constprop.0+0x18>)
2000aa82:	681a      	ldr	r2, [r3, #0]
2000aa84:	2380      	movs	r3, #128	; 0x80
2000aa86:	009b      	lsls	r3, r3, #2
2000aa88:	4053      	eors	r3, r2
2000aa8a:	22c0      	movs	r2, #192	; 0xc0
2000aa8c:	0092      	lsls	r2, r2, #2
2000aa8e:	4013      	ands	r3, r2
2000aa90:	4a02      	ldr	r2, [pc, #8]	; (2000aa9c <flash_cs_force.constprop.0+0x1c>)
2000aa92:	6013      	str	r3, [r2, #0]
2000aa94:	4770      	bx	lr
2000aa96:	46c0      	nop			; (mov r8, r8)
2000aa98:	4001800c 	.word	0x4001800c
2000aa9c:	4001900c 	.word	0x4001900c

2000aaa0 <flash_cs_force.constprop.1>:
2000aaa0:	4b03      	ldr	r3, [pc, #12]	; (2000aab0 <flash_cs_force.constprop.1+0x10>)
2000aaa2:	681a      	ldr	r2, [r3, #0]
2000aaa4:	23c0      	movs	r3, #192	; 0xc0
2000aaa6:	009b      	lsls	r3, r3, #2
2000aaa8:	4393      	bics	r3, r2
2000aaaa:	4a02      	ldr	r2, [pc, #8]	; (2000aab4 <flash_cs_force.constprop.1+0x14>)
2000aaac:	6013      	str	r3, [r2, #0]
2000aaae:	4770      	bx	lr
2000aab0:	4001800c 	.word	0x4001800c
2000aab4:	4001900c 	.word	0x4001900c

2000aab8 <flash_range_erase>:
2000aab8:	b5f0      	push	{r4, r5, r6, r7, lr}
2000aaba:	2380      	movs	r3, #128	; 0x80
2000aabc:	46d6      	mov	lr, sl
2000aabe:	464f      	mov	r7, r9
2000aac0:	4646      	mov	r6, r8
2000aac2:	1842      	adds	r2, r0, r1
2000aac4:	0004      	movs	r4, r0
2000aac6:	000d      	movs	r5, r1
2000aac8:	b5c0      	push	{r6, r7, lr}
2000aaca:	039b      	lsls	r3, r3, #14
2000aacc:	429a      	cmp	r2, r3
2000aace:	d827      	bhi.n	2000ab20 <flash_range_erase+0x68>
2000aad0:	2714      	movs	r7, #20
2000aad2:	2618      	movs	r6, #24
2000aad4:	8838      	ldrh	r0, [r7, #0]
2000aad6:	8833      	ldrh	r3, [r6, #0]
2000aad8:	4913      	ldr	r1, [pc, #76]	; (2000ab28 <flash_range_erase+0x70>)
2000aada:	4798      	blx	r3
2000aadc:	8833      	ldrh	r3, [r6, #0]
2000aade:	4682      	mov	sl, r0
2000aae0:	4912      	ldr	r1, [pc, #72]	; (2000ab2c <flash_range_erase+0x74>)
2000aae2:	8838      	ldrh	r0, [r7, #0]
2000aae4:	4798      	blx	r3
2000aae6:	8833      	ldrh	r3, [r6, #0]
2000aae8:	4681      	mov	r9, r0
2000aaea:	4911      	ldr	r1, [pc, #68]	; (2000ab30 <flash_range_erase+0x78>)
2000aaec:	8838      	ldrh	r0, [r7, #0]
2000aaee:	4798      	blx	r3
2000aaf0:	8833      	ldrh	r3, [r6, #0]
2000aaf2:	4910      	ldr	r1, [pc, #64]	; (2000ab34 <flash_range_erase+0x7c>)
2000aaf4:	4680      	mov	r8, r0
2000aaf6:	8838      	ldrh	r0, [r7, #0]
2000aaf8:	4798      	blx	r3
2000aafa:	0006      	movs	r6, r0
2000aafc:	f7ff ffa0 	bl	2000aa40 <flash_init_boot2_copyout>
2000ab00:	47d0      	blx	sl
2000ab02:	47c8      	blx	r9
2000ab04:	2280      	movs	r2, #128	; 0x80
2000ab06:	0029      	movs	r1, r5
2000ab08:	23d8      	movs	r3, #216	; 0xd8
2000ab0a:	0020      	movs	r0, r4
2000ab0c:	0252      	lsls	r2, r2, #9
2000ab0e:	47c0      	blx	r8
2000ab10:	47b0      	blx	r6
2000ab12:	f7ff ffad 	bl	2000aa70 <flash_enable_xip_via_boot2>
2000ab16:	bc1c      	pop	{r2, r3, r4}
2000ab18:	4690      	mov	r8, r2
2000ab1a:	4699      	mov	r9, r3
2000ab1c:	46a2      	mov	sl, r4
2000ab1e:	bdf0      	pop	{r4, r5, r6, r7, pc}
2000ab20:	f7f9 f9c4 	bl	20003eac <hard_assertion_failure>
2000ab24:	e7d4      	b.n	2000aad0 <flash_range_erase+0x18>
2000ab26:	46c0      	nop			; (mov r8, r8)
2000ab28:	00004649 	.word	0x00004649
2000ab2c:	00005845 	.word	0x00005845
2000ab30:	00004552 	.word	0x00004552
2000ab34:	00004346 	.word	0x00004346

2000ab38 <flash_range_program>:
2000ab38:	b5f8      	push	{r3, r4, r5, r6, r7, lr}
2000ab3a:	464e      	mov	r6, r9
2000ab3c:	4645      	mov	r5, r8
2000ab3e:	46de      	mov	lr, fp
2000ab40:	4657      	mov	r7, sl
2000ab42:	2380      	movs	r3, #128	; 0x80
2000ab44:	b5e0      	push	{r5, r6, r7, lr}
2000ab46:	0015      	movs	r5, r2
2000ab48:	1882      	adds	r2, r0, r2
2000ab4a:	0004      	movs	r4, r0
2000ab4c:	4689      	mov	r9, r1
2000ab4e:	039b      	lsls	r3, r3, #14
2000ab50:	429a      	cmp	r2, r3
2000ab52:	d826      	bhi.n	2000aba2 <flash_range_program+0x6a>
2000ab54:	2714      	movs	r7, #20
2000ab56:	2618      	movs	r6, #24
2000ab58:	8838      	ldrh	r0, [r7, #0]
2000ab5a:	8833      	ldrh	r3, [r6, #0]
2000ab5c:	4912      	ldr	r1, [pc, #72]	; (2000aba8 <flash_range_program+0x70>)
2000ab5e:	4798      	blx	r3
2000ab60:	8833      	ldrh	r3, [r6, #0]
2000ab62:	4683      	mov	fp, r0
2000ab64:	4911      	ldr	r1, [pc, #68]	; (2000abac <flash_range_program+0x74>)
2000ab66:	8838      	ldrh	r0, [r7, #0]
2000ab68:	4798      	blx	r3
2000ab6a:	8833      	ldrh	r3, [r6, #0]
2000ab6c:	4682      	mov	sl, r0
2000ab6e:	4910      	ldr	r1, [pc, #64]	; (2000abb0 <flash_range_program+0x78>)
2000ab70:	8838      	ldrh	r0, [r7, #0]
2000ab72:	4798      	blx	r3
2000ab74:	8833      	ldrh	r3, [r6, #0]
2000ab76:	490f      	ldr	r1, [pc, #60]	; (2000abb4 <flash_range_program+0x7c>)
2000ab78:	4680      	mov	r8, r0
2000ab7a:	8838      	ldrh	r0, [r7, #0]
2000ab7c:	4798      	blx	r3
2000ab7e:	0006      	movs	r6, r0
2000ab80:	f7ff ff5e 	bl	2000aa40 <flash_init_boot2_copyout>
2000ab84:	47d8      	blx	fp
2000ab86:	47d0      	blx	sl
2000ab88:	002a      	movs	r2, r5
2000ab8a:	4649      	mov	r1, r9
2000ab8c:	0020      	movs	r0, r4
2000ab8e:	47c0      	blx	r8
2000ab90:	47b0      	blx	r6
2000ab92:	f7ff ff6d 	bl	2000aa70 <flash_enable_xip_via_boot2>
2000ab96:	bc3c      	pop	{r2, r3, r4, r5}
2000ab98:	4690      	mov	r8, r2
2000ab9a:	4699      	mov	r9, r3
2000ab9c:	46a2      	mov	sl, r4
2000ab9e:	46ab      	mov	fp, r5
2000aba0:	bdf8      	pop	{r3, r4, r5, r6, r7, pc}
2000aba2:	f7f9 f983 	bl	20003eac <hard_assertion_failure>
2000aba6:	e7d5      	b.n	2000ab54 <flash_range_program+0x1c>
2000aba8:	00004649 	.word	0x00004649
2000abac:	00005845 	.word	0x00005845
2000abb0:	00005052 	.word	0x00005052
2000abb4:	00004346 	.word	0x00004346

2000abb8 <flash_do_cmd>:
2000abb8:	2314      	movs	r3, #20
2000abba:	b5f0      	push	{r4, r5, r6, r7, lr}
2000abbc:	46d6      	mov	lr, sl
2000abbe:	464f      	mov	r7, r9
2000abc0:	4646      	mov	r6, r8
2000abc2:	469a      	mov	sl, r3
2000abc4:	4681      	mov	r9, r0
2000abc6:	8818      	ldrh	r0, [r3, #0]
2000abc8:	3304      	adds	r3, #4
2000abca:	b5c0      	push	{r6, r7, lr}
2000abcc:	4698      	mov	r8, r3
2000abce:	000e      	movs	r6, r1
2000abd0:	881b      	ldrh	r3, [r3, #0]
2000abd2:	4927      	ldr	r1, [pc, #156]	; (2000ac70 <flash_do_cmd+0xb8>)
2000abd4:	0014      	movs	r4, r2
2000abd6:	4798      	blx	r3
2000abd8:	4653      	mov	r3, sl
2000abda:	0007      	movs	r7, r0
2000abdc:	8818      	ldrh	r0, [r3, #0]
2000abde:	4643      	mov	r3, r8
2000abe0:	4924      	ldr	r1, [pc, #144]	; (2000ac74 <flash_do_cmd+0xbc>)
2000abe2:	881b      	ldrh	r3, [r3, #0]
2000abe4:	4798      	blx	r3
2000abe6:	4653      	mov	r3, sl
2000abe8:	0005      	movs	r5, r0
2000abea:	8818      	ldrh	r0, [r3, #0]
2000abec:	4643      	mov	r3, r8
2000abee:	4922      	ldr	r1, [pc, #136]	; (2000ac78 <flash_do_cmd+0xc0>)
2000abf0:	881b      	ldrh	r3, [r3, #0]
2000abf2:	4798      	blx	r3
2000abf4:	4680      	mov	r8, r0
2000abf6:	f7ff ff23 	bl	2000aa40 <flash_init_boot2_copyout>
2000abfa:	47b8      	blx	r7
2000abfc:	47a8      	blx	r5
2000abfe:	f7ff ff3f 	bl	2000aa80 <flash_cs_force.constprop.0>
2000ac02:	2c00      	cmp	r4, #0
2000ac04:	d01b      	beq.n	2000ac3e <flash_do_cmd+0x86>
2000ac06:	21c0      	movs	r1, #192	; 0xc0
2000ac08:	0022      	movs	r2, r4
2000ac0a:	2708      	movs	r7, #8
2000ac0c:	2002      	movs	r0, #2
2000ac0e:	0549      	lsls	r1, r1, #21
2000ac10:	003d      	movs	r5, r7
2000ac12:	6a8b      	ldr	r3, [r1, #40]	; 0x28
2000ac14:	401d      	ands	r5, r3
2000ac16:	4218      	tst	r0, r3
2000ac18:	d00b      	beq.n	2000ac32 <flash_do_cmd+0x7a>
2000ac1a:	2c00      	cmp	r4, #0
2000ac1c:	d009      	beq.n	2000ac32 <flash_do_cmd+0x7a>
2000ac1e:	1b13      	subs	r3, r2, r4
2000ac20:	2b0d      	cmp	r3, #13
2000ac22:	d81f      	bhi.n	2000ac64 <flash_do_cmd+0xac>
2000ac24:	464b      	mov	r3, r9
2000ac26:	781b      	ldrb	r3, [r3, #0]
2000ac28:	3c01      	subs	r4, #1
2000ac2a:	660b      	str	r3, [r1, #96]	; 0x60
2000ac2c:	2301      	movs	r3, #1
2000ac2e:	469c      	mov	ip, r3
2000ac30:	44e1      	add	r9, ip
2000ac32:	0023      	movs	r3, r4
2000ac34:	2d00      	cmp	r5, #0
2000ac36:	d10c      	bne.n	2000ac52 <flash_do_cmd+0x9a>
2000ac38:	4313      	orrs	r3, r2
2000ac3a:	2b00      	cmp	r3, #0
2000ac3c:	d1e8      	bne.n	2000ac10 <flash_do_cmd+0x58>
2000ac3e:	f7ff ff2f 	bl	2000aaa0 <flash_cs_force.constprop.1>
2000ac42:	47c0      	blx	r8
2000ac44:	f7ff ff14 	bl	2000aa70 <flash_enable_xip_via_boot2>
2000ac48:	bc1c      	pop	{r2, r3, r4}
2000ac4a:	4690      	mov	r8, r2
2000ac4c:	4699      	mov	r9, r3
2000ac4e:	46a2      	mov	sl, r4
2000ac50:	bdf0      	pop	{r4, r5, r6, r7, pc}
2000ac52:	2a00      	cmp	r2, #0
2000ac54:	d0f1      	beq.n	2000ac3a <flash_do_cmd+0x82>
2000ac56:	6e0b      	ldr	r3, [r1, #96]	; 0x60
2000ac58:	3a01      	subs	r2, #1
2000ac5a:	7033      	strb	r3, [r6, #0]
2000ac5c:	0013      	movs	r3, r2
2000ac5e:	3601      	adds	r6, #1
2000ac60:	4323      	orrs	r3, r4
2000ac62:	e7ea      	b.n	2000ac3a <flash_do_cmd+0x82>
2000ac64:	2d00      	cmp	r5, #0
2000ac66:	d0d3      	beq.n	2000ac10 <flash_do_cmd+0x58>
2000ac68:	2a00      	cmp	r2, #0
2000ac6a:	d0d1      	beq.n	2000ac10 <flash_do_cmd+0x58>
2000ac6c:	e7f3      	b.n	2000ac56 <flash_do_cmd+0x9e>
2000ac6e:	46c0      	nop			; (mov r8, r8)
2000ac70:	00004649 	.word	0x00004649
2000ac74:	00005845 	.word	0x00005845
2000ac78:	00004346 	.word	0x00004346
2000ac7c:	6d754e0a 	.word	0x6d754e0a
2000ac80:	20726562 	.word	0x20726562
2000ac84:	6c20666f 	.word	0x6c20666f
2000ac88:	73706f6f 	.word	0x73706f6f
2000ac8c:	6425203a 	.word	0x6425203a
2000ac90:	00000000 	.word	0x00000000
2000ac94:	30252020 	.word	0x30252020
2000ac98:	203a6435 	.word	0x203a6435
2000ac9c:	25206325 	.word	0x25206325
2000aca0:	20583230 	.word	0x20583230
2000aca4:	58323025 	.word	0x58323025
2000aca8:	63252020 	.word	0x63252020
2000acac:	00000000 	.word	0x00000000
2000acb0:	3330250a 	.word	0x3330250a
2000acb4:	00203a64 	.word	0x00203a64
2000acb8:	3a63250a 	.word	0x3a63250a
2000acbc:	25202020 	.word	0x25202020
2000acc0:	00000073 	.word	0x00000073
2000acc4:	392d300a 	.word	0x392d300a
2000acc8:	6e45203a 	.word	0x6e45203a
2000accc:	20726574 	.word	0x20726574
2000acd0:	61726170 	.word	0x61726170
2000acd4:	6574656d 	.word	0x6574656d
2000acd8:	69642072 	.word	0x69642072
2000acdc:	00746967 	.word	0x00746967
2000ace0:	7079540a 	.word	0x7079540a
2000ace4:	74732065 	.word	0x74732065
2000ace8:	676e6972 	.word	0x676e6972
2000acec:	646e6120 	.word	0x646e6120
2000acf0:	646e6520 	.word	0x646e6520
2000acf4:	74697720 	.word	0x74697720
2000acf8:	45522068 	.word	0x45522068
2000acfc:	4e525554 	.word	0x4e525554
2000ad00:	002e2e2e 	.word	0x002e2e2e
2000ad04:	6972570a 	.word	0x6972570a
2000ad08:	6e657474 	.word	0x6e657474
2000ad0c:	32302520 	.word	0x32302520
2000ad10:	6f742058 	.word	0x6f742058
2000ad14:	33302520 	.word	0x33302520
2000ad18:	00000a58 	.word	0x00000a58
2000ad1c:	6172450a 	.word	0x6172450a
2000ad20:	676e6973 	.word	0x676e6973
2000ad24:	6f727020 	.word	0x6f727020
2000ad28:	6d617267 	.word	0x6d617267
2000ad2c:	6f6c7320 	.word	0x6f6c7320
2000ad30:	64252074 	.word	0x64252074
2000ad34:	002e2e2e 	.word	0x002e2e2e
2000ad38:	6e6f640a 	.word	0x6e6f640a
2000ad3c:	00002e65 	.word	0x00002e65
2000ad40:	3330250a 	.word	0x3330250a
2000ad44:	00003a64 	.word	0x00003a64
2000ad48:	616c4220 	.word	0x616c4220
2000ad4c:	00006b6e 	.word	0x00006b6e
2000ad50:	3025283f 	.word	0x3025283f
2000ad54:	00297832 	.word	0x00297832
2000ad58:	5320200a 	.word	0x5320200a
2000ad5c:	00202354 	.word	0x00202354
2000ad60:	2043414d 	.word	0x2043414d
2000ad64:	00000000 	.word	0x00000000
2000ad68:	4f544f47 	.word	0x4f544f47
2000ad6c:	00000020 	.word	0x00000020
2000ad70:	23425553 	.word	0x23425553
2000ad74:	00000020 	.word	0x00000020
2000ad78:	54525153 	.word	0x54525153
2000ad7c:	00000020 	.word	0x00000020
2000ad80:	20676f6c 	.word	0x20676f6c
2000ad84:	00000000 	.word	0x00000000
2000ad88:	00206e6c 	.word	0x00206e6c
2000ad8c:	20785e65 	.word	0x20785e65
2000ad90:	00000000 	.word	0x00000000
2000ad94:	20795e78 	.word	0x20795e78
2000ad98:	00000000 	.word	0x00000000
2000ad9c:	785e3031 	.word	0x785e3031
2000ada0:	00000020 	.word	0x00000020
2000ada4:	0000204b 	.word	0x0000204b
2000ada8:	202d2f2b 	.word	0x202d2f2b
2000adac:	00000000 	.word	0x00000000
2000adb0:	20094649 	.word	0x20094649
2000adb4:	00000000 	.word	0x00000000
2000adb8:	20637261 	.word	0x20637261
2000adbc:	00000000 	.word	0x00000000
2000adc0:	206e6973 	.word	0x206e6973
2000adc4:	00000000 	.word	0x00000000
2000adc8:	20736f63 	.word	0x20736f63
2000adcc:	00000000 	.word	0x00000000
2000add0:	206e6174 	.word	0x206e6174
2000add4:	00000000 	.word	0x00000000
2000add8:	00204a4d 	.word	0x00204a4d
2000addc:	00203a20 	.word	0x00203a20
2000ade0:	00204d49 	.word	0x00204d49
2000ade4:	0000203d 	.word	0x0000203d
2000ade8:	20544e45 	.word	0x20544e45
2000adec:	00000000 	.word	0x00000000
2000adf0:	20534e41 	.word	0x20534e41
2000adf4:	00000000 	.word	0x00000000
2000adf8:	00202b4d 	.word	0x00202b4d
2000adfc:	0000202a 	.word	0x0000202a
2000ae00:	0000202f 	.word	0x0000202f
2000ae04:	0000202b 	.word	0x0000202b
2000ae08:	0000202d 	.word	0x0000202d
2000ae0c:	20505845 	.word	0x20505845
2000ae10:	00000000 	.word	0x00000000
2000ae14:	0000202e 	.word	0x0000202e
2000ae18:	00002030 	.word	0x00002030
2000ae1c:	00000031 	.word	0x00000031
2000ae20:	00000032 	.word	0x00000032
2000ae24:	00000033 	.word	0x00000033
2000ae28:	00000034 	.word	0x00000034
2000ae2c:	00000035 	.word	0x00000035
2000ae30:	00000036 	.word	0x00000036
2000ae34:	00000037 	.word	0x00000037
2000ae38:	00000038 	.word	0x00000038
2000ae3c:	00000039 	.word	0x00000039
2000ae40:	79654b0a 	.word	0x79654b0a
2000ae44:	6f727473 	.word	0x6f727473
2000ae48:	3a73656b 	.word	0x3a73656b
2000ae4c:	0a73250a 	.word	0x0a73250a
2000ae50:	00000000 	.word	0x00000000
2000ae54:	20000972 	.word	0x20000972
2000ae58:	2000096a 	.word	0x2000096a
2000ae5c:	2000096a 	.word	0x2000096a
2000ae60:	2000096a 	.word	0x2000096a
2000ae64:	2000096a 	.word	0x2000096a
2000ae68:	2000096a 	.word	0x2000096a
2000ae6c:	2000096a 	.word	0x2000096a
2000ae70:	2000096a 	.word	0x2000096a
2000ae74:	2000096a 	.word	0x2000096a
2000ae78:	2000096a 	.word	0x2000096a
2000ae7c:	2000096a 	.word	0x2000096a
2000ae80:	2000096a 	.word	0x2000096a
2000ae84:	2000096a 	.word	0x2000096a
2000ae88:	2000096a 	.word	0x2000096a
2000ae8c:	2000096a 	.word	0x2000096a
2000ae90:	2000096a 	.word	0x2000096a
2000ae94:	2000096a 	.word	0x2000096a
2000ae98:	2000096a 	.word	0x2000096a
2000ae9c:	2000096a 	.word	0x2000096a
2000aea0:	2000096a 	.word	0x2000096a
2000aea4:	2000096a 	.word	0x2000096a
2000aea8:	2000096a 	.word	0x2000096a
2000aeac:	2000096a 	.word	0x2000096a
2000aeb0:	2000096a 	.word	0x2000096a
2000aeb4:	2000096a 	.word	0x2000096a
2000aeb8:	2000096a 	.word	0x2000096a
2000aebc:	2000096a 	.word	0x2000096a
2000aec0:	2000096a 	.word	0x2000096a
2000aec4:	2000096a 	.word	0x2000096a
2000aec8:	2000096a 	.word	0x2000096a
2000aecc:	2000096a 	.word	0x2000096a
2000aed0:	2000096a 	.word	0x2000096a
2000aed4:	2000096a 	.word	0x2000096a
2000aed8:	2000096a 	.word	0x2000096a
2000aedc:	2000096a 	.word	0x2000096a
2000aee0:	2000096a 	.word	0x2000096a
2000aee4:	2000096a 	.word	0x2000096a
2000aee8:	2000096a 	.word	0x2000096a
2000aeec:	2000096a 	.word	0x2000096a
2000aef0:	2000096a 	.word	0x2000096a
2000aef4:	2000096a 	.word	0x2000096a
2000aef8:	2000096a 	.word	0x2000096a
2000aefc:	2000096a 	.word	0x2000096a
2000af00:	2000096a 	.word	0x2000096a
2000af04:	2000096a 	.word	0x2000096a
2000af08:	2000096a 	.word	0x2000096a
2000af0c:	2000096a 	.word	0x2000096a
2000af10:	2000096a 	.word	0x2000096a
2000af14:	2000096a 	.word	0x2000096a
2000af18:	2000096a 	.word	0x2000096a
2000af1c:	2000096a 	.word	0x2000096a
2000af20:	2000096a 	.word	0x2000096a
2000af24:	2000096a 	.word	0x2000096a
2000af28:	2000096a 	.word	0x2000096a
2000af2c:	2000096a 	.word	0x2000096a
2000af30:	2000096a 	.word	0x2000096a
2000af34:	2000096a 	.word	0x2000096a
2000af38:	2000096a 	.word	0x2000096a
2000af3c:	2000096a 	.word	0x2000096a
2000af40:	2000096a 	.word	0x2000096a
2000af44:	2000096a 	.word	0x2000096a
2000af48:	2000096a 	.word	0x2000096a
2000af4c:	2000096a 	.word	0x2000096a
2000af50:	2000096a 	.word	0x2000096a
2000af54:	2000096a 	.word	0x2000096a
2000af58:	2000096a 	.word	0x2000096a
2000af5c:	2000096a 	.word	0x2000096a
2000af60:	2000096a 	.word	0x2000096a
2000af64:	2000096a 	.word	0x2000096a
2000af68:	2000096a 	.word	0x2000096a
2000af6c:	2000096a 	.word	0x2000096a
2000af70:	2000096a 	.word	0x2000096a
2000af74:	2000096a 	.word	0x2000096a
2000af78:	2000096a 	.word	0x2000096a
2000af7c:	2000096a 	.word	0x2000096a
2000af80:	2000096a 	.word	0x2000096a
2000af84:	2000096a 	.word	0x2000096a
2000af88:	2000096a 	.word	0x2000096a
2000af8c:	2000096a 	.word	0x2000096a
2000af90:	2000096a 	.word	0x2000096a
2000af94:	2000096a 	.word	0x2000096a
2000af98:	2000096a 	.word	0x2000096a
2000af9c:	2000096a 	.word	0x2000096a
2000afa0:	2000096a 	.word	0x2000096a
2000afa4:	2000096a 	.word	0x2000096a
2000afa8:	2000096a 	.word	0x2000096a
2000afac:	2000096a 	.word	0x2000096a
2000afb0:	2000096a 	.word	0x2000096a
2000afb4:	2000096a 	.word	0x2000096a
2000afb8:	2000096a 	.word	0x2000096a
2000afbc:	2000096a 	.word	0x2000096a
2000afc0:	2000096a 	.word	0x2000096a
2000afc4:	2000096a 	.word	0x2000096a
2000afc8:	2000096a 	.word	0x2000096a
2000afcc:	2000096a 	.word	0x2000096a
2000afd0:	2000096a 	.word	0x2000096a
2000afd4:	2000096a 	.word	0x2000096a
2000afd8:	2000096a 	.word	0x2000096a
2000afdc:	2000096a 	.word	0x2000096a
2000afe0:	2000096a 	.word	0x2000096a
2000afe4:	2000096a 	.word	0x2000096a
2000afe8:	2000096a 	.word	0x2000096a
2000afec:	2000096a 	.word	0x2000096a
2000aff0:	2000096a 	.word	0x2000096a
2000aff4:	2000096a 	.word	0x2000096a
2000aff8:	2000096a 	.word	0x2000096a
2000affc:	2000096a 	.word	0x2000096a
2000b000:	2000096a 	.word	0x2000096a
2000b004:	2000096a 	.word	0x2000096a
2000b008:	2000096a 	.word	0x2000096a
2000b00c:	2000096a 	.word	0x2000096a
2000b010:	2000096a 	.word	0x2000096a
2000b014:	2000096a 	.word	0x2000096a
2000b018:	2000096a 	.word	0x2000096a
2000b01c:	2000096a 	.word	0x2000096a
2000b020:	2000096a 	.word	0x2000096a
2000b024:	2000096a 	.word	0x2000096a
2000b028:	2000096a 	.word	0x2000096a
2000b02c:	2000096a 	.word	0x2000096a
2000b030:	2000096a 	.word	0x2000096a
2000b034:	2000096a 	.word	0x2000096a
2000b038:	2000096a 	.word	0x2000096a
2000b03c:	2000096a 	.word	0x2000096a
2000b040:	2000096a 	.word	0x2000096a
2000b044:	2000096a 	.word	0x2000096a
2000b048:	2000096a 	.word	0x2000096a
2000b04c:	2000096a 	.word	0x2000096a
2000b050:	2000096a 	.word	0x2000096a
2000b054:	2000096a 	.word	0x2000096a
2000b058:	2000096a 	.word	0x2000096a
2000b05c:	2000096a 	.word	0x2000096a
2000b060:	2000096a 	.word	0x2000096a
2000b064:	2000096a 	.word	0x2000096a
2000b068:	2000096a 	.word	0x2000096a
2000b06c:	2000096a 	.word	0x2000096a
2000b070:	2000096a 	.word	0x2000096a
2000b074:	2000096a 	.word	0x2000096a
2000b078:	2000096a 	.word	0x2000096a
2000b07c:	2000096a 	.word	0x2000096a
2000b080:	2000096a 	.word	0x2000096a
2000b084:	2000096a 	.word	0x2000096a
2000b088:	2000096a 	.word	0x2000096a
2000b08c:	2000096a 	.word	0x2000096a
2000b090:	2000096a 	.word	0x2000096a
2000b094:	2000096a 	.word	0x2000096a
2000b098:	2000096a 	.word	0x2000096a
2000b09c:	2000096a 	.word	0x2000096a
2000b0a0:	2000096a 	.word	0x2000096a
2000b0a4:	2000096a 	.word	0x2000096a
2000b0a8:	2000096a 	.word	0x2000096a
2000b0ac:	2000096a 	.word	0x2000096a
2000b0b0:	2000096a 	.word	0x2000096a
2000b0b4:	2000096a 	.word	0x2000096a
2000b0b8:	2000096a 	.word	0x2000096a
2000b0bc:	2000096a 	.word	0x2000096a
2000b0c0:	2000096a 	.word	0x2000096a
2000b0c4:	2000096a 	.word	0x2000096a
2000b0c8:	2000096a 	.word	0x2000096a
2000b0cc:	2000096a 	.word	0x2000096a
2000b0d0:	2000096a 	.word	0x2000096a
2000b0d4:	2000096a 	.word	0x2000096a
2000b0d8:	200009b4 	.word	0x200009b4
2000b0dc:	20000a38 	.word	0x20000a38
2000b0e0:	20000a2c 	.word	0x20000a2c
2000b0e4:	20000a68 	.word	0x20000a68
2000b0e8:	20000a5c 	.word	0x20000a5c
2000b0ec:	20000a50 	.word	0x20000a50
2000b0f0:	20000a44 	.word	0x20000a44
2000b0f4:	2000096a 	.word	0x2000096a
2000b0f8:	2000096a 	.word	0x2000096a
2000b0fc:	2000096a 	.word	0x2000096a
2000b100:	2000096a 	.word	0x2000096a
2000b104:	2000096a 	.word	0x2000096a
2000b108:	2000096a 	.word	0x2000096a
2000b10c:	2000096a 	.word	0x2000096a
2000b110:	2000096a 	.word	0x2000096a
2000b114:	2000096a 	.word	0x2000096a
2000b118:	20000ac8 	.word	0x20000ac8
2000b11c:	20000abc 	.word	0x20000abc
2000b120:	20000ab0 	.word	0x20000ab0
2000b124:	20000aa4 	.word	0x20000aa4
2000b128:	20000a98 	.word	0x20000a98
2000b12c:	20000a8c 	.word	0x20000a8c
2000b130:	2000096a 	.word	0x2000096a
2000b134:	2000096a 	.word	0x2000096a
2000b138:	2000096a 	.word	0x2000096a
2000b13c:	2000096a 	.word	0x2000096a
2000b140:	2000096a 	.word	0x2000096a
2000b144:	2000096a 	.word	0x2000096a
2000b148:	2000096a 	.word	0x2000096a
2000b14c:	2000096a 	.word	0x2000096a
2000b150:	2000096a 	.word	0x2000096a
2000b154:	2000096a 	.word	0x2000096a
2000b158:	20000a80 	.word	0x20000a80
2000b15c:	20000a74 	.word	0x20000a74
2000b160:	20000b88 	.word	0x20000b88
2000b164:	20000b7c 	.word	0x20000b7c
2000b168:	20000b70 	.word	0x20000b70
2000b16c:	20000b64 	.word	0x20000b64
2000b170:	2000096a 	.word	0x2000096a
2000b174:	2000096a 	.word	0x2000096a
2000b178:	2000096a 	.word	0x2000096a
2000b17c:	2000096a 	.word	0x2000096a
2000b180:	2000096a 	.word	0x2000096a
2000b184:	2000096a 	.word	0x2000096a
2000b188:	2000096a 	.word	0x2000096a
2000b18c:	2000096a 	.word	0x2000096a
2000b190:	2000096a 	.word	0x2000096a
2000b194:	20000b58 	.word	0x20000b58
2000b198:	20000b4c 	.word	0x20000b4c
2000b19c:	20000b40 	.word	0x20000b40
2000b1a0:	20000b34 	.word	0x20000b34
2000b1a4:	20000b28 	.word	0x20000b28
2000b1a8:	20000b1c 	.word	0x20000b1c
2000b1ac:	20000b10 	.word	0x20000b10
2000b1b0:	20000b04 	.word	0x20000b04
2000b1b4:	20000af8 	.word	0x20000af8
2000b1b8:	20000aec 	.word	0x20000aec
2000b1bc:	2000096a 	.word	0x2000096a
2000b1c0:	2000096a 	.word	0x2000096a
2000b1c4:	2000096a 	.word	0x2000096a
2000b1c8:	20000ae0 	.word	0x20000ae0
2000b1cc:	2000096a 	.word	0x2000096a
2000b1d0:	2000096a 	.word	0x2000096a
2000b1d4:	2000096a 	.word	0x2000096a
2000b1d8:	2000096a 	.word	0x2000096a
2000b1dc:	2000096a 	.word	0x2000096a
2000b1e0:	2000096a 	.word	0x2000096a
2000b1e4:	2000096a 	.word	0x2000096a
2000b1e8:	2000096a 	.word	0x2000096a
2000b1ec:	2000096a 	.word	0x2000096a
2000b1f0:	2000096a 	.word	0x2000096a
2000b1f4:	2000096a 	.word	0x2000096a
2000b1f8:	2000096a 	.word	0x2000096a
2000b1fc:	2000096a 	.word	0x2000096a
2000b200:	2000096a 	.word	0x2000096a
2000b204:	2000096a 	.word	0x2000096a
2000b208:	2000096a 	.word	0x2000096a
2000b20c:	2000096a 	.word	0x2000096a
2000b210:	2000096a 	.word	0x2000096a
2000b214:	20000ad4 	.word	0x20000ad4
2000b218:	20000a14 	.word	0x20000a14
2000b21c:	20000a08 	.word	0x20000a08
2000b220:	200009fc 	.word	0x200009fc
2000b224:	200009f0 	.word	0x200009f0
2000b228:	200009e4 	.word	0x200009e4
2000b22c:	200009d8 	.word	0x200009d8
2000b230:	200009cc 	.word	0x200009cc
2000b234:	200009c0 	.word	0x200009c0
2000b238:	20000a20 	.word	0x20000a20
2000b23c:	616f4c0a 	.word	0x616f4c0a
2000b240:	676e6964 	.word	0x676e6964
2000b244:	6d656d20 	.word	0x6d656d20
2000b248:	6569726f 	.word	0x6569726f
2000b24c:	72662073 	.word	0x72662073
2000b250:	66206d6f 	.word	0x66206d6f
2000b254:	6873616c 	.word	0x6873616c
2000b258:	6f6c7320 	.word	0x6f6c7320
2000b25c:	30252074 	.word	0x30252074
2000b260:	00006433 	.word	0x00006433
2000b264:	616f4c0a 	.word	0x616f4c0a
2000b268:	676e6964 	.word	0x676e6964
2000b26c:	6f727020 	.word	0x6f727020
2000b270:	6d617267 	.word	0x6d617267
2000b274:	6f726620 	.word	0x6f726620
2000b278:	6c66206d 	.word	0x6c66206d
2000b27c:	20687361 	.word	0x20687361
2000b280:	746f6c73 	.word	0x746f6c73
2000b284:	33302520 	.word	0x33302520
2000b288:	00000064 	.word	0x00000064
2000b28c:	656c430a 	.word	0x656c430a
2000b290:	6e697261 	.word	0x6e697261
2000b294:	656d2067 	.word	0x656d2067
2000b298:	69726f6d 	.word	0x69726f6d
2000b29c:	00007365 	.word	0x00007365
2000b2a0:	656c430a 	.word	0x656c430a
2000b2a4:	6e697261 	.word	0x6e697261
2000b2a8:	72702067 	.word	0x72702067
2000b2ac:	6172676f 	.word	0x6172676f
2000b2b0:	0000006d 	.word	0x0000006d
2000b2b4:	6d654d0a 	.word	0x6d654d0a
2000b2b8:	6569726f 	.word	0x6569726f
2000b2bc:	726f2073 	.word	0x726f2073
2000b2c0:	6f725020 	.word	0x6f725020
2000b2c4:	6d617267 	.word	0x6d617267
2000b2c8:	2f4d2820 	.word	0x2f4d2820
2000b2cc:	003f2950 	.word	0x003f2950
2000b2d0:	6972570a 	.word	0x6972570a
2000b2d4:	676e6974 	.word	0x676e6974
2000b2d8:	6d656d20 	.word	0x6d656d20
2000b2dc:	2079726f 	.word	0x2079726f
2000b2e0:	61746164 	.word	0x61746164
2000b2e4:	206f7420 	.word	0x206f7420
2000b2e8:	746f6c73 	.word	0x746f6c73
2000b2ec:	00642520 	.word	0x00642520
2000b2f0:	6972570a 	.word	0x6972570a
2000b2f4:	676e6974 	.word	0x676e6974
2000b2f8:	6f727020 	.word	0x6f727020
2000b2fc:	6d617267 	.word	0x6d617267
2000b300:	74616420 	.word	0x74616420
2000b304:	6f742061 	.word	0x6f742061
2000b308:	6f6c7320 	.word	0x6f6c7320
2000b30c:	64252074 	.word	0x64252074
2000b310:	00000000 	.word	0x00000000
2000b314:	7461440a 	.word	0x7461440a
2000b318:	72772061 	.word	0x72772061
2000b31c:	65747469 	.word	0x65747469
2000b320:	0000006e 	.word	0x0000006e
2000b324:	6769530a 	.word	0x6769530a
2000b328:	64253a6e 	.word	0x64253a6e
2000b32c:	00000000 	.word	0x00000000
2000b330:	7078450a 	.word	0x7078450a
2000b334:	6e656e6f 	.word	0x6e656e6f
2000b338:	67253a74 	.word	0x67253a74
2000b33c:	00000000 	.word	0x00000000
2000b340:	6769530a 	.word	0x6769530a
2000b344:	7962206e 	.word	0x7962206e
2000b348:	253a6574 	.word	0x253a6574
2000b34c:	00583230 	.word	0x00583230
2000b350:	6170640a 	.word	0x6170640a
2000b354:	203a7269 	.word	0x203a7269
2000b358:	56206725 	.word	0x56206725
2000b35c:	65756c61 	.word	0x65756c61
2000b360:	0067253a 	.word	0x0067253a
2000b364:	30257325 	.word	0x30257325
2000b368:	252e6432 	.word	0x252e6432
2000b36c:	25643230 	.word	0x25643230
2000b370:	25643230 	.word	0x25643230
2000b374:	25643230 	.word	0x25643230
2000b378:	25643230 	.word	0x25643230
2000b37c:	20643230 	.word	0x20643230
2000b380:	25457325 	.word	0x25457325
2000b384:	00643230 	.word	0x00643230
2000b388:	20202020 	.word	0x20202020
2000b38c:	706d754a 	.word	0x706d754a
2000b390:	646e4920 	.word	0x646e4920
2000b394:	73656369 	.word	0x73656369
2000b398:	00000000 	.word	0x00000000
2000b39c:	20202020 	.word	0x20202020
2000b3a0:	3230254d 	.word	0x3230254d
2000b3a4:	73252064 	.word	0x73252064
2000b3a8:	676c2520 	.word	0x676c2520
2000b3ac:	00000000 	.word	0x00000000
2000b3b0:	3330250a 	.word	0x3330250a
2000b3b4:	00203a58 	.word	0x00203a58
2000b3b8:	58323025 	.word	0x58323025
2000b3bc:	00000020 	.word	0x00000020
2000b3c0:	200017c4 	.word	0x200017c4
2000b3c4:	200017bc 	.word	0x200017bc
2000b3c8:	200017bc 	.word	0x200017bc
2000b3cc:	200017bc 	.word	0x200017bc
2000b3d0:	200017bc 	.word	0x200017bc
2000b3d4:	200017bc 	.word	0x200017bc
2000b3d8:	200017bc 	.word	0x200017bc
2000b3dc:	200017bc 	.word	0x200017bc
2000b3e0:	200017bc 	.word	0x200017bc
2000b3e4:	200017bc 	.word	0x200017bc
2000b3e8:	200017bc 	.word	0x200017bc
2000b3ec:	200017bc 	.word	0x200017bc
2000b3f0:	200017bc 	.word	0x200017bc
2000b3f4:	200017bc 	.word	0x200017bc
2000b3f8:	200017bc 	.word	0x200017bc
2000b3fc:	200017bc 	.word	0x200017bc
2000b400:	200017bc 	.word	0x200017bc
2000b404:	200017bc 	.word	0x200017bc
2000b408:	200017bc 	.word	0x200017bc
2000b40c:	200017bc 	.word	0x200017bc
2000b410:	200017bc 	.word	0x200017bc
2000b414:	200017bc 	.word	0x200017bc
2000b418:	200017bc 	.word	0x200017bc
2000b41c:	200017bc 	.word	0x200017bc
2000b420:	200017bc 	.word	0x200017bc
2000b424:	200017bc 	.word	0x200017bc
2000b428:	200017bc 	.word	0x200017bc
2000b42c:	200017bc 	.word	0x200017bc
2000b430:	200017bc 	.word	0x200017bc
2000b434:	200017bc 	.word	0x200017bc
2000b438:	200017bc 	.word	0x200017bc
2000b43c:	200017bc 	.word	0x200017bc
2000b440:	200017bc 	.word	0x200017bc
2000b444:	200017bc 	.word	0x200017bc
2000b448:	200017bc 	.word	0x200017bc
2000b44c:	200017bc 	.word	0x200017bc
2000b450:	200017bc 	.word	0x200017bc
2000b454:	200017bc 	.word	0x200017bc
2000b458:	200017bc 	.word	0x200017bc
2000b45c:	200017bc 	.word	0x200017bc
2000b460:	200017bc 	.word	0x200017bc
2000b464:	200017bc 	.word	0x200017bc
2000b468:	200017bc 	.word	0x200017bc
2000b46c:	200017bc 	.word	0x200017bc
2000b470:	200017bc 	.word	0x200017bc
2000b474:	200017bc 	.word	0x200017bc
2000b478:	200017bc 	.word	0x200017bc
2000b47c:	200017bc 	.word	0x200017bc
2000b480:	200017bc 	.word	0x200017bc
2000b484:	200017bc 	.word	0x200017bc
2000b488:	200017bc 	.word	0x200017bc
2000b48c:	200017bc 	.word	0x200017bc
2000b490:	200017bc 	.word	0x200017bc
2000b494:	200017bc 	.word	0x200017bc
2000b498:	200017bc 	.word	0x200017bc
2000b49c:	200017bc 	.word	0x200017bc
2000b4a0:	200017bc 	.word	0x200017bc
2000b4a4:	200017bc 	.word	0x200017bc
2000b4a8:	200017bc 	.word	0x200017bc
2000b4ac:	200017bc 	.word	0x200017bc
2000b4b0:	200017bc 	.word	0x200017bc
2000b4b4:	200017bc 	.word	0x200017bc
2000b4b8:	200017bc 	.word	0x200017bc
2000b4bc:	200017bc 	.word	0x200017bc
2000b4c0:	200017bc 	.word	0x200017bc
2000b4c4:	200017bc 	.word	0x200017bc
2000b4c8:	200017bc 	.word	0x200017bc
2000b4cc:	200017bc 	.word	0x200017bc
2000b4d0:	200017bc 	.word	0x200017bc
2000b4d4:	200017bc 	.word	0x200017bc
2000b4d8:	200017bc 	.word	0x200017bc
2000b4dc:	200017bc 	.word	0x200017bc
2000b4e0:	200017bc 	.word	0x200017bc
2000b4e4:	200017bc 	.word	0x200017bc
2000b4e8:	200017bc 	.word	0x200017bc
2000b4ec:	200017bc 	.word	0x200017bc
2000b4f0:	200017bc 	.word	0x200017bc
2000b4f4:	200017bc 	.word	0x200017bc
2000b4f8:	200017bc 	.word	0x200017bc
2000b4fc:	200017bc 	.word	0x200017bc
2000b500:	200017bc 	.word	0x200017bc
2000b504:	200017bc 	.word	0x200017bc
2000b508:	200017bc 	.word	0x200017bc
2000b50c:	200017bc 	.word	0x200017bc
2000b510:	200017bc 	.word	0x200017bc
2000b514:	200017bc 	.word	0x200017bc
2000b518:	200017bc 	.word	0x200017bc
2000b51c:	200017bc 	.word	0x200017bc
2000b520:	200017bc 	.word	0x200017bc
2000b524:	200017bc 	.word	0x200017bc
2000b528:	200017bc 	.word	0x200017bc
2000b52c:	200017bc 	.word	0x200017bc
2000b530:	200017bc 	.word	0x200017bc
2000b534:	200017bc 	.word	0x200017bc
2000b538:	200017bc 	.word	0x200017bc
2000b53c:	200017bc 	.word	0x200017bc
2000b540:	200017bc 	.word	0x200017bc
2000b544:	200017bc 	.word	0x200017bc
2000b548:	200017bc 	.word	0x200017bc
2000b54c:	200017bc 	.word	0x200017bc
2000b550:	200017bc 	.word	0x200017bc
2000b554:	200017bc 	.word	0x200017bc
2000b558:	200017bc 	.word	0x200017bc
2000b55c:	200017bc 	.word	0x200017bc
2000b560:	200017bc 	.word	0x200017bc
2000b564:	200017bc 	.word	0x200017bc
2000b568:	200017bc 	.word	0x200017bc
2000b56c:	200017bc 	.word	0x200017bc
2000b570:	200017bc 	.word	0x200017bc
2000b574:	200017bc 	.word	0x200017bc
2000b578:	200017bc 	.word	0x200017bc
2000b57c:	200017bc 	.word	0x200017bc
2000b580:	200017bc 	.word	0x200017bc
2000b584:	200017bc 	.word	0x200017bc
2000b588:	200017bc 	.word	0x200017bc
2000b58c:	200017bc 	.word	0x200017bc
2000b590:	200017bc 	.word	0x200017bc
2000b594:	200017bc 	.word	0x200017bc
2000b598:	200017bc 	.word	0x200017bc
2000b59c:	200017bc 	.word	0x200017bc
2000b5a0:	200017bc 	.word	0x200017bc
2000b5a4:	200017bc 	.word	0x200017bc
2000b5a8:	200017bc 	.word	0x200017bc
2000b5ac:	200017bc 	.word	0x200017bc
2000b5b0:	200017bc 	.word	0x200017bc
2000b5b4:	200017bc 	.word	0x200017bc
2000b5b8:	200017bc 	.word	0x200017bc
2000b5bc:	200017bc 	.word	0x200017bc
2000b5c0:	200017bc 	.word	0x200017bc
2000b5c4:	200017bc 	.word	0x200017bc
2000b5c8:	200017bc 	.word	0x200017bc
2000b5cc:	200017bc 	.word	0x200017bc
2000b5d0:	200017bc 	.word	0x200017bc
2000b5d4:	200017bc 	.word	0x200017bc
2000b5d8:	200017bc 	.word	0x200017bc
2000b5dc:	200017bc 	.word	0x200017bc
2000b5e0:	200017bc 	.word	0x200017bc
2000b5e4:	200017bc 	.word	0x200017bc
2000b5e8:	200017bc 	.word	0x200017bc
2000b5ec:	200017bc 	.word	0x200017bc
2000b5f0:	200017bc 	.word	0x200017bc
2000b5f4:	200017bc 	.word	0x200017bc
2000b5f8:	200017bc 	.word	0x200017bc
2000b5fc:	200017bc 	.word	0x200017bc
2000b600:	200017bc 	.word	0x200017bc
2000b604:	200017bc 	.word	0x200017bc
2000b608:	200017bc 	.word	0x200017bc
2000b60c:	200017bc 	.word	0x200017bc
2000b610:	200017bc 	.word	0x200017bc
2000b614:	200017bc 	.word	0x200017bc
2000b618:	200017bc 	.word	0x200017bc
2000b61c:	200017bc 	.word	0x200017bc
2000b620:	200017bc 	.word	0x200017bc
2000b624:	200017bc 	.word	0x200017bc
2000b628:	200017bc 	.word	0x200017bc
2000b62c:	200017bc 	.word	0x200017bc
2000b630:	200017bc 	.word	0x200017bc
2000b634:	200017bc 	.word	0x200017bc
2000b638:	200017bc 	.word	0x200017bc
2000b63c:	200017bc 	.word	0x200017bc
2000b640:	200017bc 	.word	0x200017bc
2000b644:	200019ac 	.word	0x200019ac
2000b648:	200019b8 	.word	0x200019b8
2000b64c:	200019a0 	.word	0x200019a0
2000b650:	20001994 	.word	0x20001994
2000b654:	20001988 	.word	0x20001988
2000b658:	2000197c 	.word	0x2000197c
2000b65c:	20001970 	.word	0x20001970
2000b660:	200017bc 	.word	0x200017bc
2000b664:	200017bc 	.word	0x200017bc
2000b668:	200017bc 	.word	0x200017bc
2000b66c:	200017bc 	.word	0x200017bc
2000b670:	200017bc 	.word	0x200017bc
2000b674:	200017bc 	.word	0x200017bc
2000b678:	200017bc 	.word	0x200017bc
2000b67c:	200017bc 	.word	0x200017bc
2000b680:	200017bc 	.word	0x200017bc
2000b684:	20001964 	.word	0x20001964
2000b688:	20001958 	.word	0x20001958
2000b68c:	2000194c 	.word	0x2000194c
2000b690:	20001940 	.word	0x20001940
2000b694:	20001934 	.word	0x20001934
2000b698:	20001928 	.word	0x20001928
2000b69c:	200017bc 	.word	0x200017bc
2000b6a0:	200017bc 	.word	0x200017bc
2000b6a4:	200017bc 	.word	0x200017bc
2000b6a8:	200017bc 	.word	0x200017bc
2000b6ac:	200017bc 	.word	0x200017bc
2000b6b0:	200017bc 	.word	0x200017bc
2000b6b4:	200017bc 	.word	0x200017bc
2000b6b8:	200017bc 	.word	0x200017bc
2000b6bc:	200017bc 	.word	0x200017bc
2000b6c0:	200017bc 	.word	0x200017bc
2000b6c4:	2000191c 	.word	0x2000191c
2000b6c8:	20001910 	.word	0x20001910
2000b6cc:	20001904 	.word	0x20001904
2000b6d0:	200018f8 	.word	0x200018f8
2000b6d4:	200018ec 	.word	0x200018ec
2000b6d8:	200018e0 	.word	0x200018e0
2000b6dc:	200017bc 	.word	0x200017bc
2000b6e0:	200017bc 	.word	0x200017bc
2000b6e4:	200017bc 	.word	0x200017bc
2000b6e8:	200017bc 	.word	0x200017bc
2000b6ec:	200017bc 	.word	0x200017bc
2000b6f0:	200017bc 	.word	0x200017bc
2000b6f4:	200017bc 	.word	0x200017bc
2000b6f8:	200017bc 	.word	0x200017bc
2000b6fc:	200017bc 	.word	0x200017bc
2000b700:	200018d4 	.word	0x200018d4
2000b704:	200018c8 	.word	0x200018c8
2000b708:	200018bc 	.word	0x200018bc
2000b70c:	200018b0 	.word	0x200018b0
2000b710:	200018a4 	.word	0x200018a4
2000b714:	20001898 	.word	0x20001898
2000b718:	2000188c 	.word	0x2000188c
2000b71c:	20001880 	.word	0x20001880
2000b720:	20001874 	.word	0x20001874
2000b724:	20001868 	.word	0x20001868
2000b728:	200017bc 	.word	0x200017bc
2000b72c:	200017bc 	.word	0x200017bc
2000b730:	200017bc 	.word	0x200017bc
2000b734:	2000185c 	.word	0x2000185c
2000b738:	200017bc 	.word	0x200017bc
2000b73c:	200017bc 	.word	0x200017bc
2000b740:	200017bc 	.word	0x200017bc
2000b744:	200017bc 	.word	0x200017bc
2000b748:	200017bc 	.word	0x200017bc
2000b74c:	200017bc 	.word	0x200017bc
2000b750:	200017bc 	.word	0x200017bc
2000b754:	200017bc 	.word	0x200017bc
2000b758:	200017bc 	.word	0x200017bc
2000b75c:	200017bc 	.word	0x200017bc
2000b760:	200017bc 	.word	0x200017bc
2000b764:	200017bc 	.word	0x200017bc
2000b768:	200017bc 	.word	0x200017bc
2000b76c:	200017bc 	.word	0x200017bc
2000b770:	200017bc 	.word	0x200017bc
2000b774:	200017bc 	.word	0x200017bc
2000b778:	200017bc 	.word	0x200017bc
2000b77c:	200017bc 	.word	0x200017bc
2000b780:	20001850 	.word	0x20001850
2000b784:	20001844 	.word	0x20001844
2000b788:	20001838 	.word	0x20001838
2000b78c:	2000182c 	.word	0x2000182c
2000b790:	20001820 	.word	0x20001820
2000b794:	20001814 	.word	0x20001814
2000b798:	20001808 	.word	0x20001808
2000b79c:	200017fc 	.word	0x200017fc
2000b7a0:	200017f0 	.word	0x200017f0
2000b7a4:	200017e4 	.word	0x200017e4
2000b7a8:	6f6c530a 	.word	0x6f6c530a
2000b7ac:	64252074 	.word	0x64252074
2000b7b0:	0000000a 	.word	0x0000000a
2000b7b4:	20001ae4 	.word	0x20001ae4
2000b7b8:	20001adc 	.word	0x20001adc
2000b7bc:	20001adc 	.word	0x20001adc
2000b7c0:	20001adc 	.word	0x20001adc
2000b7c4:	20001adc 	.word	0x20001adc
2000b7c8:	20001adc 	.word	0x20001adc
2000b7cc:	20001adc 	.word	0x20001adc
2000b7d0:	20001adc 	.word	0x20001adc
2000b7d4:	20001adc 	.word	0x20001adc
2000b7d8:	20001adc 	.word	0x20001adc
2000b7dc:	20001adc 	.word	0x20001adc
2000b7e0:	20001adc 	.word	0x20001adc
2000b7e4:	20001adc 	.word	0x20001adc
2000b7e8:	20001adc 	.word	0x20001adc
2000b7ec:	20001adc 	.word	0x20001adc
2000b7f0:	20001adc 	.word	0x20001adc
2000b7f4:	20001adc 	.word	0x20001adc
2000b7f8:	20001adc 	.word	0x20001adc
2000b7fc:	20001adc 	.word	0x20001adc
2000b800:	20001adc 	.word	0x20001adc
2000b804:	20001adc 	.word	0x20001adc
2000b808:	20001adc 	.word	0x20001adc
2000b80c:	20001adc 	.word	0x20001adc
2000b810:	20001adc 	.word	0x20001adc
2000b814:	20001adc 	.word	0x20001adc
2000b818:	20001adc 	.word	0x20001adc
2000b81c:	20001adc 	.word	0x20001adc
2000b820:	20001adc 	.word	0x20001adc
2000b824:	20001adc 	.word	0x20001adc
2000b828:	20001adc 	.word	0x20001adc
2000b82c:	20001adc 	.word	0x20001adc
2000b830:	20001adc 	.word	0x20001adc
2000b834:	20001adc 	.word	0x20001adc
2000b838:	20001adc 	.word	0x20001adc
2000b83c:	20001adc 	.word	0x20001adc
2000b840:	20001adc 	.word	0x20001adc
2000b844:	20001adc 	.word	0x20001adc
2000b848:	20001adc 	.word	0x20001adc
2000b84c:	20001adc 	.word	0x20001adc
2000b850:	20001adc 	.word	0x20001adc
2000b854:	20001adc 	.word	0x20001adc
2000b858:	20001adc 	.word	0x20001adc
2000b85c:	20001adc 	.word	0x20001adc
2000b860:	20001adc 	.word	0x20001adc
2000b864:	20001adc 	.word	0x20001adc
2000b868:	20001adc 	.word	0x20001adc
2000b86c:	20001adc 	.word	0x20001adc
2000b870:	20001adc 	.word	0x20001adc
2000b874:	20001adc 	.word	0x20001adc
2000b878:	20001adc 	.word	0x20001adc
2000b87c:	20001adc 	.word	0x20001adc
2000b880:	20001adc 	.word	0x20001adc
2000b884:	20001adc 	.word	0x20001adc
2000b888:	20001adc 	.word	0x20001adc
2000b88c:	20001adc 	.word	0x20001adc
2000b890:	20001adc 	.word	0x20001adc
2000b894:	20001adc 	.word	0x20001adc
2000b898:	20001adc 	.word	0x20001adc
2000b89c:	20001adc 	.word	0x20001adc
2000b8a0:	20001adc 	.word	0x20001adc
2000b8a4:	20001adc 	.word	0x20001adc
2000b8a8:	20001adc 	.word	0x20001adc
2000b8ac:	20001adc 	.word	0x20001adc
2000b8b0:	20001adc 	.word	0x20001adc
2000b8b4:	20001adc 	.word	0x20001adc
2000b8b8:	20001adc 	.word	0x20001adc
2000b8bc:	20001adc 	.word	0x20001adc
2000b8c0:	20001adc 	.word	0x20001adc
2000b8c4:	20001adc 	.word	0x20001adc
2000b8c8:	20001adc 	.word	0x20001adc
2000b8cc:	20001adc 	.word	0x20001adc
2000b8d0:	20001adc 	.word	0x20001adc
2000b8d4:	20001adc 	.word	0x20001adc
2000b8d8:	20001adc 	.word	0x20001adc
2000b8dc:	20001adc 	.word	0x20001adc
2000b8e0:	20001adc 	.word	0x20001adc
2000b8e4:	20001adc 	.word	0x20001adc
2000b8e8:	20001adc 	.word	0x20001adc
2000b8ec:	20001adc 	.word	0x20001adc
2000b8f0:	20001adc 	.word	0x20001adc
2000b8f4:	20001adc 	.word	0x20001adc
2000b8f8:	20001adc 	.word	0x20001adc
2000b8fc:	20001adc 	.word	0x20001adc
2000b900:	20001adc 	.word	0x20001adc
2000b904:	20001adc 	.word	0x20001adc
2000b908:	20001adc 	.word	0x20001adc
2000b90c:	20001adc 	.word	0x20001adc
2000b910:	20001adc 	.word	0x20001adc
2000b914:	20001adc 	.word	0x20001adc
2000b918:	20001adc 	.word	0x20001adc
2000b91c:	20001adc 	.word	0x20001adc
2000b920:	20001adc 	.word	0x20001adc
2000b924:	20001adc 	.word	0x20001adc
2000b928:	20001adc 	.word	0x20001adc
2000b92c:	20001adc 	.word	0x20001adc
2000b930:	20001adc 	.word	0x20001adc
2000b934:	20001adc 	.word	0x20001adc
2000b938:	20001adc 	.word	0x20001adc
2000b93c:	20001adc 	.word	0x20001adc
2000b940:	20001adc 	.word	0x20001adc
2000b944:	20001adc 	.word	0x20001adc
2000b948:	20001adc 	.word	0x20001adc
2000b94c:	20001adc 	.word	0x20001adc
2000b950:	20001adc 	.word	0x20001adc
2000b954:	20001adc 	.word	0x20001adc
2000b958:	20001adc 	.word	0x20001adc
2000b95c:	20001adc 	.word	0x20001adc
2000b960:	20001adc 	.word	0x20001adc
2000b964:	20001adc 	.word	0x20001adc
2000b968:	20001adc 	.word	0x20001adc
2000b96c:	20001adc 	.word	0x20001adc
2000b970:	20001adc 	.word	0x20001adc
2000b974:	20001adc 	.word	0x20001adc
2000b978:	20001adc 	.word	0x20001adc
2000b97c:	20001adc 	.word	0x20001adc
2000b980:	20001adc 	.word	0x20001adc
2000b984:	20001adc 	.word	0x20001adc
2000b988:	20001adc 	.word	0x20001adc
2000b98c:	20001adc 	.word	0x20001adc
2000b990:	20001adc 	.word	0x20001adc
2000b994:	20001adc 	.word	0x20001adc
2000b998:	20001adc 	.word	0x20001adc
2000b99c:	20001adc 	.word	0x20001adc
2000b9a0:	20001adc 	.word	0x20001adc
2000b9a4:	20001adc 	.word	0x20001adc
2000b9a8:	20001adc 	.word	0x20001adc
2000b9ac:	20001adc 	.word	0x20001adc
2000b9b0:	20001adc 	.word	0x20001adc
2000b9b4:	20001adc 	.word	0x20001adc
2000b9b8:	20001adc 	.word	0x20001adc
2000b9bc:	20001adc 	.word	0x20001adc
2000b9c0:	20001adc 	.word	0x20001adc
2000b9c4:	20001adc 	.word	0x20001adc
2000b9c8:	20001adc 	.word	0x20001adc
2000b9cc:	20001adc 	.word	0x20001adc
2000b9d0:	20001adc 	.word	0x20001adc
2000b9d4:	20001adc 	.word	0x20001adc
2000b9d8:	20001adc 	.word	0x20001adc
2000b9dc:	20001adc 	.word	0x20001adc
2000b9e0:	20001adc 	.word	0x20001adc
2000b9e4:	20001adc 	.word	0x20001adc
2000b9e8:	20001adc 	.word	0x20001adc
2000b9ec:	20001adc 	.word	0x20001adc
2000b9f0:	20001adc 	.word	0x20001adc
2000b9f4:	20001adc 	.word	0x20001adc
2000b9f8:	20001adc 	.word	0x20001adc
2000b9fc:	20001adc 	.word	0x20001adc
2000ba00:	20001adc 	.word	0x20001adc
2000ba04:	20001adc 	.word	0x20001adc
2000ba08:	20001adc 	.word	0x20001adc
2000ba0c:	20001adc 	.word	0x20001adc
2000ba10:	20001adc 	.word	0x20001adc
2000ba14:	20001adc 	.word	0x20001adc
2000ba18:	20001adc 	.word	0x20001adc
2000ba1c:	20001adc 	.word	0x20001adc
2000ba20:	20001adc 	.word	0x20001adc
2000ba24:	20001adc 	.word	0x20001adc
2000ba28:	20001adc 	.word	0x20001adc
2000ba2c:	20001adc 	.word	0x20001adc
2000ba30:	20001adc 	.word	0x20001adc
2000ba34:	20001adc 	.word	0x20001adc
2000ba38:	20001cd2 	.word	0x20001cd2
2000ba3c:	20001cde 	.word	0x20001cde
2000ba40:	20001cc6 	.word	0x20001cc6
2000ba44:	20001cba 	.word	0x20001cba
2000ba48:	20001cae 	.word	0x20001cae
2000ba4c:	20001ca2 	.word	0x20001ca2
2000ba50:	20001c96 	.word	0x20001c96
2000ba54:	20001adc 	.word	0x20001adc
2000ba58:	20001adc 	.word	0x20001adc
2000ba5c:	20001adc 	.word	0x20001adc
2000ba60:	20001adc 	.word	0x20001adc
2000ba64:	20001adc 	.word	0x20001adc
2000ba68:	20001adc 	.word	0x20001adc
2000ba6c:	20001adc 	.word	0x20001adc
2000ba70:	20001adc 	.word	0x20001adc
2000ba74:	20001adc 	.word	0x20001adc
2000ba78:	20001c8a 	.word	0x20001c8a
2000ba7c:	20001c7e 	.word	0x20001c7e
2000ba80:	20001c72 	.word	0x20001c72
2000ba84:	20001c66 	.word	0x20001c66
2000ba88:	20001c5a 	.word	0x20001c5a
2000ba8c:	20001c4e 	.word	0x20001c4e
2000ba90:	20001adc 	.word	0x20001adc
2000ba94:	20001adc 	.word	0x20001adc
2000ba98:	20001adc 	.word	0x20001adc
2000ba9c:	20001adc 	.word	0x20001adc
2000baa0:	20001adc 	.word	0x20001adc
2000baa4:	20001adc 	.word	0x20001adc
2000baa8:	20001adc 	.word	0x20001adc
2000baac:	20001adc 	.word	0x20001adc
2000bab0:	20001adc 	.word	0x20001adc
2000bab4:	20001adc 	.word	0x20001adc
2000bab8:	20001c42 	.word	0x20001c42
2000babc:	20001c36 	.word	0x20001c36
2000bac0:	20001c2a 	.word	0x20001c2a
2000bac4:	20001c1e 	.word	0x20001c1e
2000bac8:	20001c12 	.word	0x20001c12
2000bacc:	20001c06 	.word	0x20001c06
2000bad0:	20001adc 	.word	0x20001adc
2000bad4:	20001adc 	.word	0x20001adc
2000bad8:	20001adc 	.word	0x20001adc
2000badc:	20001adc 	.word	0x20001adc
2000bae0:	20001adc 	.word	0x20001adc
2000bae4:	20001adc 	.word	0x20001adc
2000bae8:	20001adc 	.word	0x20001adc
2000baec:	20001adc 	.word	0x20001adc
2000baf0:	20001adc 	.word	0x20001adc
2000baf4:	20001bfa 	.word	0x20001bfa
2000baf8:	20001bee 	.word	0x20001bee
2000bafc:	20001be2 	.word	0x20001be2
2000bb00:	20001bd6 	.word	0x20001bd6
2000bb04:	20001bca 	.word	0x20001bca
2000bb08:	20001bbe 	.word	0x20001bbe
2000bb0c:	20001bb2 	.word	0x20001bb2
2000bb10:	20001ba6 	.word	0x20001ba6
2000bb14:	20001b9a 	.word	0x20001b9a
2000bb18:	20001b8e 	.word	0x20001b8e
2000bb1c:	20001adc 	.word	0x20001adc
2000bb20:	20001adc 	.word	0x20001adc
2000bb24:	20001adc 	.word	0x20001adc
2000bb28:	20001b82 	.word	0x20001b82
2000bb2c:	20001adc 	.word	0x20001adc
2000bb30:	20001adc 	.word	0x20001adc
2000bb34:	20001adc 	.word	0x20001adc
2000bb38:	20001adc 	.word	0x20001adc
2000bb3c:	20001adc 	.word	0x20001adc
2000bb40:	20001adc 	.word	0x20001adc
2000bb44:	20001adc 	.word	0x20001adc
2000bb48:	20001adc 	.word	0x20001adc
2000bb4c:	20001adc 	.word	0x20001adc
2000bb50:	20001adc 	.word	0x20001adc
2000bb54:	20001adc 	.word	0x20001adc
2000bb58:	20001adc 	.word	0x20001adc
2000bb5c:	20001adc 	.word	0x20001adc
2000bb60:	20001adc 	.word	0x20001adc
2000bb64:	20001adc 	.word	0x20001adc
2000bb68:	20001adc 	.word	0x20001adc
2000bb6c:	20001adc 	.word	0x20001adc
2000bb70:	20001adc 	.word	0x20001adc
2000bb74:	20001b76 	.word	0x20001b76
2000bb78:	20001b6a 	.word	0x20001b6a
2000bb7c:	20001b5e 	.word	0x20001b5e
2000bb80:	20001b52 	.word	0x20001b52
2000bb84:	20001b46 	.word	0x20001b46
2000bb88:	20001b3a 	.word	0x20001b3a
2000bb8c:	20001b2e 	.word	0x20001b2e
2000bb90:	20001b22 	.word	0x20001b22
2000bb94:	20001b16 	.word	0x20001b16
2000bb98:	20001b0a 	.word	0x20001b0a
2000bb9c:	54280a0a 	.word	0x54280a0a
2000bba0:	20747865 	.word	0x20747865
2000bba4:	61726150 	.word	0x61726150
2000bba8:	6574656d 	.word	0x6574656d
2000bbac:	25273a72 	.word	0x25273a72
2000bbb0:	00002773 	.word	0x00002773
2000bbb4:	6150280a 	.word	0x6150280a
2000bbb8:	656d6172 	.word	0x656d6172
2000bbbc:	3a726574 	.word	0x3a726574
2000bbc0:	28206425 	.word	0x28206425
2000bbc4:	58343025 	.word	0x58343025
2000bbc8:	63252029 	.word	0x63252029
2000bbcc:	6441202c 	.word	0x6441202c
2000bbd0:	73657264 	.word	0x73657264
2000bbd4:	64253a73 	.word	0x64253a73
2000bbd8:	30252820 	.word	0x30252820
2000bbdc:	20295834 	.word	0x20295834
2000bbe0:	20296325 	.word	0x20296325
2000bbe4:	0000003e 	.word	0x0000003e
2000bbe8:	00000820 	.word	0x00000820
2000bbec:	3230250a 	.word	0x3230250a
2000bbf0:	30252058 	.word	0x30252058
2000bbf4:	25205832 	.word	0x25205832
2000bbf8:	64252064 	.word	0x64252064
2000bbfc:	00000000 	.word	0x00000000
2000bc00:	646d430a 	.word	0x646d430a
2000bc04:	646f6320 	.word	0x646f6320
2000bc08:	30253a65 	.word	0x30253a65
2000bc0c:	00005832 	.word	0x00005832
2000bc10:	6d754e20 	.word	0x6d754e20
2000bc14:	25203d20 	.word	0x25203d20
2000bc18:	20583430 	.word	0x20583430
2000bc1c:	00006425 	.word	0x00006425
2000bc20:	20002108 	.word	0x20002108
2000bc24:	200020d4 	.word	0x200020d4
2000bc28:	2000209e 	.word	0x2000209e
2000bc2c:	20001f70 	.word	0x20001f70
2000bc30:	20002080 	.word	0x20002080
2000bc34:	20002062 	.word	0x20002062
2000bc38:	20002054 	.word	0x20002054
2000bc3c:	20001f70 	.word	0x20001f70
2000bc40:	20001f70 	.word	0x20001f70
2000bc44:	20001f70 	.word	0x20001f70
2000bc48:	20001f70 	.word	0x20001f70
2000bc4c:	20001f70 	.word	0x20001f70
2000bc50:	20001f70 	.word	0x20001f70
2000bc54:	20001f70 	.word	0x20001f70
2000bc58:	20001f70 	.word	0x20001f70
2000bc5c:	20001f70 	.word	0x20001f70
2000bc60:	20001f70 	.word	0x20001f70
2000bc64:	20001f70 	.word	0x20001f70
2000bc68:	20001f70 	.word	0x20001f70
2000bc6c:	20001f70 	.word	0x20001f70
2000bc70:	20001f70 	.word	0x20001f70
2000bc74:	20001f70 	.word	0x20001f70
2000bc78:	20001f70 	.word	0x20001f70
2000bc7c:	20001f70 	.word	0x20001f70
2000bc80:	20001f70 	.word	0x20001f70
2000bc84:	20001f70 	.word	0x20001f70
2000bc88:	20001f70 	.word	0x20001f70
2000bc8c:	20001f70 	.word	0x20001f70
2000bc90:	20001f70 	.word	0x20001f70
2000bc94:	20001f70 	.word	0x20001f70
2000bc98:	20001f70 	.word	0x20001f70
2000bc9c:	20001f70 	.word	0x20001f70
2000bca0:	20001f70 	.word	0x20001f70
2000bca4:	20001f70 	.word	0x20001f70
2000bca8:	20001f70 	.word	0x20001f70
2000bcac:	20001f70 	.word	0x20001f70
2000bcb0:	20001f70 	.word	0x20001f70
2000bcb4:	20001f70 	.word	0x20001f70
2000bcb8:	20001f70 	.word	0x20001f70
2000bcbc:	20001f70 	.word	0x20001f70
2000bcc0:	20001f70 	.word	0x20001f70
2000bcc4:	20001f70 	.word	0x20001f70
2000bcc8:	20001f70 	.word	0x20001f70
2000bccc:	20001f70 	.word	0x20001f70
2000bcd0:	20001f70 	.word	0x20001f70
2000bcd4:	20001f70 	.word	0x20001f70
2000bcd8:	20001f70 	.word	0x20001f70
2000bcdc:	20001f70 	.word	0x20001f70
2000bce0:	20001f70 	.word	0x20001f70
2000bce4:	20001f70 	.word	0x20001f70
2000bce8:	20001f70 	.word	0x20001f70
2000bcec:	20001f70 	.word	0x20001f70
2000bcf0:	20001f70 	.word	0x20001f70
2000bcf4:	20001f70 	.word	0x20001f70
2000bcf8:	2000203e 	.word	0x2000203e
2000bcfc:	74737953 	.word	0x74737953
2000bd00:	63206d65 	.word	0x63206d65
2000bd04:	6b636f6c 	.word	0x6b636f6c
2000bd08:	20666f20 	.word	0x20666f20
2000bd0c:	6b207525 	.word	0x6b207525
2000bd10:	63207a48 	.word	0x63207a48
2000bd14:	6f6e6e61 	.word	0x6f6e6e61
2000bd18:	65622074 	.word	0x65622074
2000bd1c:	61786520 	.word	0x61786520
2000bd20:	796c7463 	.word	0x796c7463
2000bd24:	68636120 	.word	0x68636120
2000bd28:	65766569 	.word	0x65766569
2000bd2c:	00000064 	.word	0x00000064
2000bd30:	3344480a 	.word	0x3344480a
2000bd34:	36303136 	.word	0x36303136
2000bd38:	70655220 	.word	0x70655220
2000bd3c:	6563616c 	.word	0x6563616c
2000bd40:	746e656d 	.word	0x746e656d
2000bd44:	00000000 	.word	0x00000000
2000bd48:	69726553 	.word	0x69726553
2000bd4c:	63206c61 	.word	0x63206c61
2000bd50:	616d6d6f 	.word	0x616d6d6f
2000bd54:	6820646e 	.word	0x6820646e
2000bd58:	00706c65 	.word	0x00706c65
2000bd5c:	64616f4c 	.word	0x64616f4c
2000bd60:	756d6520 	.word	0x756d6520
2000bd64:	6974616c 	.word	0x6974616c
2000bd68:	52206e6f 	.word	0x52206e6f
2000bd6c:	66204d41 	.word	0x66204d41
2000bd70:	206d6f72 	.word	0x206d6f72
2000bd74:	73616c66 	.word	0x73616c66
2000bd78:	6c732068 	.word	0x6c732068
2000bd7c:	0000746f 	.word	0x0000746f
2000bd80:	64616f4c 	.word	0x64616f4c
2000bd84:	6d656d20 	.word	0x6d656d20
2000bd88:	2079726f 	.word	0x2079726f
2000bd8c:	7020726f 	.word	0x7020726f
2000bd90:	72676f72 	.word	0x72676f72
2000bd94:	66206d61 	.word	0x66206d61
2000bd98:	206d6f72 	.word	0x206d6f72
2000bd9c:	73616c66 	.word	0x73616c66
2000bda0:	6c732068 	.word	0x6c732068
2000bda4:	0000746f 	.word	0x0000746f
2000bda8:	65766153 	.word	0x65766153
2000bdac:	756d6520 	.word	0x756d6520
2000bdb0:	6974616c 	.word	0x6974616c
2000bdb4:	52206e6f 	.word	0x52206e6f
2000bdb8:	74204d41 	.word	0x74204d41
2000bdbc:	6c66206f 	.word	0x6c66206f
2000bdc0:	20687361 	.word	0x20687361
2000bdc4:	746f6c73 	.word	0x746f6c73
2000bdc8:	00000000 	.word	0x00000000
2000bdcc:	65766153 	.word	0x65766153
2000bdd0:	6d656d20 	.word	0x6d656d20
2000bdd4:	2079726f 	.word	0x2079726f
2000bdd8:	7020726f 	.word	0x7020726f
2000bddc:	72676f72 	.word	0x72676f72
2000bde0:	74206d61 	.word	0x74206d61
2000bde4:	6c66206f 	.word	0x6c66206f
2000bde8:	20687361 	.word	0x20687361
2000bdec:	746f6c73 	.word	0x746f6c73
2000bdf0:	00000000 	.word	0x00000000
2000bdf4:	6f666e49 	.word	0x6f666e49
2000bdf8:	74616d72 	.word	0x74616d72
2000bdfc:	006e6f69 	.word	0x006e6f69
2000be00:	70736944 	.word	0x70736944
2000be04:	2079616c 	.word	0x2079616c
2000be08:	004d4152 	.word	0x004d4152
2000be0c:	72617453 	.word	0x72617453
2000be10:	72742074 	.word	0x72742074
2000be14:	6e696361 	.word	0x6e696361
2000be18:	00000067 	.word	0x00000067
2000be1c:	70736944 	.word	0x70736944
2000be20:	2079616c 	.word	0x2079616c
2000be24:	63617274 	.word	0x63617274
2000be28:	00000065 	.word	0x00000065
2000be2c:	6f72655a 	.word	0x6f72655a
2000be30:	72617020 	.word	0x72617020
2000be34:	74656d61 	.word	0x74656d61
2000be38:	00007265 	.word	0x00007265
2000be3c:	73617245 	.word	0x73617245
2000be40:	72702065 	.word	0x72702065
2000be44:	6172676f 	.word	0x6172676f
2000be48:	6c73206d 	.word	0x6c73206d
2000be4c:	0000746f 	.word	0x0000746f
2000be50:	70736944 	.word	0x70736944
2000be54:	2079616c 	.word	0x2079616c
2000be58:	676f7270 	.word	0x676f7270
2000be5c:	206d6172 	.word	0x206d6172
2000be60:	746f6c73 	.word	0x746f6c73
2000be64:	00000000 	.word	0x00000000
2000be68:	70736944 	.word	0x70736944
2000be6c:	2079616c 	.word	0x2079616c
2000be70:	206c6c41 	.word	0x206c6c41
2000be74:	676f7250 	.word	0x676f7250
2000be78:	736d6172 	.word	0x736d6172
2000be7c:	00000000 	.word	0x00000000
2000be80:	20746553 	.word	0x20746553
2000be84:	72646441 	.word	0x72646441
2000be88:	00737365 	.word	0x00737365
2000be8c:	74697257 	.word	0x74697257
2000be90:	79422065 	.word	0x79422065
2000be94:	00006574 	.word	0x00006574
2000be98:	61656c43 	.word	0x61656c43
2000be9c:	6c412072 	.word	0x6c412072
2000bea0:	4152206c 	.word	0x4152206c
2000bea4:	0000004d 	.word	0x0000004d
2000bea8:	61656c43 	.word	0x61656c43
2000beac:	654d2072 	.word	0x654d2072
2000beb0:	79726f6d 	.word	0x79726f6d
2000beb4:	20726f20 	.word	0x20726f20
2000beb8:	676f7250 	.word	0x676f7250
2000bebc:	206d6172 	.word	0x206d6172
2000bec0:	004d4152 	.word	0x004d4152
2000bec4:	6769442a 	.word	0x6769442a
2000bec8:	00007469 	.word	0x00007469
2000becc:	6562614c 	.word	0x6562614c
2000bed0:	6c53206c 	.word	0x6c53206c
2000bed4:	0000746f 	.word	0x0000746f
2000bed8:	7473694c 	.word	0x7473694c
2000bedc:	6f6c5320 	.word	0x6f6c5320
2000bee0:	614c2074 	.word	0x614c2074
2000bee4:	736c6562 	.word	0x736c6562
2000bee8:	00000000 	.word	0x00000000
2000beec:	65746e45 	.word	0x65746e45
2000bef0:	65542072 	.word	0x65542072
2000bef4:	50207478 	.word	0x50207478
2000bef8:	6d617261 	.word	0x6d617261
2000befc:	72657465 	.word	0x72657465
2000bf00:	00000000 	.word	0x00000000
2000bf04:	67676f54 	.word	0x67676f54
2000bf08:	6120656c 	.word	0x6120656c
2000bf0c:	206f7475 	.word	0x206f7475
2000bf10:	72636e69 	.word	0x72636e69
2000bf14:	6e656d65 	.word	0x6e656d65
2000bf18:	666f2074 	.word	0x666f2074
2000bf1c:	72617020 	.word	0x72617020
2000bf20:	74656d61 	.word	0x74656d61
2000bf24:	00007265 	.word	0x00007265
2000bf28:	67676f54 	.word	0x67676f54
2000bf2c:	6120656c 	.word	0x6120656c
2000bf30:	206f7475 	.word	0x206f7475
2000bf34:	72636e69 	.word	0x72636e69
2000bf38:	6e656d65 	.word	0x6e656d65
2000bf3c:	666f2074 	.word	0x666f2074
2000bf40:	64646120 	.word	0x64646120
2000bf44:	73736572 	.word	0x73736572
2000bf48:	00000000 	.word	0x00000000
2000bf4c:	746f6f42 	.word	0x746f6f42
2000bf50:	206f7420 	.word	0x206f7420
2000bf54:	7373616d 	.word	0x7373616d
2000bf58:	6f747320 	.word	0x6f747320
2000bf5c:	65676172 	.word	0x65676172
2000bf60:	00000000 	.word	0x00000000
2000bf64:	73206f4e 	.word	0x73206f4e
2000bf68:	6c6e6970 	.word	0x6c6e6970
2000bf6c:	736b636f 	.word	0x736b636f
2000bf70:	65726120 	.word	0x65726120
2000bf74:	61766120 	.word	0x61766120
2000bf78:	62616c69 	.word	0x62616c69
2000bf7c:	0000656c 	.word	0x0000656c
2000bf80:	75206f4e 	.word	0x75206f4e
2000bf84:	20726573 	.word	0x20726573
2000bf88:	73515249 	.word	0x73515249
2000bf8c:	65726120 	.word	0x65726120
2000bf90:	61766120 	.word	0x61766120
2000bf94:	62616c69 	.word	0x62616c69
2000bf98:	0000656c 	.word	0x0000656c
2000bf9c:	64726148 	.word	0x64726148
2000bfa0:	65726177 	.word	0x65726177
2000bfa4:	616c6120 	.word	0x616c6120
2000bfa8:	25206d72 	.word	0x25206d72
2000bfac:	6c612064 	.word	0x6c612064
2000bfb0:	64616572 	.word	0x64616572
2000bfb4:	6c632079 	.word	0x6c632079
2000bfb8:	656d6961 	.word	0x656d6961
2000bfbc:	00000064 	.word	0x00000064
2000bfc0:	2a2a2a0a 	.word	0x2a2a2a0a
2000bfc4:	4e415020 	.word	0x4e415020
2000bfc8:	2a204349 	.word	0x2a204349
2000bfcc:	000a2a2a 	.word	0x000a2a2a
2000bfd0:	64726148 	.word	0x64726148
2000bfd4:	73736120 	.word	0x73736120
2000bfd8:	00747265 	.word	0x00747265
2000bfdc:	00696e66 	.word	0x00696e66
2000bfe0:	2b696e66 	.word	0x2b696e66
2000bfe4:	00000000 	.word	0x00000000
2000bfe8:	006e616e 	.word	0x006e616e
2000bfec:	2d696e66 	.word	0x2d696e66
2000bff0:	00000000 	.word	0x00000000
2000bff4:	20004ffa 	.word	0x20004ffa
2000bff8:	20004fae 	.word	0x20004fae
2000bffc:	20004fae 	.word	0x20004fae
2000c000:	20004ff2 	.word	0x20004ff2
2000c004:	20004fae 	.word	0x20004fae
2000c008:	20004fae 	.word	0x20004fae
2000c00c:	20004fae 	.word	0x20004fae
2000c010:	20004fae 	.word	0x20004fae
2000c014:	20004fae 	.word	0x20004fae
2000c018:	20004fae 	.word	0x20004fae
2000c01c:	20004fae 	.word	0x20004fae
2000c020:	20004fea 	.word	0x20004fea
2000c024:	20004fae 	.word	0x20004fae
2000c028:	20004fe2 	.word	0x20004fe2
2000c02c:	20004fae 	.word	0x20004fae
2000c030:	20004fae 	.word	0x20004fae
2000c034:	20004fda 	.word	0x20004fda
2000c038:	2000517e 	.word	0x2000517e
2000c03c:	20005012 	.word	0x20005012
2000c040:	2000518e 	.word	0x2000518e
2000c044:	20005012 	.word	0x20005012
2000c048:	20005002 	.word	0x20005002
2000c04c:	20005012 	.word	0x20005012
2000c050:	20005012 	.word	0x20005012
2000c054:	20005012 	.word	0x20005012
2000c058:	20005012 	.word	0x20005012
2000c05c:	20005012 	.word	0x20005012
2000c060:	20005012 	.word	0x20005012
2000c064:	20005012 	.word	0x20005012
2000c068:	20005024 	.word	0x20005024
2000c06c:	20005012 	.word	0x20005012
2000c070:	20005012 	.word	0x20005012
2000c074:	20005012 	.word	0x20005012
2000c078:	20005012 	.word	0x20005012
2000c07c:	20005012 	.word	0x20005012
2000c080:	20005024 	.word	0x20005024
2000c084:	2000526e 	.word	0x2000526e
2000c088:	20004f6a 	.word	0x20004f6a
2000c08c:	20004f6a 	.word	0x20004f6a
2000c090:	20004f6a 	.word	0x20004f6a
2000c094:	20004f6a 	.word	0x20004f6a
2000c098:	20004f6a 	.word	0x20004f6a
2000c09c:	20004f6a 	.word	0x20004f6a
2000c0a0:	20004f6a 	.word	0x20004f6a
2000c0a4:	20004f6a 	.word	0x20004f6a
2000c0a8:	20004f6a 	.word	0x20004f6a
2000c0ac:	20004f6a 	.word	0x20004f6a
2000c0b0:	20004f6a 	.word	0x20004f6a
2000c0b4:	20004f6a 	.word	0x20004f6a
2000c0b8:	20004f6a 	.word	0x20004f6a
2000c0bc:	20004f6a 	.word	0x20004f6a
2000c0c0:	20004f6a 	.word	0x20004f6a
2000c0c4:	20004f6a 	.word	0x20004f6a
2000c0c8:	20004f6a 	.word	0x20004f6a
2000c0cc:	20004f6a 	.word	0x20004f6a
2000c0d0:	20004f6a 	.word	0x20004f6a
2000c0d4:	20004f6a 	.word	0x20004f6a
2000c0d8:	20004f6a 	.word	0x20004f6a
2000c0dc:	20004f6a 	.word	0x20004f6a
2000c0e0:	20004f6a 	.word	0x20004f6a
2000c0e4:	20004f6a 	.word	0x20004f6a
2000c0e8:	20004f6a 	.word	0x20004f6a
2000c0ec:	20004f6a 	.word	0x20004f6a
2000c0f0:	20004f6a 	.word	0x20004f6a
2000c0f4:	20004f6a 	.word	0x20004f6a
2000c0f8:	20004f6a 	.word	0x20004f6a
2000c0fc:	20004f6a 	.word	0x20004f6a
2000c100:	20004f6a 	.word	0x20004f6a
2000c104:	2000542c 	.word	0x2000542c
2000c108:	2000519a 	.word	0x2000519a
2000c10c:	2000542c 	.word	0x2000542c
2000c110:	20004f6a 	.word	0x20004f6a
2000c114:	20004f6a 	.word	0x20004f6a
2000c118:	20004f6a 	.word	0x20004f6a
2000c11c:	20004f6a 	.word	0x20004f6a
2000c120:	20004f6a 	.word	0x20004f6a
2000c124:	20004f6a 	.word	0x20004f6a
2000c128:	20004f6a 	.word	0x20004f6a
2000c12c:	20004f6a 	.word	0x20004f6a
2000c130:	20004f6a 	.word	0x20004f6a
2000c134:	20004f6a 	.word	0x20004f6a
2000c138:	20004f6a 	.word	0x20004f6a
2000c13c:	20004f6a 	.word	0x20004f6a
2000c140:	20004f6a 	.word	0x20004f6a
2000c144:	20004f6a 	.word	0x20004f6a
2000c148:	20004f6a 	.word	0x20004f6a
2000c14c:	20004f6a 	.word	0x20004f6a
2000c150:	200050c6 	.word	0x200050c6
2000c154:	20004f6a 	.word	0x20004f6a
2000c158:	20004f6a 	.word	0x20004f6a
2000c15c:	20004f6a 	.word	0x20004f6a
2000c160:	20004f6a 	.word	0x20004f6a
2000c164:	20004f6a 	.word	0x20004f6a
2000c168:	20004f6a 	.word	0x20004f6a
2000c16c:	20004f6a 	.word	0x20004f6a
2000c170:	20004f6a 	.word	0x20004f6a
2000c174:	20004f6a 	.word	0x20004f6a
2000c178:	200050c6 	.word	0x200050c6
2000c17c:	2000521a 	.word	0x2000521a
2000c180:	200050c6 	.word	0x200050c6
2000c184:	2000542c 	.word	0x2000542c
2000c188:	2000519a 	.word	0x2000519a
2000c18c:	2000542c 	.word	0x2000542c
2000c190:	20004f6a 	.word	0x20004f6a
2000c194:	200050c6 	.word	0x200050c6
2000c198:	20004f6a 	.word	0x20004f6a
2000c19c:	20004f6a 	.word	0x20004f6a
2000c1a0:	20004f6a 	.word	0x20004f6a
2000c1a4:	20004f6a 	.word	0x20004f6a
2000c1a8:	20004f6a 	.word	0x20004f6a
2000c1ac:	200050c6 	.word	0x200050c6
2000c1b0:	200051ce 	.word	0x200051ce
2000c1b4:	20004f6a 	.word	0x20004f6a
2000c1b8:	20004f6a 	.word	0x20004f6a
2000c1bc:	20005298 	.word	0x20005298
2000c1c0:	20004f6a 	.word	0x20004f6a
2000c1c4:	200050c6 	.word	0x200050c6
2000c1c8:	20004f6a 	.word	0x20004f6a
2000c1cc:	20004f6a 	.word	0x20004f6a
2000c1d0:	200050c6 	.word	0x200050c6
2000c1d4:	00000000 	.word	0x00000000

2000c1d8 <pow10.5444>:
2000c1d8:	00000000 3ff00000 00000000 40240000     .......?......$@
2000c1e8:	00000000 40590000 00000000 408f4000     ......Y@.....@.@
2000c1f8:	00000000 40c38800 00000000 40f86a00     .......@.....j.@
2000c208:	00000000 412e8480 00000000 416312d0     .......A......cA
2000c218:	00000000 4197d784 00000000 41cdcd65     .......A....e..A
2000c228:	656c6552 00657361 746f6f62 32775f32     Release.boot2_w2
2000c238:	38307135 00000030 00312e30 2e342e31     5q080...0.1.1.4.
2000c248:	00000030 6f636970 00000000 36336468     0...pico....hd36
2000c258:	5f363031 6c706572 6d656361 00746e65     106_replacement.
2000c268:	206c754a 32203332 00333230              Jul 23 2023.

2000c274 <__bi_44>:
2000c274:	50520006 b63cffbb 2000c24c              ..RP..<.L.. 

2000c280 <__bi_56>:
2000c280:	50520006 11a9bc3a 2000c240              ..RP:...@.. 

2000c28c <__bi_75>:
2000c28c:	50520006 7f8882e1 2000c230              ..RP....0.. 

2000c298 <__bi_81>:
2000c298:	50520006 4275f0d3 2000c228              ..RP..uB(.. 

2000c2a4 <crlf_str.6065>:
2000c2a4:	00000a0d 54524155 64747320 00006e69     ....UART stdin..
2000c2b4:	54524155 64747320 0074756f 54524155     UART stdout.UART
2000c2c4:	64747320 2f206e69 64747320 0074756f      stdin / stdout.

2000c2d4 <__bi_28.4859>:
2000c2d4:	50520006 a1f4b453 2000c2c0              ..RPS...... 

2000c2e0 <__bi_29.4863>:
2000c2e0:	50520008 00000092                       ..RP....

2000c2e8 <_resetd_driver>:
2000c2e8:	20007cb9 20007cbd 20007cc9 20007cf5     .|. .|. .|. .|. 
2000c2f8:	20007cf1 00000000 20425355 69647473     .|. ....USB stdi
2000c308:	202f206e 6f647473 00007475              n / stdout..

2000c314 <__bi_118.7207>:
2000c314:	50520006 a1f4b453 2000c300 70736152     ..RPS...... Rasp
2000c324:	72726562 69502079 00000000 6f636950     berry Pi....Pico
2000c334:	00000000 72616f42 44432064 00000043     ....Board CDC...
2000c344:	65736552 00000074                       Reset...

2000c34c <usbd_desc_cfg>:
2000c34c:	00540209 80000103 000b087d 00020202     ..T.....}.......
2000c35c:	00040900 02020100 24050400 05012000     ...........$. ..
2000c36c:	01000124 02022404 00062405 81050701     $....$...$......
2000c37c:	10000803 00010409 00000a02 02050700     ................
2000c38c:	00004002 02820507 09000040 00000204     .@......@.......
2000c39c:	050100ff                                ....

2000c3a0 <usbd_desc_device>:
2000c3a0:	02000112 400102ef 000a2e8a 02010100     .......@........
2000c3b0:	00000103                                ....

2000c3b4 <usbd_desc_str>:
2000c3b4:	00000000 2000c320 2000c330 2000d3ac     .... .. 0.. ... 
2000c3c4:	2000c338 2000c344 61686e55 656c646e     8.. D.. Unhandle
2000c3d4:	52492064 78302051 000a7825 25207065     d IRQ 0x%x..ep %
2000c3e4:	73252064 73617720 726c6120 79646165     d %s was already
2000c3f4:	61766120 62616c69 0000656c 276e6143      available..Can'
2000c404:	6f632074 6e69746e 78206575 20726566     t continue xfer 
2000c414:	69206e6f 7463616e 20657669 25207065     on inactive ep %
2000c424:	73252064 00000000 20008b48 20008d44     d %s....H.. D.. 
2000c434:	20008cd6 20008c8a 20008c6c 20008c54     ... ... l.. T.. 
2000c444:	20008be8 20008b96 20008b8a 20009020     ... ... ...  .. 
2000c454:	20009006 20008c42 2000909e 20008c42     ... B.. ... B.. 
2000c464:	20009086 20009072 20008c42 2000905e     ... r.. B.. ^.. 
2000c474:	20009034 20008c42 2000911c 20009102     4.. B.. ... ... 
2000c484:	200090f6 20008c42 20008c42 200090d8     ... B.. B.. ... 
2000c494:	20009102 20008c42 20008c42 20008c42     ... B.. B.. B.. 
2000c4a4:	20008c42 20008c42 20008c42 20008c42     B.. B.. B.. B.. 
2000c4b4:	200090b8                                ... 

2000c4b8 <_usbd_driver>:
2000c4b8:	20009b81 20009bfd 20009c29 20009d0d     ... ... ).. ... 
2000c4c8:	20009df1 00000000                       ... ....

2000c4d0 <_ctype_>:
2000c4d0:	20202000 20202020 28282020 20282828     .         ((((( 
2000c4e0:	20202020 20202020 20202020 20202020                     
2000c4f0:	10108820 10101010 10101010 10101010      ...............
2000c500:	04040410 04040404 10040404 10101010     ................
2000c510:	41411010 41414141 01010101 01010101     ..AAAAAA........
2000c520:	01010101 01010101 01010101 10101010     ................
2000c530:	42421010 42424242 02020202 02020202     ..BBBBBB........
2000c540:	02020202 02020202 02020202 10101010     ................
2000c550:	00000020 00000000 00000000 00000000      ...............
	...

2000c5d4 <command_ptr>:
2000c5d4:	200133b4                                .3. 

2000c5d8 <flash_slot_contents>:
2000c5d8:	10100000                                ....

2000c5dc <serial_cmds>:
2000c5dc:	00000068 2000bd48 2000035d 0000006c     h...H.. ].. l...
2000c5ec:	2000bd5c 20000c61 0000004c 2000bd80     \.. a.. L...... 
2000c5fc:	20000d5d 00000073 2000bda8 20000de9     ].. s...... ... 
2000c60c:	00000053 2000bdcc 20001e45 0000003f     S...... E.. ?...
2000c61c:	2000bd48 2000035d 00000049 2000bdf4     H.. ].. I...... 
2000c62c:	200001f9 00000064 2000be00 2000177d     ... d...... }.. 
2000c63c:	0000002b 2000be0c 2000019d 0000003d     +...... ... =...
2000c64c:	2000be1c 2000021d 0000007a 2000be2c     ... ... z...,.. 
2000c65c:	2000017d 00000045 2000be3c 20000895     }.. E...<.. ... 
2000c66c:	00000044 2000be50 20001a7d 00000061     D...P.. }.. a...
2000c67c:	2000be68 200008d9 00000041 2000be80     h.. ... A...... 
2000c68c:	20000189 00000057 2000be8c 20000839     ... W...... 9.. 
2000c69c:	0000005f 2000be98 20000cb9 0000002d     _...... ... -...
2000c6ac:	2000bea8 20000cf5 00000030 2000bec4     ... ... 0...... 
2000c6bc:	2000015d 00000031 2000bec4 2000015d     ].. 1...... ].. 
2000c6cc:	00000032 2000bec4 2000015d 00000033     2...... ].. 3...
2000c6dc:	2000bec4 2000015d 00000034 2000bec4     ... ].. 4...... 
2000c6ec:	2000015d 00000035 2000bec4 2000015d     ].. 5...... ].. 
2000c6fc:	00000036 2000bec4 2000015d 00000037     6...... ].. 7...
2000c70c:	2000bec4 2000015d 00000038 2000bec4     ... ].. 8...... 
2000c71c:	2000015d 00000039 2000bec4 2000015d     ].. 9...... ].. 
2000c72c:	00000042 2000becc 200007a1 00000062     B...... ... b...
2000c73c:	2000bed8 200002dd 00000074 2000beec     ... ... t...... 
2000c74c:	200007f9 0000002e 2000bf04 200001d9     ... ....... ... 
2000c75c:	0000002c 2000bf28 200001e9 00000021     ,...(.. ... !...
2000c76c:	2000bf4c 20000881                       L.. ... 

2000c774 <striped_spin_lock_num>:
2000c774:	00000010                                ....

2000c778 <irq_handler_chain_slots>:
2000c778:	00000000 	.word	0x00000000
2000c77c:	00010000 	.word	0x00010000
	...
2000c788:	00020000 	.word	0x00020000
	...
2000c794:	00030000 	.word	0x00030000
	...
2000c7a0:	00ff0000 	.word	0x00ff0000
2000c7a4:	00000000 	.word	0x00000000

2000c7a8 <irq_handler_chain_first_slot>:
2000c7a8:	b500      	push	{lr}
2000c7aa:	6848      	ldr	r0, [r1, #4]
2000c7ac:	3101      	adds	r1, #1
2000c7ae:	468e      	mov	lr, r1
2000c7b0:	4700      	bx	r0

2000c7b2 <irq_handler_chain_remove_tail>:
2000c7b2:	4670      	mov	r0, lr
2000c7b4:	3809      	subs	r0, #9
2000c7b6:	4901      	ldr	r1, [pc, #4]	; (2000c7bc <irq_handler_chain_remove_tail+0xa>)
2000c7b8:	4788      	blx	r1
2000c7ba:	bd00      	pop	{pc}
2000c7bc:	20002c1d 	.word	0x20002c1d

2000c7c0 <default_alarm_pool>:
2000c7c0:	2000c7d8 00000000 2000c8a0 2000ceac     ... ....... ... 
	...

2000c7d8 <default_alarm_pool_heap>:
2000c7d8:	2000cebc 00000000 00000000 00000010     ... ............
	...

2000c7f0 <aeabi_bits_funcs>:
2000c7f0:	00003350 	.word	0x00003350
2000c7f4:	0000334c 	.word	0x0000334c
2000c7f8:	00003354 	.word	0x00003354
2000c7fc:	00003352 	.word	0x00003352

2000c800 <aeabi_bits_funcs_end>:
2000c800:	0000534d 	.word	0x0000534d
2000c804:	0000434d 	.word	0x0000434d
2000c808:	00003453 	.word	0x00003453
2000c80c:	00003443 	.word	0x00003443

2000c810 <stdio_uart>:
2000c810:	20007bed 00000000 20007c39 00000000     .{. ....9|. ....
2000c820:	00000100                                ....

2000c824 <stdio_usb>:
2000c824:	20007e01 00000000 20007d99 00000000     .~. .....}. ....
2000c834:	00000100                                ....

2000c838 <ep_dir_string>:
2000c838:	2000c2d0 2000c2b0                       ... ... 

2000c840 <_usbd_qdef>:
2000c840:	20014a5c 000c0010 ffe00000 0000001f     \J. ............
	...

2000c864 <malloc_mutex>:
	...

2000c86c <print_mutex>:
	...

2000c874 <__mutex_array_end>:
2000c874:	200076e5 	.word	0x200076e5
2000c878:	20005ab1 	.word	0x20005ab1
2000c87c:	20006205 	.word	0x20006205
2000c880:	20007655 	.word	0x20007655

2000c884 <__frame_dummy_init_array_entry>:
2000c884:	20000139 2000a49d                       9.. ... 
